TN:
SF:/Library/Developer/CommandLineTools/SDKs/MacOSX15.1.sdk/usr/include/___wctype.h
FNL:0,153,155
FNA:0,0,_Z8towloweri
FNF:1
FNH:0
DA:153,0
DA:155,0
LF:2
LH:0
end_of_record
TN:
SF:/Library/Developer/CommandLineTools/SDKs/MacOSX15.1.sdk/usr/include/_ctype.h
FNL:0,137,139
FNA:0,0,_Z7isasciii
FNL:1,155,161
FNA:1,0,_Z8__istypeim
FNL:2,166,172
FNA:2,0,_Z9__isctypeim
FNL:3,232,234
FNA:3,0,_Z7iscntrli
FNL:4,239,241
FNA:4,0,_Z7isdigiti
FNL:5,269,271
FNA:5,0,_Z7isspacei
FNL:6,282,284
FNA:6,0,_Z8isxdigiti
FNL:7,300,302
FNA:7,10764,_Z7toupperi
FNF:8
FNH:1
DA:137,0
DA:139,0
DA:155,0
DA:160,0
DA:161,0
DA:166,0
DA:171,0
DA:172,0
DA:232,0
DA:234,0
DA:239,0
DA:241,0
DA:269,0
DA:271,0
DA:282,0
DA:284,0
DA:300,10764
DA:302,10764
LF:18
LH:2
end_of_record
TN:
SF:/Library/Developer/CommandLineTools/SDKs/MacOSX15.1.sdk/usr/include/c++/v1/__algorithm/any_of.h
FNL:0,23,28
FNA:0,2001,_ZNSt3__16any_ofB8ne180100INS_11__wrap_iterIPKNS_12basic_stringIcNS_11char_traitsIcEENS_9allocatorIcEEEEEEZNK7testing8internal12_GLOBAL__N_114UnitTestFilter11MatchesNameERS8_EUlSF_E_EEbT_SH_T0_
FNA:0,130,_ZNSt3__16any_ofB8ne180100INS_11__wrap_iterIPKcEEZN7testing8internal12_GLOBAL__N_113IsGlobPatternERKNS_12basic_stringIcNS_11char_traitsIcEENS_9allocatorIcEEEEE3$_0EEbT_SH_T0_
FNF:1
FNH:1
DA:23,2131
DA:24,5838
DA:25,3837
DA:26,130
DA:27,2001
DA:28,2131
LF:6
LH:6
end_of_record
TN:
SF:/Library/Developer/CommandLineTools/SDKs/MacOSX15.1.sdk/usr/include/c++/v1/__algorithm/comp.h
FNL:0,40,41
FNA:0,0,_ZNKSt3__16__lessIvvEclB8ne180100IddEEbRKT_RKT0_
FNA:0,1355,_ZNKSt3__16__lessIvvEclB8ne180100ImmEEbRKT_RKT0_
FNF:1
FNH:1
DA:40,1355
DA:41,1355
LF:2
LH:2
end_of_record
TN:
SF:/Library/Developer/CommandLineTools/SDKs/MacOSX15.1.sdk/usr/include/c++/v1/__algorithm/copy.h
FNL:0,103,104
FNA:0,1300,_ZNKSt3__114__copy_trivialclB8ne180100IKccLi0EEENS_4pairIPT_PT0_EES5_S5_S7_
FNA:0,0,_ZNKSt3__114__copy_trivialclB8ne180100IN7testing8internal13edit_distance8EditTypeES5_Li0EEENS_4pairIPT_PT0_EES8_S8_SA_
FNA:0,0,_ZNKSt3__114__copy_trivialclB8ne180100IddLi0EEENS_4pairIPT_PT0_EES4_S4_S6_
FNL:1,110,112
FNA:1,1300,_ZNSt3__16__copyB8ne180100INS_17_ClassicAlgPolicyEPKcS3_PcEENS_4pairIT0_T2_EES6_T1_S7_
FNA:1,0,_ZNSt3__16__copyB8ne180100INS_17_ClassicAlgPolicyEPN7testing8internal13edit_distance8EditTypeES6_S6_EENS_4pairIT0_T2_EES8_T1_S9_
FNA:1,0,_ZNSt3__16__copyB8ne180100INS_17_ClassicAlgPolicyEPdS2_S2_EENS_4pairIT0_T2_EES4_T1_S5_
FNL:2,117,118
FNA:2,1300,_ZNSt3__14copyB8ne180100IPKcPcEET0_T_S5_S4_
FNA:2,0,_ZNSt3__14copyB8ne180100IPN7testing8internal13edit_distance8EditTypeES5_EET0_T_S7_S6_
FNA:2,0,_ZNSt3__14copyB8ne180100IPdS1_EET0_T_S3_S2_
FNF:3
FNH:3
DA:103,1300
DA:104,1300
DA:110,1300
DA:111,1300
DA:112,1300
DA:117,1300
DA:118,1300
LF:7
LH:7
end_of_record
TN:
SF:/Library/Developer/CommandLineTools/SDKs/MacOSX15.1.sdk/usr/include/c++/v1/__algorithm/copy_move_common.h
FNL:0,107,111
FNA:0,1300,_ZNSt3__121__unwrap_and_dispatchB8ne180100INS_10__overloadINS_11__copy_loopINS_17_ClassicAlgPolicyEEENS_14__copy_trivialEEEPKcS8_PcLi0EEENS_4pairIT0_T2_EESB_T1_SC_
FNA:0,0,_ZNSt3__121__unwrap_and_dispatchB8ne180100INS_10__overloadINS_11__copy_loopINS_17_ClassicAlgPolicyEEENS_14__copy_trivialEEEPN7testing8internal13edit_distance8EditTypeESB_SB_Li0EEENS_4pairIT0_T2_EESD_T1_SE_
FNA:0,0,_ZNSt3__121__unwrap_and_dispatchB8ne180100INS_10__overloadINS_11__copy_loopINS_17_ClassicAlgPolicyEEENS_14__copy_trivialEEEPdS7_S7_Li0EEENS_4pairIT0_T2_EES9_T1_SA_
FNA:0,78,_ZNSt3__121__unwrap_and_dispatchB8ne180100INS_10__overloadINS_11__move_loopINS_17_ClassicAlgPolicyEEENS_14__move_trivialEEENS_11__wrap_iterIPNS_12basic_stringIcNS_11char_traitsIcEENS_9allocatorIcEEEEEESF_NS_15insert_iteratorINS_13unordered_setISD_NS_4hashISD_EENS_8equal_toISD_EENSB_ISD_EEEEEELi0EEENS_4pairIT0_T2_EESQ_T1_SR_
FNA:0,78,_ZNSt3__121__unwrap_and_dispatchB8ne180100INS_10__overloadINS_11__move_loopINS_17_ClassicAlgPolicyEEENS_14__move_trivialEEENS_11__wrap_iterIPNS_12basic_stringIcNS_11char_traitsIcEENS_9allocatorIcEEEEEESF_NS_15insert_iteratorINS_6vectorISD_NSB_ISD_EEEEEELi0EEENS_4pairIT0_T2_EESM_T1_SN_
FNA:0,0,_ZNSt3__121__unwrap_and_dispatchB8ne180100INS_10__overloadINS_11__move_loopINS_17_ClassicAlgPolicyEEENS_14__move_trivialEEENS_16reverse_iteratorIPN7testing8internal13edit_distance8EditTypeEEESD_SD_Li0EEENS_4pairIT0_T2_EESF_T1_SG_
FNA:0,0,_ZNSt3__121__unwrap_and_dispatchB8ne180100INS_10__overloadINS_11__move_loopINS_17_ClassicAlgPolicyEEENS_14__move_trivialEEENS_16reverse_iteratorIPPN7testing11EnvironmentEEESC_SC_Li0EEENS_4pairIT0_T2_EESE_T1_SF_
FNA:0,26,_ZNSt3__121__unwrap_and_dispatchB8ne180100INS_10__overloadINS_11__move_loopINS_17_ClassicAlgPolicyEEENS_14__move_trivialEEENS_16reverse_iteratorIPPN7testing17TestEventListenerEEESC_SC_Li0EEENS_4pairIT0_T2_EESE_T1_SF_
FNA:0,156,_ZNSt3__121__unwrap_and_dispatchB8ne180100INS_10__overloadINS_11__move_loopINS_17_ClassicAlgPolicyEEENS_14__move_trivialEEENS_16reverse_iteratorIPPN7testing8TestInfoEEESC_SC_Li0EEENS_4pairIT0_T2_EESE_T1_SF_
FNA:0,26,_ZNSt3__121__unwrap_and_dispatchB8ne180100INS_10__overloadINS_11__move_loopINS_17_ClassicAlgPolicyEEENS_14__move_trivialEEENS_16reverse_iteratorIPPN7testing9TestSuiteEEESC_SC_Li0EEENS_4pairIT0_T2_EESE_T1_SF_
FNA:0,0,_ZNSt3__121__unwrap_and_dispatchB8ne180100INS_10__overloadINS_11__move_loopINS_17_ClassicAlgPolicyEEENS_14__move_trivialEEENS_16reverse_iteratorIPPcEESA_SA_Li0EEENS_4pairIT0_T2_EESC_T1_SD_
FNA:0,182,_ZNSt3__121__unwrap_and_dispatchB8ne180100INS_10__overloadINS_11__move_loopINS_17_ClassicAlgPolicyEEENS_14__move_trivialEEENS_16reverse_iteratorIPiEES9_S9_Li0EEENS_4pairIT0_T2_EESB_T1_SC_
FNA:0,0,_ZNSt3__121__unwrap_and_dispatchB8ne180100INS_10__overloadINS_11__move_loopINS_17_ClassicAlgPolicyEEENS_14__move_trivialEEENS_16reverse_iteratorIPmEES9_S9_Li0EEENS_4pairIT0_T2_EESB_T1_SC_
FNA:0,0,_ZNSt3__121__unwrap_and_dispatchB8ne180100INS_10__overloadINS_11__move_loopINS_17_ClassicAlgPolicyEEENS_14__move_trivialEEEPNS_12basic_stringIcNS_11char_traitsIcEENS_9allocatorIcEEEESD_SD_Li0EEENS_4pairIT0_T2_EESF_T1_SG_
FNA:0,0,_ZNSt3__121__unwrap_and_dispatchB8ne180100INS_10__overloadINS_11__move_loopINS_17_ClassicAlgPolicyEEENS_14__move_trivialEEEPPN7testing17TestEventListenerESA_SA_Li0EEENS_4pairIT0_T2_EESC_T1_SD_
FNA:0,0,_ZNSt3__121__unwrap_and_dispatchB8ne180100INS_10__overloadINS_11__move_loopINS_17_ClassicAlgPolicyEEENS_14__move_trivialEEEPPN7testing9TestSuiteESA_SA_Li0EEENS_4pairIT0_T2_EESC_T1_SD_
FNA:0,0,_ZNSt3__121__unwrap_and_dispatchB8ne180100INS_10__overloadINS_11__move_loopINS_17_ClassicAlgPolicyEEENS_14__move_trivialEEEPPcS8_S8_Li0EEENS_4pairIT0_T2_EESA_T1_SB_
FNA:0,0,_ZNSt3__121__unwrap_and_dispatchB8ne180100INS_10__overloadINS_11__move_loopINS_17_ClassicAlgPolicyEEENS_14__move_trivialEEEPcS7_S7_Li0EEENS_4pairIT0_T2_EES9_T1_SA_
FNA:0,0,_ZNSt3__121__unwrap_and_dispatchB8ne180100INS_10__overloadINS_20__move_backward_loopINS_17_ClassicAlgPolicyEEENS_23__move_backward_trivialEEEPNS_12basic_stringIcNS_11char_traitsIcEENS_9allocatorIcEEEESD_SD_Li0EEENS_4pairIT0_T2_EESF_T1_SG_
FNA:0,0,_ZNSt3__121__unwrap_and_dispatchB8ne180100INS_10__overloadINS_20__move_backward_loopINS_17_ClassicAlgPolicyEEENS_23__move_backward_trivialEEEPPN7testing9TestSuiteESA_SA_Li0EEENS_4pairIT0_T2_EESC_T1_SD_
FNA:0,0,_ZNSt3__121__unwrap_and_dispatchB8ne180100INS_10__overloadINS_20__move_backward_loopINS_17_ClassicAlgPolicyEEENS_23__move_backward_trivialEEEPPcS8_S8_Li0EEENS_4pairIT0_T2_EESA_T1_SB_
FNA:0,2,_ZNSt3__121__unwrap_and_dispatchB8ne180100INS_10__overloadINS_20__move_backward_loopINS_17_ClassicAlgPolicyEEENS_23__move_backward_trivialEEEPcS7_S7_Li0EEENS_4pairIT0_T2_EES9_T1_SA_
FNL:1,131,133
FNA:1,1300,_ZNSt3__123__dispatch_copy_or_moveB8ne180100INS_17_ClassicAlgPolicyENS_11__copy_loopIS1_EENS_14__copy_trivialEPKcS6_PcEENS_4pairIT2_T4_EES9_T3_SA_
FNA:1,0,_ZNSt3__123__dispatch_copy_or_moveB8ne180100INS_17_ClassicAlgPolicyENS_11__copy_loopIS1_EENS_14__copy_trivialEPN7testing8internal13edit_distance8EditTypeES9_S9_EENS_4pairIT2_T4_EESB_T3_SC_
FNA:1,0,_ZNSt3__123__dispatch_copy_or_moveB8ne180100INS_17_ClassicAlgPolicyENS_11__copy_loopIS1_EENS_14__copy_trivialEPdS5_S5_EENS_4pairIT2_T4_EES7_T3_S8_
FNA:1,78,_ZNSt3__123__dispatch_copy_or_moveB8ne180100INS_17_ClassicAlgPolicyENS_11__move_loopIS1_EENS_14__move_trivialENS_11__wrap_iterIPNS_12basic_stringIcNS_11char_traitsIcEENS_9allocatorIcEEEEEESD_NS_15insert_iteratorINS_13unordered_setISB_NS_4hashISB_EENS_8equal_toISB_EENS9_ISB_EEEEEEEENS_4pairIT2_T4_EESO_T3_SP_
FNA:1,78,_ZNSt3__123__dispatch_copy_or_moveB8ne180100INS_17_ClassicAlgPolicyENS_11__move_loopIS1_EENS_14__move_trivialENS_11__wrap_iterIPNS_12basic_stringIcNS_11char_traitsIcEENS_9allocatorIcEEEEEESD_NS_15insert_iteratorINS_6vectorISB_NS9_ISB_EEEEEEEENS_4pairIT2_T4_EESK_T3_SL_
FNA:1,0,_ZNSt3__123__dispatch_copy_or_moveB8ne180100INS_17_ClassicAlgPolicyENS_11__move_loopIS1_EENS_14__move_trivialENS_16reverse_iteratorIPN7testing8internal13edit_distance8EditTypeEEESB_SB_EENS_4pairIT2_T4_EESD_T3_SE_
FNA:1,0,_ZNSt3__123__dispatch_copy_or_moveB8ne180100INS_17_ClassicAlgPolicyENS_11__move_loopIS1_EENS_14__move_trivialENS_16reverse_iteratorIPPN7testing11EnvironmentEEESA_SA_EENS_4pairIT2_T4_EESC_T3_SD_
FNA:1,26,_ZNSt3__123__dispatch_copy_or_moveB8ne180100INS_17_ClassicAlgPolicyENS_11__move_loopIS1_EENS_14__move_trivialENS_16reverse_iteratorIPPN7testing17TestEventListenerEEESA_SA_EENS_4pairIT2_T4_EESC_T3_SD_
FNA:1,156,_ZNSt3__123__dispatch_copy_or_moveB8ne180100INS_17_ClassicAlgPolicyENS_11__move_loopIS1_EENS_14__move_trivialENS_16reverse_iteratorIPPN7testing8TestInfoEEESA_SA_EENS_4pairIT2_T4_EESC_T3_SD_
FNA:1,26,_ZNSt3__123__dispatch_copy_or_moveB8ne180100INS_17_ClassicAlgPolicyENS_11__move_loopIS1_EENS_14__move_trivialENS_16reverse_iteratorIPPN7testing9TestSuiteEEESA_SA_EENS_4pairIT2_T4_EESC_T3_SD_
FNA:1,0,_ZNSt3__123__dispatch_copy_or_moveB8ne180100INS_17_ClassicAlgPolicyENS_11__move_loopIS1_EENS_14__move_trivialENS_16reverse_iteratorIPPcEES8_S8_EENS_4pairIT2_T4_EESA_T3_SB_
FNA:1,182,_ZNSt3__123__dispatch_copy_or_moveB8ne180100INS_17_ClassicAlgPolicyENS_11__move_loopIS1_EENS_14__move_trivialENS_16reverse_iteratorIPiEES7_S7_EENS_4pairIT2_T4_EES9_T3_SA_
FNA:1,0,_ZNSt3__123__dispatch_copy_or_moveB8ne180100INS_17_ClassicAlgPolicyENS_11__move_loopIS1_EENS_14__move_trivialENS_16reverse_iteratorIPmEES7_S7_EENS_4pairIT2_T4_EES9_T3_SA_
FNA:1,0,_ZNSt3__123__dispatch_copy_or_moveB8ne180100INS_17_ClassicAlgPolicyENS_11__move_loopIS1_EENS_14__move_trivialEPNS_12basic_stringIcNS_11char_traitsIcEENS_9allocatorIcEEEESB_SB_EENS_4pairIT2_T4_EESD_T3_SE_
FNA:1,0,_ZNSt3__123__dispatch_copy_or_moveB8ne180100INS_17_ClassicAlgPolicyENS_11__move_loopIS1_EENS_14__move_trivialEPPN7testing17TestEventListenerES8_S8_EENS_4pairIT2_T4_EESA_T3_SB_
FNA:1,0,_ZNSt3__123__dispatch_copy_or_moveB8ne180100INS_17_ClassicAlgPolicyENS_11__move_loopIS1_EENS_14__move_trivialEPPN7testing9TestSuiteES8_S8_EENS_4pairIT2_T4_EESA_T3_SB_
FNA:1,0,_ZNSt3__123__dispatch_copy_or_moveB8ne180100INS_17_ClassicAlgPolicyENS_11__move_loopIS1_EENS_14__move_trivialEPPcS6_S6_EENS_4pairIT2_T4_EES8_T3_S9_
FNA:1,0,_ZNSt3__123__dispatch_copy_or_moveB8ne180100INS_17_ClassicAlgPolicyENS_11__move_loopIS1_EENS_14__move_trivialEPcS5_S5_EENS_4pairIT2_T4_EES7_T3_S8_
FNA:1,0,_ZNSt3__123__dispatch_copy_or_moveB8ne180100INS_17_ClassicAlgPolicyENS_20__move_backward_loopIS1_EENS_23__move_backward_trivialEPNS_12basic_stringIcNS_11char_traitsIcEENS_9allocatorIcEEEESB_SB_EENS_4pairIT2_T4_EESD_T3_SE_
FNA:1,0,_ZNSt3__123__dispatch_copy_or_moveB8ne180100INS_17_ClassicAlgPolicyENS_20__move_backward_loopIS1_EENS_23__move_backward_trivialEPPN7testing9TestSuiteES8_S8_EENS_4pairIT2_T4_EESA_T3_SB_
FNA:1,0,_ZNSt3__123__dispatch_copy_or_moveB8ne180100INS_17_ClassicAlgPolicyENS_20__move_backward_loopIS1_EENS_23__move_backward_trivialEPPcS6_S6_EENS_4pairIT2_T4_EES8_T3_S9_
FNA:1,2,_ZNSt3__123__dispatch_copy_or_moveB8ne180100INS_17_ClassicAlgPolicyENS_20__move_backward_loopIS1_EENS_23__move_backward_trivialEPcS5_S5_EENS_4pairIT2_T4_EES7_T3_S8_
FNL:2,63,68
FNA:2,1300,_ZNSt3__119__copy_trivial_implB8ne180100IKccEENS_4pairIPT_PT0_EES4_S4_S6_
FNA:2,0,_ZNSt3__119__copy_trivial_implB8ne180100IN7testing8internal13edit_distance8EditTypeES4_EENS_4pairIPT_PT0_EES7_S7_S9_
FNA:2,0,_ZNSt3__119__copy_trivial_implB8ne180100IPN7testing17TestEventListenerES3_EENS_4pairIPT_PT0_EES6_S6_S8_
FNA:2,0,_ZNSt3__119__copy_trivial_implB8ne180100IPN7testing9TestSuiteES3_EENS_4pairIPT_PT0_EES6_S6_S8_
FNA:2,0,_ZNSt3__119__copy_trivial_implB8ne180100IPcS1_EENS_4pairIPT_PT0_EES4_S4_S6_
FNA:2,0,_ZNSt3__119__copy_trivial_implB8ne180100IccEENS_4pairIPT_PT0_EES3_S3_S5_
FNA:2,0,_ZNSt3__119__copy_trivial_implB8ne180100IddEENS_4pairIPT_PT0_EES3_S3_S5_
FNL:3,73,79
FNA:3,0,_ZNSt3__128__copy_backward_trivial_implB8ne180100IPN7testing9TestSuiteES3_EENS_4pairIPT_PT0_EES6_S6_S8_
FNA:3,0,_ZNSt3__128__copy_backward_trivial_implB8ne180100IPcS1_EENS_4pairIPT_PT0_EES4_S4_S6_
FNA:3,2,_ZNSt3__128__copy_backward_trivial_implB8ne180100IccEENS_4pairIPT_PT0_EES3_S3_S5_
FNF:4
FNH:4
DA:63,1300
DA:64,1300
DA:66,1300
DA:68,1300
DA:73,2
DA:74,2
DA:75,2
DA:77,2
DA:79,2
DA:107,1848
DA:108,1848
DA:109,1848
DA:110,3696
DA:111,1848
DA:131,1848
DA:133,1848
LF:16
LH:16
end_of_record
TN:
SF:/Library/Developer/CommandLineTools/SDKs/MacOSX15.1.sdk/usr/include/c++/v1/__algorithm/copy_n.h
FNL:0,51,55
FNA:0,1300,_ZNSt3__16copy_nB8ne180100IPKcmPcLi0EEET1_T_T0_S4_
FNF:1
FNH:1
DA:51,1300
DA:54,1300
DA:55,1300
LF:3
LH:3
end_of_record
TN:
SF:/Library/Developer/CommandLineTools/SDKs/MacOSX15.1.sdk/usr/include/c++/v1/__algorithm/fill_n.h
FNL:0,26,29
FNA:0,650,_ZNSt3__18__fill_nB8ne180100IPcmcEET_S2_T0_RKT1_
FNL:1,34,35
FNA:1,650,_ZNSt3__16fill_nB8ne180100IPcmcEET_S2_T0_RKT1_
FNF:2
FNH:2
DA:26,650
DA:27,1300
DA:28,650
DA:29,650
DA:34,650
DA:35,650
LF:6
LH:6
end_of_record
TN:
SF:/Library/Developer/CommandLineTools/SDKs/MacOSX15.1.sdk/usr/include/c++/v1/__algorithm/find.h
FNL:0,177,180
FNA:0,0,_ZNSt3__14findB8ne180100INS_11__wrap_iterIPKNS_12basic_stringIcNS_11char_traitsIcEENS_9allocatorIcEEEEEES7_EET_SB_SB_RKT0_
FNL:1,46,50
FNA:1,0,_ZNSt3__111__find_implB8ne180100IPKNS_12basic_stringIcNS_11char_traitsIcEENS_9allocatorIcEEEES8_S6_NS_10__identityEEET_SA_T0_RKT1_RT2_
FNF:2
FNH:0
DA:46,0
DA:47,0
DA:48,0
DA:49,0
DA:50,0
DA:177,0
DA:179,0
DA:180,0
LF:8
LH:0
end_of_record
TN:
SF:/Library/Developer/CommandLineTools/SDKs/MacOSX15.1.sdk/usr/include/c++/v1/__algorithm/find_if.h
FNL:0,23,27
FNA:0,0,_ZNSt3__17find_ifB8ne180100INS_11__wrap_iterIPN7testing12TestPropertyEEENS2_8internal17TestPropertyKeyIsEEET_S8_S8_T0_
FNA:0,650,_ZNSt3__17find_ifB8ne180100INS_16reverse_iteratorINS_11__wrap_iterIPPN7testing9TestSuiteEEEEENS3_8internal15TestSuiteNameIsEEET_SB_SB_T0_
FNF:1
FNH:1
DA:23,650
DA:24,650
DA:25,624
DA:26,624
DA:27,650
LF:5
LH:5
end_of_record
TN:
SF:/Library/Developer/CommandLineTools/SDKs/MacOSX15.1.sdk/usr/include/c++/v1/__algorithm/for_each.h
FNL:0,32,35
FNA:0,25,_ZNSt3__18for_eachB8ne180100INS_11__wrap_iterIPKPN7testing11EnvironmentEEEPFvS4_EEET0_T_SB_SA_
FNA:0,0,_ZNSt3__18for_eachB8ne180100INS_11__wrap_iterIPKPN7testing17TestEventListenerEEEPFvS4_EEET0_T_SB_SA_
FNA:0,25,_ZNSt3__18for_eachB8ne180100INS_11__wrap_iterIPKPN7testing8TestInfoEEEPFvS4_EEET0_T_SB_SA_
FNA:0,25,_ZNSt3__18for_eachB8ne180100INS_11__wrap_iterIPKPN7testing9TestSuiteEEEPFvS4_EEET0_T_SB_SA_
FNA:0,25,_ZNSt3__18for_eachB8ne180100INS_16reverse_iteratorINS_11__wrap_iterIPPN7testing11EnvironmentEEEEEPFvS5_EEET0_T_SC_SB_
FNF:1
FNH:1
DA:32,100
DA:33,750
DA:34,650
DA:35,100
LF:4
LH:4
end_of_record
TN:
SF:/Library/Developer/CommandLineTools/SDKs/MacOSX15.1.sdk/usr/include/c++/v1/__algorithm/iter_swap.h
FNL:0,23,27
FNA:0,0,_ZNSt3__19iter_swapB8ne180100INS_11__wrap_iterIPN7testing8internal13edit_distance8EditTypeEEES7_EEvT_T0_
FNA:0,0,_ZNSt3__19iter_swapB8ne180100INS_11__wrap_iterIPNS_12basic_stringIcNS_11char_traitsIcEENS_9allocatorIcEEEEEES9_EEvT_T0_
FNA:0,0,_ZNSt3__19iter_swapB8ne180100IPcS1_EEvT_T0_
FNF:1
FNH:0
DA:23,0
DA:26,0
DA:27,0
LF:3
LH:0
end_of_record
TN:
SF:/Library/Developer/CommandLineTools/SDKs/MacOSX15.1.sdk/usr/include/c++/v1/__algorithm/iterator_operations.h
FNL:0,102,108
FNA:0,0,_ZNSt3__18_IterOpsINS_17_ClassicAlgPolicyEE25__validate_iter_referenceB8ne180100IRNS_16reverse_iteratorIPN7testing8internal13edit_distance8EditTypeEEEEEvv
FNA:0,0,_ZNSt3__18_IterOpsINS_17_ClassicAlgPolicyEE25__validate_iter_referenceB8ne180100IRNS_16reverse_iteratorIPPN7testing11EnvironmentEEEEEvv
FNA:0,0,_ZNSt3__18_IterOpsINS_17_ClassicAlgPolicyEE25__validate_iter_referenceB8ne180100IRNS_16reverse_iteratorIPPN7testing17TestEventListenerEEEEEvv
FNA:0,806,_ZNSt3__18_IterOpsINS_17_ClassicAlgPolicyEE25__validate_iter_referenceB8ne180100IRNS_16reverse_iteratorIPPN7testing8TestInfoEEEEEvv
FNA:0,0,_ZNSt3__18_IterOpsINS_17_ClassicAlgPolicyEE25__validate_iter_referenceB8ne180100IRNS_16reverse_iteratorIPPN7testing9TestSuiteEEEEEvv
FNA:0,0,_ZNSt3__18_IterOpsINS_17_ClassicAlgPolicyEE25__validate_iter_referenceB8ne180100IRNS_16reverse_iteratorIPPcEEEEvv
FNA:0,806,_ZNSt3__18_IterOpsINS_17_ClassicAlgPolicyEE25__validate_iter_referenceB8ne180100IRNS_16reverse_iteratorIPiEEEEvv
FNA:0,0,_ZNSt3__18_IterOpsINS_17_ClassicAlgPolicyEE25__validate_iter_referenceB8ne180100IRNS_16reverse_iteratorIPmEEEEvv
FNA:0,130,_ZNSt3__18_IterOpsINS_17_ClassicAlgPolicyEE25__validate_iter_referenceB8ne180100IRPNS_12basic_stringIcNS_11char_traitsIcEENS_9allocatorIcEEEEEEvv
FNA:0,16,_ZNSt3__18_IterOpsINS_17_ClassicAlgPolicyEE25__validate_iter_referenceB8ne180100IRPcEEvv
FNL:1,116,119
FNA:1,0,_ZNSt3__18_IterOpsINS_17_ClassicAlgPolicyEE11__iter_moveB8ne180100IRNS_16reverse_iteratorIPN7testing8internal13edit_distance8EditTypeEEELi0EEEDTclsr3stdE4movedeclsr3stdE7declvalIRT_EEEEOSC_
FNA:1,0,_ZNSt3__18_IterOpsINS_17_ClassicAlgPolicyEE11__iter_moveB8ne180100IRNS_16reverse_iteratorIPPN7testing11EnvironmentEEELi0EEEDTclsr3stdE4movedeclsr3stdE7declvalIRT_EEEEOSB_
FNA:1,0,_ZNSt3__18_IterOpsINS_17_ClassicAlgPolicyEE11__iter_moveB8ne180100IRNS_16reverse_iteratorIPPN7testing17TestEventListenerEEELi0EEEDTclsr3stdE4movedeclsr3stdE7declvalIRT_EEEEOSB_
FNA:1,806,_ZNSt3__18_IterOpsINS_17_ClassicAlgPolicyEE11__iter_moveB8ne180100IRNS_16reverse_iteratorIPPN7testing8TestInfoEEELi0EEEDTclsr3stdE4movedeclsr3stdE7declvalIRT_EEEEOSB_
FNA:1,0,_ZNSt3__18_IterOpsINS_17_ClassicAlgPolicyEE11__iter_moveB8ne180100IRNS_16reverse_iteratorIPPN7testing9TestSuiteEEELi0EEEDTclsr3stdE4movedeclsr3stdE7declvalIRT_EEEEOSB_
FNA:1,0,_ZNSt3__18_IterOpsINS_17_ClassicAlgPolicyEE11__iter_moveB8ne180100IRNS_16reverse_iteratorIPPcEELi0EEEDTclsr3stdE4movedeclsr3stdE7declvalIRT_EEEEOS9_
FNA:1,806,_ZNSt3__18_IterOpsINS_17_ClassicAlgPolicyEE11__iter_moveB8ne180100IRNS_16reverse_iteratorIPiEELi0EEEDTclsr3stdE4movedeclsr3stdE7declvalIRT_EEEEOS8_
FNA:1,0,_ZNSt3__18_IterOpsINS_17_ClassicAlgPolicyEE11__iter_moveB8ne180100IRNS_16reverse_iteratorIPmEELi0EEEDTclsr3stdE4movedeclsr3stdE7declvalIRT_EEEEOS8_
FNA:1,130,_ZNSt3__18_IterOpsINS_17_ClassicAlgPolicyEE11__iter_moveB8ne180100IRPNS_12basic_stringIcNS_11char_traitsIcEENS_9allocatorIcEEEELi0EEEDTclsr3stdE4movedeclsr3stdE7declvalIRT_EEEEOSC_
FNA:1,16,_ZNSt3__18_IterOpsINS_17_ClassicAlgPolicyEE11__iter_moveB8ne180100IRPcLi0EEEDTclsr3stdE4movedeclsr3stdE7declvalIRT_EEEEOS6_
FNL:2,136,138
FNA:2,0,_ZNSt3__18_IterOpsINS_17_ClassicAlgPolicyEE9iter_swapB8ne180100IRNS_11__wrap_iterIPN7testing8internal13edit_distance8EditTypeEEESB_EEvOT_OT0_
FNA:2,0,_ZNSt3__18_IterOpsINS_17_ClassicAlgPolicyEE9iter_swapB8ne180100IRNS_11__wrap_iterIPNS_12basic_stringIcNS_11char_traitsIcEENS_9allocatorIcEEEEEESD_EEvOT_OT0_
FNA:2,0,_ZNSt3__18_IterOpsINS_17_ClassicAlgPolicyEE9iter_swapB8ne180100IRPcS5_EEvOT_OT0_
FNL:3,142,143
FNA:3,78,_ZNSt3__18_IterOpsINS_17_ClassicAlgPolicyEE4nextB8ne180100INS_11__wrap_iterIPNS_12basic_stringIcNS_11char_traitsIcEENS_9allocatorIcEEEEEEEET_SD_SD_
FNA:3,0,_ZNSt3__18_IterOpsINS_17_ClassicAlgPolicyEE4nextB8ne180100IPNS_12basic_stringIcNS_11char_traitsIcEENS_9allocatorIcEEEEEET_SB_SB_
FNA:3,4,_ZNSt3__18_IterOpsINS_17_ClassicAlgPolicyEE4nextB8ne180100IPcEET_S5_S5_
FNL:4,148,149
FNA:4,8,_ZNSt3__18_IterOpsINS_17_ClassicAlgPolicyEE4nextB8ne180100IRPcEEu14__remove_cvrefIT_EOS6_NS_15iterator_traitsIS7_E15difference_typeE
FNL:5,155,156
FNA:5,2,_ZNSt3__18_IterOpsINS_17_ClassicAlgPolicyEE4prevB8ne180100IRPcEEu14__remove_cvrefIT_EOS6_NS_15iterator_traitsIS7_E15difference_typeE
FNL:6,91,92
FNA:6,14,_ZNSt3__18_IterOpsINS_17_ClassicAlgPolicyEE8distanceB8ne180100IPcEENS_15iterator_traitsIT_E15difference_typeES6_S6_
FNF:7
FNH:6
DA:91,14
DA:92,14
DA:102,1758
DA:108,1758
DA:116,1758
DA:117,1758
DA:119,1758
DA:136,0
DA:137,0
DA:138,0
DA:142,82
DA:143,82
DA:148,8
DA:149,8
DA:155,2
DA:156,2
LF:16
LH:13
end_of_record
TN:
SF:/Library/Developer/CommandLineTools/SDKs/MacOSX15.1.sdk/usr/include/c++/v1/__algorithm/max.h
FNL:0,29,30
FNA:0,652,_ZNSt3__13maxB8ne180100ImNS_6__lessIvvEEEERKT_S5_S5_T0_
FNL:1,35,36
FNA:1,652,_ZNSt3__13maxB8ne180100ImEERKT_S3_S3_
FNF:2
FNH:2
DA:29,652
DA:30,652
DA:35,652
DA:36,652
LF:4
LH:4
end_of_record
TN:
SF:/Library/Developer/CommandLineTools/SDKs/MacOSX15.1.sdk/usr/include/c++/v1/__algorithm/min.h
FNL:0,29,30
FNA:0,0,_ZNSt3__13minB8ne180100IdNS_6__lessIvvEEEERKT_S5_S5_T0_
FNA:0,703,_ZNSt3__13minB8ne180100ImNS_6__lessIvvEEEERKT_S5_S5_T0_
FNL:1,35,36
FNA:1,0,_ZNSt3__13minB8ne180100IdEERKT_S3_S3_
FNA:1,703,_ZNSt3__13minB8ne180100ImEERKT_S3_S3_
FNF:2
FNH:2
DA:29,703
DA:30,703
DA:35,703
DA:36,703
LF:4
LH:4
end_of_record
TN:
SF:/Library/Developer/CommandLineTools/SDKs/MacOSX15.1.sdk/usr/include/c++/v1/__algorithm/move.h
FNL:0,104,105
FNA:0,0,_ZNKSt3__114__move_trivialclB8ne180100IPN7testing17TestEventListenerES4_Li0EEENS_4pairIPT_PT0_EES7_S7_S9_
FNA:0,0,_ZNKSt3__114__move_trivialclB8ne180100IPN7testing9TestSuiteES4_Li0EEENS_4pairIPT_PT0_EES7_S7_S9_
FNA:0,0,_ZNKSt3__114__move_trivialclB8ne180100IPcS2_Li0EEENS_4pairIPT_PT0_EES5_S5_S7_
FNA:0,0,_ZNKSt3__114__move_trivialclB8ne180100IccLi0EEENS_4pairIPT_PT0_EES4_S4_S6_
FNL:1,111,113
FNA:1,78,_ZNSt3__16__moveB8ne180100INS_17_ClassicAlgPolicyENS_11__wrap_iterIPNS_12basic_stringIcNS_11char_traitsIcEENS_9allocatorIcEEEEEESA_NS_15insert_iteratorINS_13unordered_setIS8_NS_4hashIS8_EENS_8equal_toIS8_EENS6_IS8_EEEEEEEENS_4pairIT0_T2_EESL_T1_SM_
FNA:1,78,_ZNSt3__16__moveB8ne180100INS_17_ClassicAlgPolicyENS_11__wrap_iterIPNS_12basic_stringIcNS_11char_traitsIcEENS_9allocatorIcEEEEEESA_NS_15insert_iteratorINS_6vectorIS8_NS6_IS8_EEEEEEEENS_4pairIT0_T2_EESH_T1_SI_
FNA:1,0,_ZNSt3__16__moveB8ne180100INS_17_ClassicAlgPolicyENS_16reverse_iteratorIPN7testing8internal13edit_distance8EditTypeEEES8_S8_EENS_4pairIT0_T2_EESA_T1_SB_
FNA:1,0,_ZNSt3__16__moveB8ne180100INS_17_ClassicAlgPolicyENS_16reverse_iteratorIPPN7testing11EnvironmentEEES7_S7_EENS_4pairIT0_T2_EES9_T1_SA_
FNA:1,26,_ZNSt3__16__moveB8ne180100INS_17_ClassicAlgPolicyENS_16reverse_iteratorIPPN7testing17TestEventListenerEEES7_S7_EENS_4pairIT0_T2_EES9_T1_SA_
FNA:1,156,_ZNSt3__16__moveB8ne180100INS_17_ClassicAlgPolicyENS_16reverse_iteratorIPPN7testing8TestInfoEEES7_S7_EENS_4pairIT0_T2_EES9_T1_SA_
FNA:1,26,_ZNSt3__16__moveB8ne180100INS_17_ClassicAlgPolicyENS_16reverse_iteratorIPPN7testing9TestSuiteEEES7_S7_EENS_4pairIT0_T2_EES9_T1_SA_
FNA:1,0,_ZNSt3__16__moveB8ne180100INS_17_ClassicAlgPolicyENS_16reverse_iteratorIPPcEES5_S5_EENS_4pairIT0_T2_EES7_T1_S8_
FNA:1,182,_ZNSt3__16__moveB8ne180100INS_17_ClassicAlgPolicyENS_16reverse_iteratorIPiEES4_S4_EENS_4pairIT0_T2_EES6_T1_S7_
FNA:1,0,_ZNSt3__16__moveB8ne180100INS_17_ClassicAlgPolicyENS_16reverse_iteratorIPmEES4_S4_EENS_4pairIT0_T2_EES6_T1_S7_
FNA:1,0,_ZNSt3__16__moveB8ne180100INS_17_ClassicAlgPolicyEPNS_12basic_stringIcNS_11char_traitsIcEENS_9allocatorIcEEEES8_S8_EENS_4pairIT0_T2_EESA_T1_SB_
FNA:1,0,_ZNSt3__16__moveB8ne180100INS_17_ClassicAlgPolicyEPPN7testing17TestEventListenerES5_S5_EENS_4pairIT0_T2_EES7_T1_S8_
FNA:1,0,_ZNSt3__16__moveB8ne180100INS_17_ClassicAlgPolicyEPPN7testing9TestSuiteES5_S5_EENS_4pairIT0_T2_EES7_T1_S8_
FNA:1,0,_ZNSt3__16__moveB8ne180100INS_17_ClassicAlgPolicyEPPcS3_S3_EENS_4pairIT0_T2_EES5_T1_S6_
FNA:1,0,_ZNSt3__16__moveB8ne180100INS_17_ClassicAlgPolicyEPcS2_S2_EENS_4pairIT0_T2_EES4_T1_S5_
FNL:2,118,122
FNA:2,78,_ZNSt3__14moveB8ne180100INS_11__wrap_iterIPNS_12basic_stringIcNS_11char_traitsIcEENS_9allocatorIcEEEEEENS_15insert_iteratorINS_13unordered_setIS7_NS_4hashIS7_EENS_8equal_toIS7_EENS5_IS7_EEEEEEEET0_T_SK_SJ_
FNA:2,78,_ZNSt3__14moveB8ne180100INS_11__wrap_iterIPNS_12basic_stringIcNS_11char_traitsIcEENS_9allocatorIcEEEEEENS_15insert_iteratorINS_6vectorIS7_NS5_IS7_EEEEEEEET0_T_SG_SF_
FNA:2,0,_ZNSt3__14moveB8ne180100INS_16reverse_iteratorIPN7testing8internal13edit_distance8EditTypeEEES7_EET0_T_S9_S8_
FNA:2,0,_ZNSt3__14moveB8ne180100INS_16reverse_iteratorIPPN7testing11EnvironmentEEES6_EET0_T_S8_S7_
FNA:2,26,_ZNSt3__14moveB8ne180100INS_16reverse_iteratorIPPN7testing17TestEventListenerEEES6_EET0_T_S8_S7_
FNA:2,156,_ZNSt3__14moveB8ne180100INS_16reverse_iteratorIPPN7testing8TestInfoEEES6_EET0_T_S8_S7_
FNA:2,26,_ZNSt3__14moveB8ne180100INS_16reverse_iteratorIPPN7testing9TestSuiteEEES6_EET0_T_S8_S7_
FNA:2,0,_ZNSt3__14moveB8ne180100INS_16reverse_iteratorIPPcEES4_EET0_T_S6_S5_
FNA:2,182,_ZNSt3__14moveB8ne180100INS_16reverse_iteratorIPiEES3_EET0_T_S5_S4_
FNA:2,0,_ZNSt3__14moveB8ne180100INS_16reverse_iteratorIPmEES3_EET0_T_S5_S4_
FNA:2,0,_ZNSt3__14moveB8ne180100IPNS_12basic_stringIcNS_11char_traitsIcEENS_9allocatorIcEEEES7_EET0_T_S9_S8_
FNA:2,0,_ZNSt3__14moveB8ne180100IPPN7testing17TestEventListenerES4_EET0_T_S6_S5_
FNA:2,0,_ZNSt3__14moveB8ne180100IPPN7testing9TestSuiteES4_EET0_T_S6_S5_
FNA:2,0,_ZNSt3__14moveB8ne180100IPPcS2_EET0_T_S4_S3_
FNL:3,40,46
FNA:3,0,_ZNKSt3__111__move_loopINS_17_ClassicAlgPolicyEEclB8ne180100INS_16reverse_iteratorIPN7testing8internal13edit_distance8EditTypeEEESA_SA_EENS_4pairIT_T1_EESC_T0_SD_
FNA:3,0,_ZNKSt3__111__move_loopINS_17_ClassicAlgPolicyEEclB8ne180100INS_16reverse_iteratorIPPN7testing11EnvironmentEEES9_S9_EENS_4pairIT_T1_EESB_T0_SC_
FNA:3,26,_ZNKSt3__111__move_loopINS_17_ClassicAlgPolicyEEclB8ne180100INS_16reverse_iteratorIPPN7testing17TestEventListenerEEES9_S9_EENS_4pairIT_T1_EESB_T0_SC_
FNA:3,156,_ZNKSt3__111__move_loopINS_17_ClassicAlgPolicyEEclB8ne180100INS_16reverse_iteratorIPPN7testing8TestInfoEEES9_S9_EENS_4pairIT_T1_EESB_T0_SC_
FNA:3,26,_ZNKSt3__111__move_loopINS_17_ClassicAlgPolicyEEclB8ne180100INS_16reverse_iteratorIPPN7testing9TestSuiteEEES9_S9_EENS_4pairIT_T1_EESB_T0_SC_
FNA:3,0,_ZNKSt3__111__move_loopINS_17_ClassicAlgPolicyEEclB8ne180100INS_16reverse_iteratorIPPcEES7_S7_EENS_4pairIT_T1_EES9_T0_SA_
FNA:3,182,_ZNKSt3__111__move_loopINS_17_ClassicAlgPolicyEEclB8ne180100INS_16reverse_iteratorIPiEES6_S6_EENS_4pairIT_T1_EES8_T0_S9_
FNA:3,0,_ZNKSt3__111__move_loopINS_17_ClassicAlgPolicyEEclB8ne180100INS_16reverse_iteratorIPmEES6_S6_EENS_4pairIT_T1_EES8_T0_S9_
FNA:3,78,_ZNKSt3__111__move_loopINS_17_ClassicAlgPolicyEEclB8ne180100IPNS_12basic_stringIcNS_11char_traitsIcEENS_9allocatorIcEEEESA_NS_15insert_iteratorINS_13unordered_setIS9_NS_4hashIS9_EENS_8equal_toIS9_EENS7_IS9_EEEEEEEENS_4pairIT_T1_EESL_T0_SM_
FNA:3,78,_ZNKSt3__111__move_loopINS_17_ClassicAlgPolicyEEclB8ne180100IPNS_12basic_stringIcNS_11char_traitsIcEENS_9allocatorIcEEEESA_NS_15insert_iteratorINS_6vectorIS9_NS7_IS9_EEEEEEEENS_4pairIT_T1_EESH_T0_SI_
FNA:3,0,_ZNKSt3__111__move_loopINS_17_ClassicAlgPolicyEEclB8ne180100IPNS_12basic_stringIcNS_11char_traitsIcEENS_9allocatorIcEEEESA_SA_EENS_4pairIT_T1_EESC_T0_SD_
FNF:4
FNH:3
DA:40,546
DA:41,2288
DA:42,1742
DA:43,1742
DA:44,1742
DA:46,546
DA:104,0
DA:105,0
DA:111,546
DA:112,546
DA:113,546
DA:118,546
DA:122,546
LF:13
LH:11
end_of_record
TN:
SF:/Library/Developer/CommandLineTools/SDKs/MacOSX15.1.sdk/usr/include/c++/v1/__algorithm/move_backward.h
FNL:0,113,114
FNA:0,0,_ZNKSt3__123__move_backward_trivialclB8ne180100IPN7testing9TestSuiteES4_Li0EEENS_4pairIPT_PT0_EES7_S7_S9_
FNA:0,0,_ZNKSt3__123__move_backward_trivialclB8ne180100IPcS2_Li0EEENS_4pairIPT_PT0_EES5_S5_S7_
FNA:0,2,_ZNKSt3__123__move_backward_trivialclB8ne180100IccLi0EEENS_4pairIPT_PT0_EES4_S4_S6_
FNL:1,120,126
FNA:1,0,_ZNSt3__115__move_backwardB8ne180100INS_17_ClassicAlgPolicyEPNS_12basic_stringIcNS_11char_traitsIcEENS_9allocatorIcEEEES8_S8_EENS_4pairIT0_T2_EESA_T1_SB_
FNA:1,0,_ZNSt3__115__move_backwardB8ne180100INS_17_ClassicAlgPolicyEPPN7testing9TestSuiteES5_S5_EENS_4pairIT0_T2_EES7_T1_S8_
FNA:1,0,_ZNSt3__115__move_backwardB8ne180100INS_17_ClassicAlgPolicyEPPcS3_S3_EENS_4pairIT0_T2_EES5_T1_S6_
FNA:1,2,_ZNSt3__115__move_backwardB8ne180100INS_17_ClassicAlgPolicyEPcS2_S2_EENS_4pairIT0_T2_EES4_T1_S5_
FNL:2,131,132
FNA:2,0,_ZNSt3__113move_backwardB8ne180100IPNS_12basic_stringIcNS_11char_traitsIcEENS_9allocatorIcEEEES7_EET0_T_S9_S8_
FNA:2,0,_ZNSt3__113move_backwardB8ne180100IPPN7testing9TestSuiteES4_EET0_T_S6_S5_
FNA:2,0,_ZNSt3__113move_backwardB8ne180100IPPcS2_EET0_T_S4_S3_
FNL:3,39,47
FNA:3,0,_ZNKSt3__120__move_backward_loopINS_17_ClassicAlgPolicyEEclB8ne180100IPNS_12basic_stringIcNS_11char_traitsIcEENS_9allocatorIcEEEESA_SA_EENS_4pairIT_T1_EESC_T0_SD_
FNF:4
FNH:2
DA:39,0
DA:40,0
DA:41,0
DA:43,0
DA:44,0
DA:47,0
DA:113,2
DA:114,2
DA:120,2
DA:125,2
DA:126,2
DA:131,0
DA:132,0
LF:13
LH:5
end_of_record
TN:
SF:/Library/Developer/CommandLineTools/SDKs/MacOSX15.1.sdk/usr/include/c++/v1/__algorithm/partition.h
FNL:0,50,69
FNA:0,78,_ZNSt3__116__partition_implB8ne180100IRPFbRKNS_12basic_stringIcNS_11char_traitsIcEENS_9allocatorIcEEEEENS_17_ClassicAlgPolicyENS_11__wrap_iterIPS6_EESF_EENS_4pairIT1_SH_EESH_T2_T_NS_26bidirectional_iterator_tagE
FNL:1,73,75
FNA:1,78,_ZNSt3__111__partitionB8ne180100INS_17_ClassicAlgPolicyENS_11__wrap_iterIPNS_12basic_stringIcNS_11char_traitsIcEENS_9allocatorIcEEEEEESA_RPFbRKS8_ENS_26random_access_iterator_tagEEENS_4pairIT0_SI_EESI_T1_OT2_T3_
FNL:2,80,83
FNA:2,78,_ZNSt3__19partitionB8ne180100INS_11__wrap_iterIPNS_12basic_stringIcNS_11char_traitsIcEENS_9allocatorIcEEEEEEPFbRKS7_EEET_SE_SE_T0_
FNF:3
FNH:3
DA:50,78
DA:51,78
DA:52,78
DA:54,78
DA:55,183
DA:56,183
DA:57,53
DA:58,130
DA:59,25
DA:60,105
DA:62,25
DA:63,25
DA:64,25
DA:65,0
DA:66,0
DA:67,0
DA:69,78
DA:73,78
DA:74,78
DA:75,78
DA:80,78
DA:82,78
DA:83,78
LF:23
LH:20
end_of_record
TN:
SF:/Library/Developer/CommandLineTools/SDKs/MacOSX15.1.sdk/usr/include/c++/v1/__algorithm/reverse.h
FNL:0,40,44
FNA:0,0,_ZNSt3__114__reverse_implB8ne180100INS_17_ClassicAlgPolicyENS_11__wrap_iterIPN7testing8internal13edit_distance8EditTypeEEEEEvT0_S9_NS_26random_access_iterator_tagE
FNL:1,47,50
FNA:1,0,_ZNSt3__19__reverseB8ne180100INS_17_ClassicAlgPolicyENS_11__wrap_iterIPN7testing8internal13edit_distance8EditTypeEEES8_EEvT0_T1_
FNL:2,54,56
FNA:2,0,_ZNSt3__17reverseB8ne180100INS_11__wrap_iterIPN7testing8internal13edit_distance8EditTypeEEEEEvT_S8_
FNF:3
FNH:0
DA:40,0
DA:41,0
DA:42,0
DA:43,0
DA:44,0
DA:47,0
DA:49,0
DA:50,0
DA:54,0
DA:55,0
DA:56,0
LF:11
LH:0
end_of_record
TN:
SF:/Library/Developer/CommandLineTools/SDKs/MacOSX15.1.sdk/usr/include/c++/v1/__algorithm/rotate.h
FNL:0,155,169
FNA:0,4,_ZNSt3__113__rotate_implB8ne180100INS_17_ClassicAlgPolicyEPcEET0_S3_S3_S3_NS_26random_access_iterator_tagE
FNL:1,173,186
FNA:1,4,_ZNSt3__18__rotateB8ne180100INS_17_ClassicAlgPolicyEPcS2_EENS_4pairIT0_S4_EES4_S4_T1_
FNL:2,190,191
FNA:2,4,_ZNSt3__16rotateB8ne180100IPcEET_S2_S2_S2_
FNL:3,33,40
FNA:3,0,_ZNSt3__113__rotate_leftB8ne180100INS_17_ClassicAlgPolicyEPcEET0_S3_S3_
FNL:4,45,53
FNA:4,2,_ZNSt3__114__rotate_rightB8ne180100INS_17_ClassicAlgPolicyEPcEET0_S3_S3_
FNL:5,86,92
FNA:5,2,_ZNSt3__110__algo_gcdB8ne180100IlEET_S1_S1_
FNL:6,97,125
FNA:6,2,_ZNSt3__112__rotate_gcdB8ne180100INS_17_ClassicAlgPolicyEPcEET0_S3_S3_S3_
FNF:7
FNH:6
DA:33,0
DA:37,0
DA:38,0
DA:39,0
DA:40,0
DA:45,2
DA:49,2
DA:50,2
DA:51,2
DA:52,2
DA:53,2
DA:86,2
DA:87,2
DA:88,5
DA:89,5
DA:90,5
DA:91,5
DA:92,2
DA:97,2
DA:102,2
DA:103,2
DA:104,2
DA:105,0
DA:106,0
DA:108,2
DA:109,4
DA:110,2
DA:111,2
DA:112,2
DA:113,2
DA:114,12
DA:115,12
DA:116,12
DA:117,12
DA:118,5
DA:120,7
DA:121,12
DA:122,2
DA:124,2
DA:125,2
DA:155,4
DA:162,4
DA:163,0
DA:164,4
DA:165,2
DA:166,2
DA:169,4
DA:173,4
DA:175,4
DA:177,4
DA:178,0
DA:179,4
DA:180,0
DA:183,4
DA:185,4
DA:186,4
DA:190,4
DA:191,4
LF:58
LH:48
end_of_record
TN:
SF:/Library/Developer/CommandLineTools/SDKs/MacOSX15.1.sdk/usr/include/c++/v1/__algorithm/swap_ranges.h
FNL:0,29,36
FNA:0,0,_ZNSt3__113__swap_rangesB8ne180100INS_17_ClassicAlgPolicyEPcS2_S2_S2_EENS_4pairIT0_T2_EES4_T1_S5_T3_
FNF:1
FNH:0
DA:29,0
DA:30,0
DA:31,0
DA:32,0
DA:33,0
DA:36,0
LF:6
LH:0
end_of_record
TN:
SF:/Library/Developer/CommandLineTools/SDKs/MacOSX15.1.sdk/usr/include/c++/v1/__algorithm/unwrap_iter.h
FNL:0,39,39
FNA:0,78,_ZNSt3__118__unwrap_iter_implINS_15insert_iteratorINS_13unordered_setINS_12basic_stringIcNS_11char_traitsIcEENS_9allocatorIcEEEENS_4hashIS8_EENS_8equal_toIS8_EENS6_IS8_EEEEEELb0EE8__rewrapB8ne180100ESF_SF_
FNA:0,78,_ZNSt3__118__unwrap_iter_implINS_15insert_iteratorINS_6vectorINS_12basic_stringIcNS_11char_traitsIcEENS_9allocatorIcEEEENS6_IS8_EEEEEELb0EE8__rewrapB8ne180100ESB_SB_
FNA:0,0,_ZNSt3__118__unwrap_iter_implINS_16reverse_iteratorIPN7testing8internal13edit_distance8EditTypeEEELb0EE8__rewrapB8ne180100ES7_S7_
FNA:0,0,_ZNSt3__118__unwrap_iter_implINS_16reverse_iteratorIPPN7testing11EnvironmentEEELb0EE8__rewrapB8ne180100ES6_S6_
FNA:0,52,_ZNSt3__118__unwrap_iter_implINS_16reverse_iteratorIPPN7testing17TestEventListenerEEELb0EE8__rewrapB8ne180100ES6_S6_
FNA:0,312,_ZNSt3__118__unwrap_iter_implINS_16reverse_iteratorIPPN7testing8TestInfoEEELb0EE8__rewrapB8ne180100ES6_S6_
FNA:0,52,_ZNSt3__118__unwrap_iter_implINS_16reverse_iteratorIPPN7testing9TestSuiteEEELb0EE8__rewrapB8ne180100ES6_S6_
FNA:0,0,_ZNSt3__118__unwrap_iter_implINS_16reverse_iteratorIPPcEELb0EE8__rewrapB8ne180100ES4_S4_
FNA:0,364,_ZNSt3__118__unwrap_iter_implINS_16reverse_iteratorIPiEELb0EE8__rewrapB8ne180100ES3_S3_
FNA:0,0,_ZNSt3__118__unwrap_iter_implINS_16reverse_iteratorIPmEELb0EE8__rewrapB8ne180100ES3_S3_
FNL:1,40,40
FNA:1,78,_ZNSt3__118__unwrap_iter_implINS_15insert_iteratorINS_13unordered_setINS_12basic_stringIcNS_11char_traitsIcEENS_9allocatorIcEEEENS_4hashIS8_EENS_8equal_toIS8_EENS6_IS8_EEEEEELb0EE8__unwrapB8ne180100ESF_
FNA:1,78,_ZNSt3__118__unwrap_iter_implINS_15insert_iteratorINS_6vectorINS_12basic_stringIcNS_11char_traitsIcEENS_9allocatorIcEEEENS6_IS8_EEEEEELb0EE8__unwrapB8ne180100ESB_
FNA:1,0,_ZNSt3__118__unwrap_iter_implINS_16reverse_iteratorIPN7testing8internal13edit_distance8EditTypeEEELb0EE8__unwrapB8ne180100ES7_
FNA:1,0,_ZNSt3__118__unwrap_iter_implINS_16reverse_iteratorIPPN7testing11EnvironmentEEELb0EE8__unwrapB8ne180100ES6_
FNA:1,78,_ZNSt3__118__unwrap_iter_implINS_16reverse_iteratorIPPN7testing17TestEventListenerEEELb0EE8__unwrapB8ne180100ES6_
FNA:1,468,_ZNSt3__118__unwrap_iter_implINS_16reverse_iteratorIPPN7testing8TestInfoEEELb0EE8__unwrapB8ne180100ES6_
FNA:1,78,_ZNSt3__118__unwrap_iter_implINS_16reverse_iteratorIPPN7testing9TestSuiteEEELb0EE8__unwrapB8ne180100ES6_
FNA:1,0,_ZNSt3__118__unwrap_iter_implINS_16reverse_iteratorIPPcEELb0EE8__unwrapB8ne180100ES4_
FNA:1,546,_ZNSt3__118__unwrap_iter_implINS_16reverse_iteratorIPiEELb0EE8__unwrapB8ne180100ES3_
FNA:1,0,_ZNSt3__118__unwrap_iter_implINS_16reverse_iteratorIPmEELb0EE8__unwrapB8ne180100ES3_
FNL:2,51,52
FNA:2,0,_ZNSt3__118__unwrap_iter_implINS_11__wrap_iterIPKNS_12basic_stringIcNS_11char_traitsIcEENS_9allocatorIcEEEEEELb1EE8__rewrapB8ne180100ESA_S9_
FNA:2,156,_ZNSt3__118__unwrap_iter_implINS_11__wrap_iterIPNS_12basic_stringIcNS_11char_traitsIcEENS_9allocatorIcEEEEEELb1EE8__rewrapB8ne180100ES9_S8_
FNA:2,1300,_ZNSt3__118__unwrap_iter_implIPKcLb1EE8__rewrapB8ne180100ES2_S2_
FNA:2,0,_ZNSt3__118__unwrap_iter_implIPN7testing8internal13edit_distance8EditTypeELb1EE8__rewrapB8ne180100ES5_S5_
FNA:2,26,_ZNSt3__118__unwrap_iter_implIPNS_12basic_stringIcNS_11char_traitsIcEENS_9allocatorIcEEEELb1EE8__rewrapB8ne180100ES7_S7_
FNA:2,0,_ZNSt3__118__unwrap_iter_implIPPN7testing17TestEventListenerELb1EE8__rewrapB8ne180100ES4_S4_
FNA:2,0,_ZNSt3__118__unwrap_iter_implIPPN7testing9TestSuiteELb1EE8__rewrapB8ne180100ES4_S4_
FNA:2,0,_ZNSt3__118__unwrap_iter_implIPPcLb1EE8__rewrapB8ne180100ES2_S2_
FNA:2,1304,_ZNSt3__118__unwrap_iter_implIPcLb1EE8__rewrapB8ne180100ES1_S1_
FNA:2,0,_ZNSt3__118__unwrap_iter_implIPdLb1EE8__rewrapB8ne180100ES1_S1_
FNL:3,55,56
FNA:3,0,_ZNSt3__118__unwrap_iter_implINS_11__wrap_iterIPKNS_12basic_stringIcNS_11char_traitsIcEENS_9allocatorIcEEEEEELb1EE8__unwrapB8ne180100ESA_
FNA:3,312,_ZNSt3__118__unwrap_iter_implINS_11__wrap_iterIPNS_12basic_stringIcNS_11char_traitsIcEENS_9allocatorIcEEEEEELb1EE8__unwrapB8ne180100ES9_
FNA:3,0,_ZNSt3__118__unwrap_iter_implIPKPKcLb1EE8__unwrapB8ne180100ES4_
FNA:3,2600,_ZNSt3__118__unwrap_iter_implIPKcLb1EE8__unwrapB8ne180100ES2_
FNA:3,0,_ZNSt3__118__unwrap_iter_implIPN7testing8internal13edit_distance8EditTypeELb1EE8__unwrapB8ne180100ES5_
FNA:3,78,_ZNSt3__118__unwrap_iter_implIPNS_12basic_stringIcNS_11char_traitsIcEENS_9allocatorIcEEEELb1EE8__unwrapB8ne180100ES7_
FNA:3,0,_ZNSt3__118__unwrap_iter_implIPPN7testing17TestEventListenerELb1EE8__unwrapB8ne180100ES4_
FNA:3,0,_ZNSt3__118__unwrap_iter_implIPPN7testing9TestSuiteELb1EE8__unwrapB8ne180100ES4_
FNA:3,0,_ZNSt3__118__unwrap_iter_implIPPcLb1EE8__unwrapB8ne180100ES2_
FNA:3,1306,_ZNSt3__118__unwrap_iter_implIPcLb1EE8__unwrapB8ne180100ES1_
FNA:3,0,_ZNSt3__118__unwrap_iter_implIPdLb1EE8__unwrapB8ne180100ES1_
FNL:4,64,65
FNA:4,0,_ZNSt3__113__unwrap_iterB8ne180100INS_11__wrap_iterIPKNS_12basic_stringIcNS_11char_traitsIcEENS_9allocatorIcEEEEEENS_18__unwrap_iter_implISA_Lb1EEELi0EEEDTclsrT0_8__unwrapclsr3stdE7declvalIT_EEEESE_
FNA:4,312,_ZNSt3__113__unwrap_iterB8ne180100INS_11__wrap_iterIPNS_12basic_stringIcNS_11char_traitsIcEENS_9allocatorIcEEEEEENS_18__unwrap_iter_implIS9_Lb1EEELi0EEEDTclsrT0_8__unwrapclsr3stdE7declvalIT_EEEESD_
FNA:4,78,_ZNSt3__113__unwrap_iterB8ne180100INS_15insert_iteratorINS_13unordered_setINS_12basic_stringIcNS_11char_traitsIcEENS_9allocatorIcEEEENS_4hashIS8_EENS_8equal_toIS8_EENS6_IS8_EEEEEENS_18__unwrap_iter_implISF_Lb0EEELi0EEEDTclsrT0_8__unwrapclsr3stdE7declvalIT_EEEESJ_
FNA:4,78,_ZNSt3__113__unwrap_iterB8ne180100INS_15insert_iteratorINS_6vectorINS_12basic_stringIcNS_11char_traitsIcEENS_9allocatorIcEEEENS6_IS8_EEEEEENS_18__unwrap_iter_implISB_Lb0EEELi0EEEDTclsrT0_8__unwrapclsr3stdE7declvalIT_EEEESF_
FNA:4,0,_ZNSt3__113__unwrap_iterB8ne180100INS_16reverse_iteratorIPN7testing8internal13edit_distance8EditTypeEEENS_18__unwrap_iter_implIS7_Lb0EEELi0EEEDTclsrT0_8__unwrapclsr3stdE7declvalIT_EEEESB_
FNA:4,0,_ZNSt3__113__unwrap_iterB8ne180100INS_16reverse_iteratorIPPN7testing11EnvironmentEEENS_18__unwrap_iter_implIS6_Lb0EEELi0EEEDTclsrT0_8__unwrapclsr3stdE7declvalIT_EEEESA_
FNA:4,78,_ZNSt3__113__unwrap_iterB8ne180100INS_16reverse_iteratorIPPN7testing17TestEventListenerEEENS_18__unwrap_iter_implIS6_Lb0EEELi0EEEDTclsrT0_8__unwrapclsr3stdE7declvalIT_EEEESA_
FNA:4,468,_ZNSt3__113__unwrap_iterB8ne180100INS_16reverse_iteratorIPPN7testing8TestInfoEEENS_18__unwrap_iter_implIS6_Lb0EEELi0EEEDTclsrT0_8__unwrapclsr3stdE7declvalIT_EEEESA_
FNA:4,78,_ZNSt3__113__unwrap_iterB8ne180100INS_16reverse_iteratorIPPN7testing9TestSuiteEEENS_18__unwrap_iter_implIS6_Lb0EEELi0EEEDTclsrT0_8__unwrapclsr3stdE7declvalIT_EEEESA_
FNA:4,0,_ZNSt3__113__unwrap_iterB8ne180100INS_16reverse_iteratorIPPcEENS_18__unwrap_iter_implIS4_Lb0EEELi0EEEDTclsrT0_8__unwrapclsr3stdE7declvalIT_EEEES8_
FNA:4,546,_ZNSt3__113__unwrap_iterB8ne180100INS_16reverse_iteratorIPiEENS_18__unwrap_iter_implIS3_Lb0EEELi0EEEDTclsrT0_8__unwrapclsr3stdE7declvalIT_EEEES7_
FNA:4,0,_ZNSt3__113__unwrap_iterB8ne180100INS_16reverse_iteratorIPmEENS_18__unwrap_iter_implIS3_Lb0EEELi0EEEDTclsrT0_8__unwrapclsr3stdE7declvalIT_EEEES7_
FNA:4,0,_ZNSt3__113__unwrap_iterB8ne180100IPKPKcNS_18__unwrap_iter_implIS4_Lb1EEELi0EEEDTclsrT0_8__unwrapclsr3stdE7declvalIT_EEEES8_
FNA:4,2600,_ZNSt3__113__unwrap_iterB8ne180100IPKcNS_18__unwrap_iter_implIS2_Lb1EEELi0EEEDTclsrT0_8__unwrapclsr3stdE7declvalIT_EEEES6_
FNA:4,0,_ZNSt3__113__unwrap_iterB8ne180100IPN7testing8internal13edit_distance8EditTypeENS_18__unwrap_iter_implIS5_Lb1EEELi0EEEDTclsrT0_8__unwrapclsr3stdE7declvalIT_EEEES9_
FNA:4,78,_ZNSt3__113__unwrap_iterB8ne180100IPNS_12basic_stringIcNS_11char_traitsIcEENS_9allocatorIcEEEENS_18__unwrap_iter_implIS7_Lb1EEELi0EEEDTclsrT0_8__unwrapclsr3stdE7declvalIT_EEEESB_
FNA:4,0,_ZNSt3__113__unwrap_iterB8ne180100IPPN7testing17TestEventListenerENS_18__unwrap_iter_implIS4_Lb1EEELi0EEEDTclsrT0_8__unwrapclsr3stdE7declvalIT_EEEES8_
FNA:4,0,_ZNSt3__113__unwrap_iterB8ne180100IPPN7testing9TestSuiteENS_18__unwrap_iter_implIS4_Lb1EEELi0EEEDTclsrT0_8__unwrapclsr3stdE7declvalIT_EEEES8_
FNA:4,0,_ZNSt3__113__unwrap_iterB8ne180100IPPcNS_18__unwrap_iter_implIS2_Lb1EEELi0EEEDTclsrT0_8__unwrapclsr3stdE7declvalIT_EEEES6_
FNA:4,1306,_ZNSt3__113__unwrap_iterB8ne180100IPcNS_18__unwrap_iter_implIS1_Lb1EEELi0EEEDTclsrT0_8__unwrapclsr3stdE7declvalIT_EEEES5_
FNA:4,0,_ZNSt3__113__unwrap_iterB8ne180100IPdNS_18__unwrap_iter_implIS1_Lb1EEELi0EEEDTclsrT0_8__unwrapclsr3stdE7declvalIT_EEEES5_
FNL:5,77,78
FNA:5,0,_ZNSt3__113__rewrap_iterB8ne180100INS_11__wrap_iterIPKNS_12basic_stringIcNS_11char_traitsIcEENS_9allocatorIcEEEEEES9_NS_18__unwrap_iter_implISA_Lb1EEEEET_SD_T0_
FNA:5,156,_ZNSt3__113__rewrap_iterB8ne180100INS_11__wrap_iterIPNS_12basic_stringIcNS_11char_traitsIcEENS_9allocatorIcEEEEEES8_NS_18__unwrap_iter_implIS9_Lb1EEEEET_SC_T0_
FNA:5,78,_ZNSt3__113__rewrap_iterB8ne180100INS_15insert_iteratorINS_13unordered_setINS_12basic_stringIcNS_11char_traitsIcEENS_9allocatorIcEEEENS_4hashIS8_EENS_8equal_toIS8_EENS6_IS8_EEEEEESF_NS_18__unwrap_iter_implISF_Lb0EEEEET_SI_T0_
FNA:5,78,_ZNSt3__113__rewrap_iterB8ne180100INS_15insert_iteratorINS_6vectorINS_12basic_stringIcNS_11char_traitsIcEENS_9allocatorIcEEEENS6_IS8_EEEEEESB_NS_18__unwrap_iter_implISB_Lb0EEEEET_SE_T0_
FNA:5,0,_ZNSt3__113__rewrap_iterB8ne180100INS_16reverse_iteratorIPN7testing8internal13edit_distance8EditTypeEEES7_NS_18__unwrap_iter_implIS7_Lb0EEEEET_SA_T0_
FNA:5,0,_ZNSt3__113__rewrap_iterB8ne180100INS_16reverse_iteratorIPPN7testing11EnvironmentEEES6_NS_18__unwrap_iter_implIS6_Lb0EEEEET_S9_T0_
FNA:5,52,_ZNSt3__113__rewrap_iterB8ne180100INS_16reverse_iteratorIPPN7testing17TestEventListenerEEES6_NS_18__unwrap_iter_implIS6_Lb0EEEEET_S9_T0_
FNA:5,312,_ZNSt3__113__rewrap_iterB8ne180100INS_16reverse_iteratorIPPN7testing8TestInfoEEES6_NS_18__unwrap_iter_implIS6_Lb0EEEEET_S9_T0_
FNA:5,52,_ZNSt3__113__rewrap_iterB8ne180100INS_16reverse_iteratorIPPN7testing9TestSuiteEEES6_NS_18__unwrap_iter_implIS6_Lb0EEEEET_S9_T0_
FNA:5,0,_ZNSt3__113__rewrap_iterB8ne180100INS_16reverse_iteratorIPPcEES4_NS_18__unwrap_iter_implIS4_Lb0EEEEET_S7_T0_
FNA:5,364,_ZNSt3__113__rewrap_iterB8ne180100INS_16reverse_iteratorIPiEES3_NS_18__unwrap_iter_implIS3_Lb0EEEEET_S6_T0_
FNA:5,0,_ZNSt3__113__rewrap_iterB8ne180100INS_16reverse_iteratorIPmEES3_NS_18__unwrap_iter_implIS3_Lb0EEEEET_S6_T0_
FNA:5,1300,_ZNSt3__113__rewrap_iterB8ne180100IPKcS2_NS_18__unwrap_iter_implIS2_Lb1EEEEET_S5_T0_
FNA:5,0,_ZNSt3__113__rewrap_iterB8ne180100IPN7testing8internal13edit_distance8EditTypeES5_NS_18__unwrap_iter_implIS5_Lb1EEEEET_S8_T0_
FNA:5,26,_ZNSt3__113__rewrap_iterB8ne180100IPNS_12basic_stringIcNS_11char_traitsIcEENS_9allocatorIcEEEES7_NS_18__unwrap_iter_implIS7_Lb1EEEEET_SA_T0_
FNA:5,0,_ZNSt3__113__rewrap_iterB8ne180100IPPN7testing17TestEventListenerES4_NS_18__unwrap_iter_implIS4_Lb1EEEEET_S7_T0_
FNA:5,0,_ZNSt3__113__rewrap_iterB8ne180100IPPN7testing9TestSuiteES4_NS_18__unwrap_iter_implIS4_Lb1EEEEET_S7_T0_
FNA:5,0,_ZNSt3__113__rewrap_iterB8ne180100IPPcS2_NS_18__unwrap_iter_implIS2_Lb1EEEEET_S5_T0_
FNA:5,1304,_ZNSt3__113__rewrap_iterB8ne180100IPcS1_NS_18__unwrap_iter_implIS1_Lb1EEEEET_S4_T0_
FNA:5,0,_ZNSt3__113__rewrap_iterB8ne180100IPdS1_NS_18__unwrap_iter_implIS1_Lb1EEEEET_S4_T0_
FNF:6
FNH:6
DA:39,936
DA:40,1326
DA:51,2786
DA:52,2786
DA:55,4296
DA:56,4296
DA:64,5622
DA:65,5622
DA:77,3722
DA:78,3722
LF:10
LH:10
end_of_record
TN:
SF:/Library/Developer/CommandLineTools/SDKs/MacOSX15.1.sdk/usr/include/c++/v1/__algorithm/unwrap_range.h
FNL:0,85,86
FNA:0,0,_ZNSt3__114__unwrap_rangeB8ne180100INS_11__wrap_iterIPKNS_12basic_stringIcNS_11char_traitsIcEENS_9allocatorIcEEEEEES9_EENS_4pairIT0_SC_EET_SE_
FNA:0,156,_ZNSt3__114__unwrap_rangeB8ne180100INS_11__wrap_iterIPNS_12basic_stringIcNS_11char_traitsIcEENS_9allocatorIcEEEEEES8_EENS_4pairIT0_SB_EET_SD_
FNA:0,0,_ZNSt3__114__unwrap_rangeB8ne180100INS_16reverse_iteratorIPN7testing8internal13edit_distance8EditTypeEEES7_EENS_4pairIT0_S9_EET_SB_
FNA:0,0,_ZNSt3__114__unwrap_rangeB8ne180100INS_16reverse_iteratorIPPN7testing11EnvironmentEEES6_EENS_4pairIT0_S8_EET_SA_
FNA:0,26,_ZNSt3__114__unwrap_rangeB8ne180100INS_16reverse_iteratorIPPN7testing17TestEventListenerEEES6_EENS_4pairIT0_S8_EET_SA_
FNA:0,156,_ZNSt3__114__unwrap_rangeB8ne180100INS_16reverse_iteratorIPPN7testing8TestInfoEEES6_EENS_4pairIT0_S8_EET_SA_
FNA:0,26,_ZNSt3__114__unwrap_rangeB8ne180100INS_16reverse_iteratorIPPN7testing9TestSuiteEEES6_EENS_4pairIT0_S8_EET_SA_
FNA:0,0,_ZNSt3__114__unwrap_rangeB8ne180100INS_16reverse_iteratorIPPcEES4_EENS_4pairIT0_S6_EET_S8_
FNA:0,182,_ZNSt3__114__unwrap_rangeB8ne180100INS_16reverse_iteratorIPiEES3_EENS_4pairIT0_S5_EET_S7_
FNA:0,0,_ZNSt3__114__unwrap_rangeB8ne180100INS_16reverse_iteratorIPmEES3_EENS_4pairIT0_S5_EET_S7_
FNA:0,0,_ZNSt3__114__unwrap_rangeB8ne180100IPKPKcS4_EENS_4pairIT0_S6_EET_S8_
FNA:0,1300,_ZNSt3__114__unwrap_rangeB8ne180100IPKcS2_EENS_4pairIT0_S4_EET_S6_
FNA:0,0,_ZNSt3__114__unwrap_rangeB8ne180100IPN7testing8internal13edit_distance8EditTypeES5_EENS_4pairIT0_S7_EET_S9_
FNA:0,26,_ZNSt3__114__unwrap_rangeB8ne180100IPNS_12basic_stringIcNS_11char_traitsIcEENS_9allocatorIcEEEES7_EENS_4pairIT0_S9_EET_SB_
FNA:0,0,_ZNSt3__114__unwrap_rangeB8ne180100IPPN7testing17TestEventListenerES4_EENS_4pairIT0_S6_EET_S8_
FNA:0,0,_ZNSt3__114__unwrap_rangeB8ne180100IPPN7testing9TestSuiteES4_EENS_4pairIT0_S6_EET_S8_
FNA:0,0,_ZNSt3__114__unwrap_rangeB8ne180100IPPcS2_EENS_4pairIT0_S4_EET_S6_
FNA:0,2,_ZNSt3__114__unwrap_rangeB8ne180100IPcS1_EENS_4pairIT0_S3_EET_S5_
FNA:0,0,_ZNSt3__114__unwrap_rangeB8ne180100IPdS1_EENS_4pairIT0_S3_EET_S5_
FNL:1,90,91
FNA:1,156,_ZNSt3__114__rewrap_rangeB8ne180100INS_11__wrap_iterIPNS_12basic_stringIcNS_11char_traitsIcEENS_9allocatorIcEEEEEES8_EET_SA_T0_
FNA:1,0,_ZNSt3__114__rewrap_rangeB8ne180100INS_16reverse_iteratorIPN7testing8internal13edit_distance8EditTypeEEES7_EET_S8_T0_
FNA:1,0,_ZNSt3__114__rewrap_rangeB8ne180100INS_16reverse_iteratorIPPN7testing11EnvironmentEEES6_EET_S7_T0_
FNA:1,26,_ZNSt3__114__rewrap_rangeB8ne180100INS_16reverse_iteratorIPPN7testing17TestEventListenerEEES6_EET_S7_T0_
FNA:1,156,_ZNSt3__114__rewrap_rangeB8ne180100INS_16reverse_iteratorIPPN7testing8TestInfoEEES6_EET_S7_T0_
FNA:1,26,_ZNSt3__114__rewrap_rangeB8ne180100INS_16reverse_iteratorIPPN7testing9TestSuiteEEES6_EET_S7_T0_
FNA:1,0,_ZNSt3__114__rewrap_rangeB8ne180100INS_16reverse_iteratorIPPcEES4_EET_S5_T0_
FNA:1,182,_ZNSt3__114__rewrap_rangeB8ne180100INS_16reverse_iteratorIPiEES3_EET_S4_T0_
FNA:1,0,_ZNSt3__114__rewrap_rangeB8ne180100INS_16reverse_iteratorIPmEES3_EET_S4_T0_
FNA:1,1300,_ZNSt3__114__rewrap_rangeB8ne180100IPKcS2_EET_S3_T0_
FNA:1,0,_ZNSt3__114__rewrap_rangeB8ne180100IPN7testing8internal13edit_distance8EditTypeES5_EET_S6_T0_
FNA:1,0,_ZNSt3__114__rewrap_rangeB8ne180100IPNS_12basic_stringIcNS_11char_traitsIcEENS_9allocatorIcEEEES7_EET_S8_T0_
FNA:1,0,_ZNSt3__114__rewrap_rangeB8ne180100IPPN7testing17TestEventListenerES4_EET_S5_T0_
FNA:1,0,_ZNSt3__114__rewrap_rangeB8ne180100IPPN7testing9TestSuiteES4_EET_S5_T0_
FNA:1,0,_ZNSt3__114__rewrap_rangeB8ne180100IPPcS2_EET_S3_T0_
FNA:1,2,_ZNSt3__114__rewrap_rangeB8ne180100IPcS1_EET_S2_T0_
FNA:1,0,_ZNSt3__114__rewrap_rangeB8ne180100IPdS1_EET_S2_T0_
FNF:2
FNH:2
DA:85,1874
DA:86,1874
DA:90,1848
DA:91,1848
LF:4
LH:4
end_of_record
TN:
SF:/Library/Developer/CommandLineTools/SDKs/MacOSX15.1.sdk/usr/include/c++/v1/__atomic/atomic.h
FNL:0,47,47
FNA:0,0,_ZNSt3__16atomicIiEC1B8ne180100Ei
FNA:0,0,_ZNSt3__16atomicIiEC2B8ne180100Ei
FNF:1
FNH:0
DA:47,0
LF:1
LH:0
end_of_record
TN:
SF:/Library/Developer/CommandLineTools/SDKs/MacOSX15.1.sdk/usr/include/c++/v1/__atomic/atomic_base.h
FNL:0,132,132
FNA:0,0,_ZNSt3__113__atomic_baseIiLb0EEC2B8ne180100Ei
FNL:1,150,150
FNA:1,0,_ZNSt3__113__atomic_baseIiLb1EEC2B8ne180100Ei
FNL:2,161,162
FNA:2,0,_ZNSt3__113__atomic_baseIiLb1EE9fetch_subB8ne180100EiNS_12memory_orderE
FNF:3
FNH:0
DA:132,0
DA:150,0
DA:161,0
DA:162,0
LF:4
LH:0
end_of_record
TN:
SF:/Library/Developer/CommandLineTools/SDKs/MacOSX15.1.sdk/usr/include/c++/v1/__atomic/cxx_atomic_impl.h
FNL:0,305,305
FNA:0,0,_ZNSt3__122__cxx_atomic_base_implIiEC2Ei
FNL:1,474,476
FNA:1,0,_ZNSt3__122__cxx_atomic_fetch_subB8ne180100IiEET_PNS_22__cxx_atomic_base_implIS1_EES1_NS_12memory_orderE
FNL:2,819,819
FNA:2,0,_ZNSt3__117__cxx_atomic_implIiNS_22__cxx_atomic_base_implIiEEEC1B8ne180100Ei
FNA:2,0,_ZNSt3__117__cxx_atomic_implIiNS_22__cxx_atomic_base_implIiEEEC2B8ne180100Ei
FNF:3
FNH:0
DA:305,0
DA:474,0
DA:475,0
DA:476,0
DA:819,0
LF:5
LH:0
end_of_record
TN:
SF:/Library/Developer/CommandLineTools/SDKs/MacOSX15.1.sdk/usr/include/c++/v1/__bit/countl.h
FNL:0,31,32
FNA:0,0,_ZNSt3__112__libcpp_clzB8ne180100Em
FNF:1
FNH:0
DA:31,0
DA:32,0
LF:2
LH:0
end_of_record
TN:
SF:/Library/Developer/CommandLineTools/SDKs/MacOSX15.1.sdk/usr/include/c++/v1/__chrono/duration.h
FNL:0,106,107
FNA:0,75,_ZNSt3__16chrono13duration_castB8ne180100INS0_8durationIxNS_5ratioILl1ELl1000EEEEExNS3_ILl1ELl1000000000EEELi0EEET_RKNS2_IT0_T1_EE
FNA:0,100,_ZNSt3__16chrono13duration_castB8ne180100INS0_8durationIxNS_5ratioILl1ELl1000EEEEExNS3_ILl1ELl1000000EEELi0EEET_RKNS2_IT0_T1_EE
FNL:1,210,210
FNA:1,75,_ZNSt3__16chrono8durationIxNS_5ratioILl1ELl1000000000EEEEC1B8ne180100IxLi0EEERKT_
FNA:1,75,_ZNSt3__16chrono8durationIxNS_5ratioILl1ELl1000000000EEEEC2B8ne180100IxLi0EEERKT_
FNA:1,100,_ZNSt3__16chrono8durationIxNS_5ratioILl1ELl1000000EEEEC1B8ne180100IxLi0EEERKT_
FNA:1,100,_ZNSt3__16chrono8durationIxNS_5ratioILl1ELl1000000EEEEC2B8ne180100IxLi0EEERKT_
FNA:1,175,_ZNSt3__16chrono8durationIxNS_5ratioILl1ELl1000EEEEC1B8ne180100IxLi0EEERKT_
FNA:1,175,_ZNSt3__16chrono8durationIxNS_5ratioILl1ELl1000EEEEC2B8ne180100IxLi0EEERKT_
FNL:2,224,224
FNA:2,225,_ZNKSt3__16chrono8durationIxNS_5ratioILl1ELl1000000000EEEE5countB8ne180100Ev
FNA:2,300,_ZNKSt3__16chrono8durationIxNS_5ratioILl1ELl1000000EEEE5countB8ne180100Ev
FNA:2,175,_ZNKSt3__16chrono8durationIxNS_5ratioILl1ELl1000EEEE5countB8ne180100Ev
FNL:3,405,407
FNA:3,75,_ZNSt3__16chronomiB8ne180100IxNS_5ratioILl1ELl1000000000EEExS3_EENS_11common_typeIJNS0_8durationIT_T0_EENS5_IT1_T2_EEEE4typeERKS8_RKSB_
FNA:3,100,_ZNSt3__16chronomiB8ne180100IxNS_5ratioILl1ELl1000000EEExS3_EENS_11common_typeIJNS0_8durationIT_T0_EENS5_IT1_T2_EEEE4typeERKS8_RKSB_
FNL:4,80,83
FNA:4,75,_ZNKSt3__16chrono15__duration_castINS0_8durationIxNS_5ratioILl1ELl1000000000EEEEENS2_IxNS3_ILl1ELl1000EEEEENS3_ILl1ELl1000000EEELb1ELb0EEclB8ne180100ERKS5_
FNA:4,100,_ZNKSt3__16chrono15__duration_castINS0_8durationIxNS_5ratioILl1ELl1000000EEEEENS2_IxNS3_ILl1ELl1000EEEEES6_Lb1ELb0EEclB8ne180100ERKS5_
FNF:5
FNH:5
DA:80,175
DA:82,175
DA:83,175
DA:106,175
DA:107,175
DA:210,700
DA:224,700
DA:405,175
DA:407,175
LF:9
LH:9
end_of_record
TN:
SF:/Library/Developer/CommandLineTools/SDKs/MacOSX15.1.sdk/usr/include/c++/v1/__chrono/time_point.h
FNL:0,213,214
FNA:0,75,_ZNSt3__16chronomiB8ne180100INS0_12steady_clockENS0_8durationIxNS_5ratioILl1ELl1000000000EEEEES6_EENS_11common_typeIJT0_T1_EE4typeERKNS0_10time_pointIT_S8_EERKNSC_ISD_S9_EE
FNA:0,100,_ZNSt3__16chronomiB8ne180100INS0_12system_clockENS0_8durationIxNS_5ratioILl1ELl1000000EEEEES6_EENS_11common_typeIJT0_T1_EE4typeERKNS0_10time_pointIT_S8_EERKNSC_ISD_S9_EE
FNL:1,58,58
FNA:1,150,_ZNKSt3__16chrono10time_pointINS0_12steady_clockENS0_8durationIxNS_5ratioILl1ELl1000000000EEEEEE16time_since_epochB8ne180100Ev
FNA:1,200,_ZNKSt3__16chrono10time_pointINS0_12system_clockENS0_8durationIxNS_5ratioILl1ELl1000000EEEEEE16time_since_epochB8ne180100Ev
FNF:2
FNH:2
DA:58,350
DA:213,175
DA:214,175
LF:3
LH:3
end_of_record
TN:
SF:/Library/Developer/CommandLineTools/SDKs/MacOSX15.1.sdk/usr/include/c++/v1/__functional/hash.h
FNL:0,136,137
FNA:0,5753,_ZNSt3__121__murmur2_or_cityhashImLm64EE8__rotateB8ne180100Emi
FNL:1,140,141
FNA:1,442,_ZNSt3__121__murmur2_or_cityhashImLm64EE22__rotate_by_at_least_1B8ne180100Emi
FNL:2,144,144
FNA:2,464,_ZNSt3__121__murmur2_or_cityhashImLm64EE11__shift_mixB8ne180100Em
FNL:3,146,153
FNA:3,1819,_ZNSt3__121__murmur2_or_cityhashImLm64EE13__hash_len_16B8ne180100Emm
FNL:4,157,181
FNA:4,520,_ZNSt3__121__murmur2_or_cityhashImLm64EE18__hash_len_0_to_16B8ne180100EPKcm
FNL:5,184,190
FNA:5,1299,_ZNSt3__121__murmur2_or_cityhashImLm64EE19__hash_len_17_to_32B8ne180100EPKcm
FNL:6,196,203
FNA:6,0,_ZNSt3__121__murmur2_or_cityhashImLm64EE29__weak_hash_len_32_with_seedsB8ne180100Emmmmmm
FNL:7,208,215
FNA:7,0,_ZNSt3__121__murmur2_or_cityhashImLm64EE29__weak_hash_len_32_with_seedsB8ne180100EPKcmm
FNL:8,220,240
FNA:8,232,_ZNSt3__121__murmur2_or_cityhashImLm64EE19__hash_len_33_to_64B8ne180100EPKcm
FNL:9,38,41
FNA:9,156,_ZNSt3__110__loadwordB8ne180100IjEET_PKv
FNA:9,8400,_ZNSt3__110__loadwordB8ne180100ImEET_PKv
FNL:10,89,127
FNA:10,2051,_ZNKSt3__121__murmur2_or_cityhashImLm64EEclB8ne180100EPKvm
FNF:11
FNH:9
DA:38,8556
DA:40,8556
DA:41,8556
DA:89,2051
DA:90,2051
DA:91,2051
DA:92,1819
DA:93,520
DA:95,1299
DA:97,232
DA:98,232
DA:103,0
DA:104,0
DA:105,0
DA:106,0
DA:107,0
DA:108,0
DA:109,0
DA:112,0
DA:113,0
DA:114,0
DA:115,0
DA:116,0
DA:117,0
DA:118,0
DA:119,0
DA:120,0
DA:121,0
DA:122,0
DA:123,0
DA:124,0
DA:125,0
DA:126,0
DA:127,2051
DA:136,5753
DA:137,5753
DA:140,442
DA:141,442
DA:144,464
DA:146,1819
DA:147,1819
DA:148,1819
DA:149,1819
DA:150,1819
DA:151,1819
DA:152,1819
DA:153,1819
DA:157,520
DA:158,520
DA:159,442
DA:160,442
DA:161,442
DA:163,78
DA:164,78
DA:165,78
DA:169,78
DA:172,0
DA:173,0
DA:174,0
DA:175,0
DA:176,0
DA:177,0
DA:178,0
DA:180,0
DA:181,520
DA:184,1299
DA:185,1299
DA:186,1299
DA:187,1299
DA:188,1299
DA:189,1299
DA:190,1299
DA:196,0
DA:197,0
DA:198,0
DA:199,0
DA:200,0
DA:201,0
DA:202,0
DA:203,0
DA:208,0
DA:209,0
DA:210,0
DA:211,0
DA:212,0
DA:213,0
DA:214,0
DA:215,0
DA:220,232
DA:221,232
DA:222,232
DA:223,232
DA:224,232
DA:225,232
DA:226,232
DA:227,232
DA:228,232
DA:229,232
DA:230,232
DA:231,232
DA:232,232
DA:233,232
DA:234,232
DA:235,232
DA:236,232
DA:237,232
DA:238,232
DA:239,232
DA:240,232
LF:109
LH:63
end_of_record
TN:
SF:/Library/Developer/CommandLineTools/SDKs/MacOSX15.1.sdk/usr/include/c++/v1/__functional/identity.h
FNL:0,29,30
FNA:0,0,_ZNKSt3__110__identityclB8ne180100IRKNS_12basic_stringIcNS_11char_traitsIcEENS_9allocatorIcEEEEEEOT_SB_
FNF:1
FNH:0
DA:29,0
DA:30,0
LF:2
LH:0
end_of_record
TN:
SF:/Library/Developer/CommandLineTools/SDKs/MacOSX15.1.sdk/usr/include/c++/v1/__functional/operations.h
FNL:0,296,297
FNA:0,25,_ZNKSt3__18equal_toINS_12basic_stringIcNS_11char_traitsIcEENS_9allocatorIcEEEEEclB8ne180100ERKS6_S9_
FNL:1,357,358
FNA:1,0,_ZNKSt3__14lessINS_12basic_stringIcNS_11char_traitsIcEENS_9allocatorIcEEEEEclB8ne180100ERKS6_S9_
FNF:2
FNH:1
DA:296,25
DA:297,25
DA:357,0
DA:358,0
LF:4
LH:2
end_of_record
TN:
SF:/Library/Developer/CommandLineTools/SDKs/MacOSX15.1.sdk/usr/include/c++/v1/__hash_table
FNL:0,100,100
FNA:0,1011,_ZNKSt3__116__hash_node_baseIPNS_11__hash_nodeINS_12basic_stringIcNS_11char_traitsIcEENS_9allocatorIcEEEEPvEEE6__hashB8ne180100Ev
FNL:1,102,102
FNA:1,130,_ZNSt3__116__hash_node_baseIPNS_11__hash_nodeINS_12basic_stringIcNS_11char_traitsIcEENS_9allocatorIcEEEEPvEEEC1B8ne180100Ev
FNA:1,130,_ZNSt3__116__hash_node_baseIPNS_11__hash_nodeINS_12basic_stringIcNS_11char_traitsIcEENS_9allocatorIcEEEEPvEEEC2B8ne180100Ev
FNL:2,103,103
FNA:2,25,_ZNSt3__116__hash_node_baseIPNS_11__hash_nodeINS_12basic_stringIcNS_11char_traitsIcEENS_9allocatorIcEEEEPvEEEC2B8ne180100EPSB_
FNL:3,1073,1080
FNA:3,130,_ZNSt3__112__hash_tableINS_12basic_stringIcNS_11char_traitsIcEENS_9allocatorIcEEEENS_4hashIS6_EENS_8equal_toIS6_EENS4_IS6_EEED1Ev
FNA:3,130,_ZNSt3__112__hash_tableINS_12basic_stringIcNS_11char_traitsIcEENS_9allocatorIcEEEENS_4hashIS6_EENS_8equal_toIS6_EENS4_IS6_EEED2Ev
FNL:4,1106,1116
FNA:4,130,_ZNSt3__112__hash_tableINS_12basic_stringIcNS_11char_traitsIcEENS_9allocatorIcEEEENS_4hashIS6_EENS_8equal_toIS6_EENS4_IS6_EEE17__deallocate_nodeEPNS_16__hash_node_baseIPNS_11__hash_nodeIS6_PvEEEE
FNL:5,1131,1149
FNA:5,26,_ZNSt3__112__hash_tableINS_12basic_stringIcNS_11char_traitsIcEENS_9allocatorIcEEEENS_4hashIS6_EENS_8equal_toIS6_EENS4_IS6_EEE13__move_assignERSC_NS_17integral_constantIbLb1EEE
FNL:6,1190,1194
FNA:6,26,_ZNSt3__112__hash_tableINS_12basic_stringIcNS_11char_traitsIcEENS_9allocatorIcEEEENS_4hashIS6_EENS_8equal_toIS6_EENS4_IS6_EEEaSEOSC_
FNL:7,124,124
FNA:7,75,_ZNSt3__111__hash_nodeINS_12basic_stringIcNS_11char_traitsIcEENS_9allocatorIcEEEEPvE11__get_valueB8ne180100Ev
FNL:8,1262,1263
FNA:8,78,_ZNSt3__112__hash_tableINS_12basic_stringIcNS_11char_traitsIcEENS_9allocatorIcEEEENS_4hashIS6_EENS_8equal_toIS6_EENS4_IS6_EEE5beginEv
FNL:9,1280,1281
FNA:9,4027,_ZNKSt3__112__hash_tableINS_12basic_stringIcNS_11char_traitsIcEENS_9allocatorIcEEEENS_4hashIS6_EENS_8equal_toIS6_EENS4_IS6_EEE3endEv
FNL:10,1285,1294
FNA:10,26,_ZNSt3__112__hash_tableINS_12basic_stringIcNS_11char_traitsIcEENS_9allocatorIcEEEENS_4hashIS6_EENS_8equal_toIS6_EENS4_IS6_EEE5clearEv
FNL:11,134,134
FNA:11,25,_ZNSt3__111__hash_nodeINS_12basic_stringIcNS_11char_traitsIcEENS_9allocatorIcEEEEPvEC1B8ne180100EPNS_16__hash_node_baseIPS8_EEm
FNA:11,25,_ZNSt3__111__hash_nodeINS_12basic_stringIcNS_11char_traitsIcEENS_9allocatorIcEEEEPvEC2B8ne180100EPNS_16__hash_node_baseIPS8_EEm
FNL:12,135,135
FNA:12,25,_ZNSt3__111__hash_nodeINS_12basic_stringIcNS_11char_traitsIcEENS_9allocatorIcEEEEPvED1B8ne180100Ev
FNA:12,25,_ZNSt3__111__hash_nodeINS_12basic_stringIcNS_11char_traitsIcEENS_9allocatorIcEEEEPvED2B8ne180100Ev
FNL:13,138,138
FNA:13,25,_ZNSt3__116__is_hash_power2B8ne180100Em
FNL:14,140,141
FNA:14,987,_ZNSt3__116__constrain_hashB8ne180100Emm
FNL:15,144,145
FNA:15,0,_ZNSt3__116__next_hash_pow2B8ne180100Em
FNL:16,1476,1523
FNA:16,25,_ZNSt3__112__hash_tableINS_12basic_stringIcNS_11char_traitsIcEENS_9allocatorIcEEEENS_4hashIS6_EENS_8equal_toIS6_EENS4_IS6_EEE25__emplace_unique_key_argsIS6_JS6_EEENS_4pairINS_15__hash_iteratorIPNS_11__hash_nodeIS6_PvEEEEbEERKT_DpOT0_
FNL:17,1656,1672
FNA:17,25,_ZNSt3__112__hash_tableINS_12basic_stringIcNS_11char_traitsIcEENS_9allocatorIcEEEENS_4hashIS6_EENS_8equal_toIS6_EENS4_IS6_EEE8__rehashILb1EEEvm
FNL:18,1676,1714
FNA:18,25,_ZNSt3__112__hash_tableINS_12basic_stringIcNS_11char_traitsIcEENS_9allocatorIcEEEENS_4hashIS6_EENS_8equal_toIS6_EENS4_IS6_EEE11__do_rehashILb1EEEvm
FNL:19,172,172
FNA:19,25,_ZNSt3__122__hash_key_value_typesINS_12basic_stringIcNS_11char_traitsIcEENS_9allocatorIcEEEEE9__get_keyB8ne180100ERKS6_
FNL:20,174,174
FNA:20,50,_ZNSt3__122__hash_key_value_typesINS_12basic_stringIcNS_11char_traitsIcEENS_9allocatorIcEEEEE9__get_ptrB8ne180100ERS6_
FNL:21,1740,1756
FNA:21,2026,_ZNKSt3__112__hash_tableINS_12basic_stringIcNS_11char_traitsIcEENS_9allocatorIcEEEENS_4hashIS6_EENS_8equal_toIS6_EENS4_IS6_EEE4findIS6_EENS_21__hash_const_iteratorIPNS_11__hash_nodeIS6_PvEEEERKT_
FNL:22,1785,1794
FNA:22,25,_ZNSt3__112__hash_tableINS_12basic_stringIcNS_11char_traitsIcEENS_9allocatorIcEEEENS_4hashIS6_EENS_8equal_toIS6_EENS4_IS6_EEE21__construct_node_hashIS6_JEEENS_10unique_ptrINS_11__hash_nodeIS6_PvEENS_22__hash_node_destructorINS4_ISH_EEEEEEmOT_DpOT0_
FNL:23,1880,1881
FNA:23,2026,_ZNKSt3__112__hash_tableINS_12basic_stringIcNS_11char_traitsIcEENS_9allocatorIcEEEENS_4hashIS6_EENS_8equal_toIS6_EENS4_IS6_EEE14__count_uniqueIS6_EEmRKT_
FNL:24,312,312
FNA:24,103,_ZNSt3__115__hash_iteratorIPNS_11__hash_nodeINS_12basic_stringIcNS_11char_traitsIcEENS_9allocatorIcEEEEPvEEEC1B8ne180100EPNS_16__hash_node_baseISA_EE
FNA:24,103,_ZNSt3__115__hash_iteratorIPNS_11__hash_nodeINS_12basic_stringIcNS_11char_traitsIcEENS_9allocatorIcEEEEPvEEEC2B8ne180100EPNS_16__hash_node_baseISA_EE
FNL:25,346,346
FNA:25,103,_ZNSt3__121__hash_const_iteratorIPNS_11__hash_nodeINS_12basic_stringIcNS_11char_traitsIcEENS_9allocatorIcEEEEPvEEEC1B8ne180100ERKNS_15__hash_iteratorISA_EE
FNA:25,103,_ZNSt3__121__hash_const_iteratorIPNS_11__hash_nodeINS_12basic_stringIcNS_11char_traitsIcEENS_9allocatorIcEEEEPvEEEC2B8ne180100ERKNS_15__hash_iteratorISA_EE
FNL:26,353,355
FNA:26,25,_ZNSt3__121__hash_const_iteratorIPNS_11__hash_nodeINS_12basic_stringIcNS_11char_traitsIcEENS_9allocatorIcEEEEPvEEEppB8ne180100Ev
FNL:27,364,365
FNA:27,2026,_ZNSt3__1eqB8ne180100ERKNS_21__hash_const_iteratorIPNS_11__hash_nodeINS_12basic_stringIcNS_11char_traitsIcEENS_9allocatorIcEEEEPvEEEESD_
FNL:28,367,368
FNA:28,2026,_ZNSt3__1neB8ne180100ERKNS_21__hash_const_iteratorIPNS_11__hash_nodeINS_12basic_stringIcNS_11char_traitsIcEENS_9allocatorIcEEEEPvEEEESD_
FNL:29,372,372
FNA:29,4052,_ZNSt3__121__hash_const_iteratorIPNS_11__hash_nodeINS_12basic_stringIcNS_11char_traitsIcEENS_9allocatorIcEEEEPvEEEC1B8ne180100EPNS_16__hash_node_baseISA_EE
FNA:29,4052,_ZNSt3__121__hash_const_iteratorIPNS_11__hash_nodeINS_12basic_stringIcNS_11char_traitsIcEENS_9allocatorIcEEEEPvEEEC2B8ne180100EPNS_16__hash_node_baseISA_EE
FNL:30,533,534
FNA:30,130,_ZNSt3__125__bucket_list_deallocatorINS_9allocatorIPNS_16__hash_node_baseIPNS_11__hash_nodeINS_12basic_stringIcNS_11char_traitsIcEENS1_IcEEEEPvEEEEEEEC1B8ne180100Ev
FNA:30,130,_ZNSt3__125__bucket_list_deallocatorINS_9allocatorIPNS_16__hash_node_baseIPNS_11__hash_nodeINS_12basic_stringIcNS_11char_traitsIcEENS1_IcEEEEPvEEEEEEEC2B8ne180100Ev
FNL:31,546,546
FNA:31,128,_ZNSt3__125__bucket_list_deallocatorINS_9allocatorIPNS_16__hash_node_baseIPNS_11__hash_nodeINS_12basic_stringIcNS_11char_traitsIcEENS1_IcEEEEPvEEEEEEE4sizeB8ne180100Ev
FNL:32,547,547
FNA:32,2126,_ZNKSt3__125__bucket_list_deallocatorINS_9allocatorIPNS_16__hash_node_baseIPNS_11__hash_nodeINS_12basic_stringIcNS_11char_traitsIcEENS1_IcEEEEPvEEEEEEE4sizeB8ne180100Ev
FNL:33,549,549
FNA:33,102,_ZNSt3__125__bucket_list_deallocatorINS_9allocatorIPNS_16__hash_node_baseIPNS_11__hash_nodeINS_12basic_stringIcNS_11char_traitsIcEENS1_IcEEEEPvEEEEEEE7__allocB8ne180100Ev
FNL:34,552,552
FNA:34,25,_ZNSt3__125__bucket_list_deallocatorINS_9allocatorIPNS_16__hash_node_baseIPNS_11__hash_nodeINS_12basic_stringIcNS_11char_traitsIcEENS1_IcEEEEPvEEEEEEEclB8ne180100EPSD_
FNL:35,577,579
FNA:35,25,_ZNSt3__122__hash_node_destructorINS_9allocatorINS_11__hash_nodeINS_12basic_stringIcNS_11char_traitsIcEENS1_IcEEEEPvEEEEEC1B8ne180100ERSA_b
FNA:35,25,_ZNSt3__122__hash_node_destructorINS_9allocatorINS_11__hash_nodeINS_12basic_stringIcNS_11char_traitsIcEENS1_IcEEEEPvEEEEEC2B8ne180100ERSA_b
FNL:36,581,588
FNA:36,0,_ZNSt3__122__hash_node_destructorINS_9allocatorINS_11__hash_nodeINS_12basic_stringIcNS_11char_traitsIcEENS1_IcEEEEPvEEEEEclB8ne180100EPS9_
FNL:37,695,695
FNA:37,204,_ZNSt3__112__hash_tableINS_12basic_stringIcNS_11char_traitsIcEENS_9allocatorIcEEEENS_4hashIS6_EENS_8equal_toIS6_EENS4_IS6_EEE4sizeB8ne180100Ev
FNL:38,700,700
FNA:38,77,_ZNSt3__112__hash_tableINS_12basic_stringIcNS_11char_traitsIcEENS_9allocatorIcEEEENS_4hashIS6_EENS_8equal_toIS6_EENS4_IS6_EEE13hash_functionB8ne180100Ev
FNL:39,701,701
FNA:39,2026,_ZNKSt3__112__hash_tableINS_12basic_stringIcNS_11char_traitsIcEENS_9allocatorIcEEEENS_4hashIS6_EENS_8equal_toIS6_EENS4_IS6_EEE13hash_functionB8ne180100Ev
FNL:40,703,703
FNA:40,102,_ZNSt3__112__hash_tableINS_12basic_stringIcNS_11char_traitsIcEENS_9allocatorIcEEEENS_4hashIS6_EENS_8equal_toIS6_EENS4_IS6_EEE15max_load_factorB8ne180100Ev
FNL:41,706,706
FNA:41,52,_ZNSt3__112__hash_tableINS_12basic_stringIcNS_11char_traitsIcEENS_9allocatorIcEEEENS_4hashIS6_EENS_8equal_toIS6_EENS4_IS6_EEE6key_eqB8ne180100Ev
FNL:42,707,707
FNA:42,25,_ZNKSt3__112__hash_tableINS_12basic_stringIcNS_11char_traitsIcEENS_9allocatorIcEEEENS_4hashIS6_EENS_8equal_toIS6_EENS4_IS6_EEE6key_eqB8ne180100Ev
FNL:43,709,718
FNA:43,207,_ZNSt3__112__hash_tableINS_12basic_stringIcNS_11char_traitsIcEENS_9allocatorIcEEEENS_4hashIS6_EENS_8equal_toIS6_EENS4_IS6_EEE12__node_allocB8ne180100Ev
FNL:44,801,802
FNA:44,25,_ZNSt3__112__hash_tableINS_12basic_stringIcNS_11char_traitsIcEENS_9allocatorIcEEEENS_4hashIS6_EENS_8equal_toIS6_EENS4_IS6_EEE15__insert_uniqueB8ne180100EOS6_
FNL:45,846,846
FNA:45,25,_ZNSt3__112__hash_tableINS_12basic_stringIcNS_11char_traitsIcEENS_9allocatorIcEEEENS_4hashIS6_EENS_8equal_toIS6_EENS4_IS6_EEE15__rehash_uniqueB8ne180100Em
FNL:46,855,855
FNA:46,2126,_ZNKSt3__112__hash_tableINS_12basic_stringIcNS_11char_traitsIcEENS_9allocatorIcEEEENS_4hashIS6_EENS_8equal_toIS6_EENS4_IS6_EEE12bucket_countB8ne180100Ev
FNL:47,92,93
FNA:47,100,_ZNSt3__116__hash_node_baseIPNS_11__hash_nodeINS_12basic_stringIcNS_11char_traitsIcEENS_9allocatorIcEEEEPvEEE5__ptrB8ne180100Ev
FNL:48,96,97
FNA:48,50,_ZNSt3__116__hash_node_baseIPNS_11__hash_nodeINS_12basic_stringIcNS_11char_traitsIcEENS_9allocatorIcEEEEPvEEE8__upcastB8ne180100Ev
FNL:49,971,975
FNA:49,26,_ZNSt3__112__hash_tableINS_12basic_stringIcNS_11char_traitsIcEENS_9allocatorIcEEEENS_4hashIS6_EENS_8equal_toIS6_EENS4_IS6_EEE19__move_assign_allocB8ne180100ERSC_
FNL:50,976,980
FNA:50,26,_ZNSt3__112__hash_tableINS_12basic_stringIcNS_11char_traitsIcEENS_9allocatorIcEEEENS_4hashIS6_EENS_8equal_toIS6_EENS4_IS6_EEE19__move_assign_allocB8ne180100ERSC_NS_17integral_constantIbLb1EEE
FNL:51,993,997
FNA:51,130,_ZNSt3__112__hash_tableINS_12basic_stringIcNS_11char_traitsIcEENS_9allocatorIcEEEENS_4hashIS6_EENS_8equal_toIS6_EENS4_IS6_EEEC1Ev
FNA:51,130,_ZNSt3__112__hash_tableINS_12basic_stringIcNS_11char_traitsIcEENS_9allocatorIcEEEENS_4hashIS6_EENS_8equal_toIS6_EENS4_IS6_EEEC2Ev
FNF:52
FNH:50
DA:92,100
DA:93,100
DA:96,50
DA:97,50
DA:100,1011
DA:102,260
DA:103,25
DA:124,75
DA:134,50
DA:135,50
DA:138,25
DA:140,987
DA:141,987
DA:144,0
DA:145,0
DA:172,25
DA:174,50
DA:312,206
DA:346,206
DA:353,25
DA:354,25
DA:355,25
DA:364,2026
DA:365,2026
DA:367,2026
DA:368,2026
DA:372,8104
DA:533,260
DA:534,260
DA:546,128
DA:547,2126
DA:549,102
DA:552,25
DA:577,50
DA:578,25
DA:579,50
DA:581,0
DA:582,0
DA:583,0
DA:584,0
DA:585,0
DA:586,0
DA:587,0
DA:588,0
DA:695,204
DA:700,77
DA:701,2026
DA:703,102
DA:706,52
DA:707,25
DA:709,207
DA:718,130
DA:801,25
DA:802,25
DA:846,25
DA:855,2126
DA:971,26
DA:974,26
DA:975,26
DA:976,26
DA:978,26
DA:979,26
DA:980,26
DA:993,260
DA:997,260
DA:1073,260
DA:1079,130
DA:1080,260
DA:1106,130
DA:1107,130
DA:1108,155
DA:1109,25
DA:1110,25
DA:1111,25
DA:1112,25
DA:1113,25
DA:1114,25
DA:1116,130
DA:1131,26
DA:1134,26
DA:1135,26
DA:1136,26
DA:1137,26
DA:1138,26
DA:1139,26
DA:1140,26
DA:1141,26
DA:1142,26
DA:1143,26
DA:1144,26
DA:1145,25
DA:1146,25
DA:1147,25
DA:1148,25
DA:1149,26
DA:1190,26
DA:1193,26
DA:1194,26
DA:1262,78
DA:1263,78
DA:1280,4027
DA:1281,4027
DA:1285,26
DA:1286,26
DA:1287,0
DA:1288,0
DA:1289,0
DA:1290,0
DA:1291,0
DA:1292,0
DA:1293,0
DA:1294,26
DA:1476,25
DA:1477,25
DA:1478,25
DA:1479,25
DA:1482,25
DA:1483,0
DA:1484,0
DA:1485,0
DA:1486,0
DA:1487,0
DA:1488,0
DA:1489,0
DA:1490,0
DA:1491,0
DA:1492,0
DA:1493,0
DA:1495,0
DA:1496,0
DA:1497,25
DA:1498,25
DA:1499,25
DA:1500,25
DA:1501,25
DA:1503,25
DA:1504,25
DA:1505,25
DA:1506,25
DA:1507,25
DA:1509,25
DA:1510,25
DA:1511,0
DA:1512,25
DA:1513,0
DA:1514,0
DA:1516,25
DA:1518,25
DA:1519,25
DA:1520,25
DA:1522,25
DA:1523,0
DA:1656,25
DA:1657,25
DA:1658,25
DA:1659,0
DA:1660,0
DA:1661,25
DA:1662,25
DA:1663,25
DA:1664,0
DA:1665,0
DA:1667,0
DA:1668,0
DA:1669,0
DA:1670,0
DA:1671,0
DA:1672,25
DA:1676,25
DA:1677,25
DA:1678,25
DA:1679,25
DA:1680,25
DA:1681,75
DA:1682,50
DA:1683,25
DA:1684,25
DA:1685,25
DA:1686,0
DA:1687,0
DA:1688,0
DA:1689,0
DA:1690,0
DA:1691,0
DA:1692,0
DA:1694,0
DA:1695,0
DA:1696,0
DA:1697,0
DA:1698,0
DA:1699,0
DA:1706,0
DA:1707,0
DA:1708,0
DA:1711,0
DA:1712,0
DA:1713,25
DA:1714,25
DA:1740,2026
DA:1741,2026
DA:1742,2026
DA:1743,2026
DA:1744,625
DA:1745,625
DA:1746,625
DA:1747,1298
DA:1748,649
DA:1749,312
DA:1750,337
DA:1751,25
DA:1752,312
DA:1753,312
DA:1754,600
DA:1755,2001
DA:1756,2026
DA:1785,25
DA:1787,25
DA:1788,25
DA:1789,25
DA:1790,25
DA:1791,25
DA:1792,25
DA:1793,25
DA:1794,25
DA:1880,2026
DA:1881,2026
LF:226
LH:165
end_of_record
TN:
SF:/Library/Developer/CommandLineTools/SDKs/MacOSX15.1.sdk/usr/include/c++/v1/__iterator/advance.h
FNL:0,57,59
FNA:0,182,_ZNSt3__19__advanceB8ne180100INS_11__wrap_iterIPcEEEEvRT_NS_15iterator_traitsIS4_E15difference_typeENS_26random_access_iterator_tagE
FNA:0,10,_ZNSt3__19__advanceB8ne180100IPcEEvRT_NS_15iterator_traitsIS2_E15difference_typeENS_26random_access_iterator_tagE
FNL:1,65,72
FNA:1,182,_ZNSt3__17advanceB8ne180100INS_11__wrap_iterIPcEEllvEEvRT_T0_
FNA:1,10,_ZNSt3__17advanceB8ne180100IPcllvEEvRT_T0_
FNF:2
FNH:2
DA:57,192
DA:58,192
DA:59,192
DA:65,192
DA:67,192
DA:71,192
DA:72,192
LF:7
LH:7
end_of_record
TN:
SF:/Library/Developer/CommandLineTools/SDKs/MacOSX15.1.sdk/usr/include/c++/v1/__iterator/distance.h
FNL:0,40,41
FNA:0,0,_ZNSt3__110__distanceB8ne180100INS_11__wrap_iterIPKNS_12basic_stringIcNS_11char_traitsIcEENS_9allocatorIcEEEEEEEENS_15iterator_traitsIT_E15difference_typeESC_SC_NS_26random_access_iterator_tagE
FNA:0,78,_ZNSt3__110__distanceB8ne180100INS_11__wrap_iterIPNS_12basic_stringIcNS_11char_traitsIcEENS_9allocatorIcEEEEEEEENS_15iterator_traitsIT_E15difference_typeESB_SB_NS_26random_access_iterator_tagE
FNA:0,0,_ZNSt3__110__distanceB8ne180100INS_13move_iteratorIPNS_12basic_stringIcNS_11char_traitsIcEENS_9allocatorIcEEEEEEEENS_15iterator_traitsIT_E15difference_typeESB_SB_NS_26random_access_iterator_tagE
FNA:0,0,_ZNSt3__110__distanceB8ne180100INS_13move_iteratorIPPN7testing9TestSuiteEEEEENS_15iterator_traitsIT_E15difference_typeES8_S8_NS_26random_access_iterator_tagE
FNA:0,0,_ZNSt3__110__distanceB8ne180100INS_13move_iteratorIPPcEEEENS_15iterator_traitsIT_E15difference_typeES6_S6_NS_26random_access_iterator_tagE
FNA:0,0,_ZNSt3__110__distanceB8ne180100IPKPKcEENS_15iterator_traitsIT_E15difference_typeES6_S6_NS_26random_access_iterator_tagE
FNA:0,0,_ZNSt3__110__distanceB8ne180100IPKcEENS_15iterator_traitsIT_E15difference_typeES4_S4_NS_26random_access_iterator_tagE
FNA:0,14,_ZNSt3__110__distanceB8ne180100IPcEENS_15iterator_traitsIT_E15difference_typeES3_S3_NS_26random_access_iterator_tagE
FNL:1,46,47
FNA:1,0,_ZNSt3__18distanceB8ne180100INS_11__wrap_iterIPKNS_12basic_stringIcNS_11char_traitsIcEENS_9allocatorIcEEEEEEEENS_15iterator_traitsIT_E15difference_typeESC_SC_
FNA:1,78,_ZNSt3__18distanceB8ne180100INS_11__wrap_iterIPNS_12basic_stringIcNS_11char_traitsIcEENS_9allocatorIcEEEEEEEENS_15iterator_traitsIT_E15difference_typeESB_SB_
FNA:1,0,_ZNSt3__18distanceB8ne180100INS_13move_iteratorIPNS_12basic_stringIcNS_11char_traitsIcEENS_9allocatorIcEEEEEEEENS_15iterator_traitsIT_E15difference_typeESB_SB_
FNA:1,0,_ZNSt3__18distanceB8ne180100INS_13move_iteratorIPPN7testing9TestSuiteEEEEENS_15iterator_traitsIT_E15difference_typeES8_S8_
FNA:1,0,_ZNSt3__18distanceB8ne180100INS_13move_iteratorIPPcEEEENS_15iterator_traitsIT_E15difference_typeES6_S6_
FNA:1,0,_ZNSt3__18distanceB8ne180100IPKPKcEENS_15iterator_traitsIT_E15difference_typeES6_S6_
FNA:1,0,_ZNSt3__18distanceB8ne180100IPKcEENS_15iterator_traitsIT_E15difference_typeES4_S4_
FNA:1,14,_ZNSt3__18distanceB8ne180100IPcEENS_15iterator_traitsIT_E15difference_typeES3_S3_
FNF:2
FNH:2
DA:40,92
DA:41,92
DA:46,92
DA:47,92
LF:4
LH:4
end_of_record
TN:
SF:/Library/Developer/CommandLineTools/SDKs/MacOSX15.1.sdk/usr/include/c++/v1/__iterator/insert_iterator.h
FNL:0,64,65
FNA:0,78,_ZNSt3__115insert_iteratorINS_13unordered_setINS_12basic_stringIcNS_11char_traitsIcEENS_9allocatorIcEEEENS_4hashIS7_EENS_8equal_toIS7_EENS5_IS7_EEEEEC1B8ne180100ERSD_NS_21__hash_const_iteratorIPNS_11__hash_nodeIS7_PvEEEE
FNA:0,78,_ZNSt3__115insert_iteratorINS_13unordered_setINS_12basic_stringIcNS_11char_traitsIcEENS_9allocatorIcEEEENS_4hashIS7_EENS_8equal_toIS7_EENS5_IS7_EEEEEC2B8ne180100ERSD_NS_21__hash_const_iteratorIPNS_11__hash_nodeIS7_PvEEEE
FNA:0,78,_ZNSt3__115insert_iteratorINS_6vectorINS_12basic_stringIcNS_11char_traitsIcEENS_9allocatorIcEEEENS5_IS7_EEEEEC1B8ne180100ERS9_NS_11__wrap_iterIPS7_EE
FNA:0,78,_ZNSt3__115insert_iteratorINS_6vectorINS_12basic_stringIcNS_11char_traitsIcEENS_9allocatorIcEEEENS5_IS7_EEEEEC2B8ne180100ERS9_NS_11__wrap_iterIPS7_EE
FNL:1,74,77
FNA:1,25,_ZNSt3__115insert_iteratorINS_13unordered_setINS_12basic_stringIcNS_11char_traitsIcEENS_9allocatorIcEEEENS_4hashIS7_EENS_8equal_toIS7_EENS5_IS7_EEEEEaSB8ne180100EOS7_
FNA:1,105,_ZNSt3__115insert_iteratorINS_6vectorINS_12basic_stringIcNS_11char_traitsIcEENS_9allocatorIcEEEENS5_IS7_EEEEEaSB8ne180100EOS7_
FNL:2,80,80
FNA:2,25,_ZNSt3__115insert_iteratorINS_13unordered_setINS_12basic_stringIcNS_11char_traitsIcEENS_9allocatorIcEEEENS_4hashIS7_EENS_8equal_toIS7_EENS5_IS7_EEEEEdeB8ne180100Ev
FNA:2,105,_ZNSt3__115insert_iteratorINS_6vectorINS_12basic_stringIcNS_11char_traitsIcEENS_9allocatorIcEEEENS5_IS7_EEEEEdeB8ne180100Ev
FNL:3,81,81
FNA:3,25,_ZNSt3__115insert_iteratorINS_13unordered_setINS_12basic_stringIcNS_11char_traitsIcEENS_9allocatorIcEEEENS_4hashIS7_EENS_8equal_toIS7_EENS5_IS7_EEEEEppB8ne180100Ev
FNA:3,105,_ZNSt3__115insert_iteratorINS_6vectorINS_12basic_stringIcNS_11char_traitsIcEENS_9allocatorIcEEEENS5_IS7_EEEEEppB8ne180100Ev
FNL:4,87,88
FNA:4,78,_ZNSt3__18inserterB8ne180100INS_13unordered_setINS_12basic_stringIcNS_11char_traitsIcEENS_9allocatorIcEEEENS_4hashIS7_EENS_8equal_toIS7_EENS5_IS7_EEEEEENS_15insert_iteratorIT_EERSF_NSF_8iteratorE
FNA:4,78,_ZNSt3__18inserterB8ne180100INS_6vectorINS_12basic_stringIcNS_11char_traitsIcEENS_9allocatorIcEEEENS5_IS7_EEEEEENS_15insert_iteratorIT_EERSB_NSB_8iteratorE
FNF:5
FNH:5
DA:64,312
DA:65,312
DA:74,130
DA:75,130
DA:76,130
DA:77,130
DA:80,130
DA:81,130
DA:87,156
DA:88,156
LF:10
LH:10
end_of_record
TN:
SF:/Library/Developer/CommandLineTools/SDKs/MacOSX15.1.sdk/usr/include/c++/v1/__iterator/move_iterator.h
FNL:0,113,113
FNA:0,0,_ZNSt3__113move_iteratorIPNS_12basic_stringIcNS_11char_traitsIcEENS_9allocatorIcEEEEEC1B8ne180100ES7_
FNA:0,0,_ZNSt3__113move_iteratorIPNS_12basic_stringIcNS_11char_traitsIcEENS_9allocatorIcEEEEEC2B8ne180100ES7_
FNA:0,0,_ZNSt3__113move_iteratorIPPN7testing9TestSuiteEEC1B8ne180100ES4_
FNA:0,0,_ZNSt3__113move_iteratorIPPN7testing9TestSuiteEEC2B8ne180100ES4_
FNA:0,0,_ZNSt3__113move_iteratorIPPcEC1B8ne180100ES2_
FNA:0,0,_ZNSt3__113move_iteratorIPPcEC2B8ne180100ES2_
FNL:1,115,117
FNA:1,0,_ZNSt3__113move_iteratorIPNS_12basic_stringIcNS_11char_traitsIcEENS_9allocatorIcEEEEEppB8ne180100Ev
FNA:1,0,_ZNSt3__113move_iteratorIPPN7testing9TestSuiteEEppB8ne180100Ev
FNA:1,0,_ZNSt3__113move_iteratorIPPcEppB8ne180100Ev
FNL:2,173,173
FNA:2,0,_ZNKSt3__113move_iteratorIPNS_12basic_stringIcNS_11char_traitsIcEENS_9allocatorIcEEEEE4baseB8ne180100Ev
FNA:2,0,_ZNKSt3__113move_iteratorIPPN7testing9TestSuiteEE4baseB8ne180100Ev
FNA:2,0,_ZNKSt3__113move_iteratorIPPcE4baseB8ne180100Ev
FNL:3,175,176
FNA:3,0,_ZNKSt3__113move_iteratorIPNS_12basic_stringIcNS_11char_traitsIcEENS_9allocatorIcEEEEEdeB8ne180100Ev
FNA:3,0,_ZNKSt3__113move_iteratorIPPN7testing9TestSuiteEEdeB8ne180100Ev
FNA:3,0,_ZNKSt3__113move_iteratorIPPcEdeB8ne180100Ev
FNL:4,304,305
FNA:4,0,_ZNSt3__1miB8ne180100IPNS_12basic_stringIcNS_11char_traitsIcEENS_9allocatorIcEEEES7_EEDTmicldtfp_4baseEcldtfp0_4baseEERKNS_13move_iteratorIT_EERKNS9_IT0_EE
FNA:4,0,_ZNSt3__1miB8ne180100IPPN7testing9TestSuiteES4_EEDTmicldtfp_4baseEcldtfp0_4baseEERKNS_13move_iteratorIT_EERKNS6_IT0_EE
FNA:4,0,_ZNSt3__1miB8ne180100IPPcS2_EEDTmicldtfp_4baseEcldtfp0_4baseEERKNS_13move_iteratorIT_EERKNS4_IT0_EE
FNF:5
FNH:0
DA:113,0
DA:115,0
DA:116,0
DA:117,0
DA:173,0
DA:175,0
DA:176,0
DA:304,0
DA:305,0
LF:9
LH:0
end_of_record
TN:
SF:/Library/Developer/CommandLineTools/SDKs/MacOSX15.1.sdk/usr/include/c++/v1/__iterator/next.h
FNL:0,29,36
FNA:0,8,_ZNSt3__14nextB8ne180100IPcLi0EEET_S2_NS_15iterator_traitsIS2_E15difference_typeE
FNF:1
FNH:1
DA:29,8
DA:35,8
DA:36,8
LF:3
LH:3
end_of_record
TN:
SF:/Library/Developer/CommandLineTools/SDKs/MacOSX15.1.sdk/usr/include/c++/v1/__iterator/ostreambuf_iterator.h
FNL:0,53,53
FNA:0,11984,_ZNSt3__119ostreambuf_iteratorIcNS_11char_traitsIcEEEC1B8ne180100ERNS_13basic_ostreamIcS2_EE
FNA:0,11984,_ZNSt3__119ostreambuf_iteratorIcNS_11char_traitsIcEEEC2B8ne180100ERNS_13basic_ostreamIcS2_EE
FNL:1,63,63
FNA:1,11984,_ZNKSt3__119ostreambuf_iteratorIcNS_11char_traitsIcEEE6failedB8ne180100Ev
FNF:2
FNH:2
DA:53,23968
DA:63,11984
LF:2
LH:2
end_of_record
TN:
SF:/Library/Developer/CommandLineTools/SDKs/MacOSX15.1.sdk/usr/include/c++/v1/__iterator/prev.h
FNL:0,29,35
FNA:0,182,_ZNSt3__14prevB8ne180100INS_11__wrap_iterIPcEELi0EEET_S4_NS_15iterator_traitsIS4_E15difference_typeE
FNA:0,2,_ZNSt3__14prevB8ne180100IPcLi0EEET_S2_NS_15iterator_traitsIS2_E15difference_typeE
FNF:1
FNH:1
DA:29,184
DA:34,184
DA:35,184
LF:3
LH:3
end_of_record
TN:
SF:/Library/Developer/CommandLineTools/SDKs/MacOSX15.1.sdk/usr/include/c++/v1/__iterator/reverse_iterator.h
FNL:0,129,129
FNA:0,0,_ZNKSt3__116reverse_iteratorINS0_IPN7testing12TestPropertyEEEE4baseB8ne180100Ev
FNA:0,0,_ZNKSt3__116reverse_iteratorINS0_IPN7testing14TestPartResultEEEE4baseB8ne180100Ev
FNA:0,0,_ZNKSt3__116reverse_iteratorINS0_IPN7testing8internal9TraceInfoEEEE4baseB8ne180100Ev
FNA:0,0,_ZNKSt3__116reverse_iteratorINS0_IPNS_12basic_stringIcNS_11char_traitsIcEENS_9allocatorIcEEEEEEE4baseB8ne180100Ev
FNA:0,50,_ZNKSt3__116reverse_iteratorINS_11__wrap_iterIPPN7testing11EnvironmentEEEE4baseB8ne180100Ev
FNA:0,2600,_ZNKSt3__116reverse_iteratorINS_11__wrap_iterIPPN7testing9TestSuiteEEEE4baseB8ne180100Ev
FNA:0,0,_ZNKSt3__116reverse_iteratorIPN7testing12TestPropertyEE4baseB8ne180100Ev
FNA:0,0,_ZNKSt3__116reverse_iteratorIPN7testing14TestPartResultEE4baseB8ne180100Ev
FNA:0,0,_ZNKSt3__116reverse_iteratorIPN7testing8internal13edit_distance8EditTypeEE4baseB8ne180100Ev
FNA:0,0,_ZNKSt3__116reverse_iteratorIPN7testing8internal9TraceInfoEE4baseB8ne180100Ev
FNA:0,1114,_ZNKSt3__116reverse_iteratorIPNS_12basic_stringIcNS_11char_traitsIcEENS_9allocatorIcEEEEE4baseB8ne180100Ev
FNA:0,0,_ZNKSt3__116reverse_iteratorIPPN7testing11EnvironmentEE4baseB8ne180100Ev
FNA:0,78,_ZNKSt3__116reverse_iteratorIPPN7testing17TestEventListenerEE4baseB8ne180100Ev
FNA:0,2080,_ZNKSt3__116reverse_iteratorIPPN7testing8TestInfoEE4baseB8ne180100Ev
FNA:0,78,_ZNKSt3__116reverse_iteratorIPPN7testing9TestSuiteEE4baseB8ne180100Ev
FNA:0,0,_ZNKSt3__116reverse_iteratorIPPcE4baseB8ne180100Ev
FNA:0,2158,_ZNKSt3__116reverse_iteratorIPiE4baseB8ne180100Ev
FNA:0,0,_ZNKSt3__116reverse_iteratorIPmE4baseB8ne180100Ev
FNL:1,130,132
FNA:1,0,_ZNKSt3__116reverse_iteratorINS0_IPN7testing12TestPropertyEEEEdeB8ne180100Ev
FNA:1,0,_ZNKSt3__116reverse_iteratorINS0_IPN7testing14TestPartResultEEEEdeB8ne180100Ev
FNA:1,0,_ZNKSt3__116reverse_iteratorINS0_IPN7testing8internal9TraceInfoEEEEdeB8ne180100Ev
FNA:1,0,_ZNKSt3__116reverse_iteratorINS0_IPNS_12basic_stringIcNS_11char_traitsIcEENS_9allocatorIcEEEEEEEdeB8ne180100Ev
FNA:1,0,_ZNKSt3__116reverse_iteratorINS_11__wrap_iterIPPN7testing11EnvironmentEEEEdeB8ne180100Ev
FNA:1,1248,_ZNKSt3__116reverse_iteratorINS_11__wrap_iterIPPN7testing9TestSuiteEEEEdeB8ne180100Ev
FNA:1,0,_ZNKSt3__116reverse_iteratorIPN7testing12TestPropertyEEdeB8ne180100Ev
FNA:1,0,_ZNKSt3__116reverse_iteratorIPN7testing14TestPartResultEEdeB8ne180100Ev
FNA:1,0,_ZNKSt3__116reverse_iteratorIPN7testing8internal13edit_distance8EditTypeEEdeB8ne180100Ev
FNA:1,0,_ZNKSt3__116reverse_iteratorIPN7testing8internal9TraceInfoEEdeB8ne180100Ev
FNA:1,256,_ZNKSt3__116reverse_iteratorIPNS_12basic_stringIcNS_11char_traitsIcEENS_9allocatorIcEEEEEdeB8ne180100Ev
FNA:1,0,_ZNKSt3__116reverse_iteratorIPPN7testing11EnvironmentEEdeB8ne180100Ev
FNA:1,0,_ZNKSt3__116reverse_iteratorIPPN7testing17TestEventListenerEEdeB8ne180100Ev
FNA:1,1612,_ZNKSt3__116reverse_iteratorIPPN7testing8TestInfoEEdeB8ne180100Ev
FNA:1,0,_ZNKSt3__116reverse_iteratorIPPN7testing9TestSuiteEEdeB8ne180100Ev
FNA:1,0,_ZNKSt3__116reverse_iteratorIPPcEdeB8ne180100Ev
FNA:1,1612,_ZNKSt3__116reverse_iteratorIPiEdeB8ne180100Ev
FNA:1,0,_ZNKSt3__116reverse_iteratorIPmEdeB8ne180100Ev
FNL:2,146,146
FNA:2,0,_ZNKSt3__116reverse_iteratorINS0_IPN7testing12TestPropertyEEEEptB8ne180100Ev
FNA:2,0,_ZNKSt3__116reverse_iteratorINS0_IPN7testing14TestPartResultEEEEptB8ne180100Ev
FNA:2,0,_ZNKSt3__116reverse_iteratorINS0_IPN7testing8internal9TraceInfoEEEEptB8ne180100Ev
FNA:2,0,_ZNKSt3__116reverse_iteratorINS0_IPNS_12basic_stringIcNS_11char_traitsIcEENS_9allocatorIcEEEEEEEptB8ne180100Ev
FNA:2,0,_ZNKSt3__116reverse_iteratorIPN7testing12TestPropertyEEptB8ne180100Ev
FNA:2,0,_ZNKSt3__116reverse_iteratorIPN7testing14TestPartResultEEptB8ne180100Ev
FNA:2,0,_ZNKSt3__116reverse_iteratorIPN7testing8internal9TraceInfoEEptB8ne180100Ev
FNA:2,128,_ZNKSt3__116reverse_iteratorIPNS_12basic_stringIcNS_11char_traitsIcEENS_9allocatorIcEEEEEptB8ne180100Ev
FNL:3,149,151
FNA:3,0,_ZNSt3__116reverse_iteratorINS0_IPN7testing12TestPropertyEEEEppB8ne180100Ev
FNA:3,0,_ZNSt3__116reverse_iteratorINS0_IPN7testing14TestPartResultEEEEppB8ne180100Ev
FNA:3,0,_ZNSt3__116reverse_iteratorINS0_IPN7testing8internal9TraceInfoEEEEppB8ne180100Ev
FNA:3,0,_ZNSt3__116reverse_iteratorINS0_IPNS_12basic_stringIcNS_11char_traitsIcEENS_9allocatorIcEEEEEEEppB8ne180100Ev
FNA:3,0,_ZNSt3__116reverse_iteratorINS_11__wrap_iterIPPN7testing11EnvironmentEEEEppB8ne180100Ev
FNA:3,0,_ZNSt3__116reverse_iteratorINS_11__wrap_iterIPPN7testing9TestSuiteEEEEppB8ne180100Ev
FNA:3,0,_ZNSt3__116reverse_iteratorIPN7testing12TestPropertyEEppB8ne180100Ev
FNA:3,0,_ZNSt3__116reverse_iteratorIPN7testing14TestPartResultEEppB8ne180100Ev
FNA:3,0,_ZNSt3__116reverse_iteratorIPN7testing8internal13edit_distance8EditTypeEEppB8ne180100Ev
FNA:3,0,_ZNSt3__116reverse_iteratorIPN7testing8internal9TraceInfoEEppB8ne180100Ev
FNA:3,256,_ZNSt3__116reverse_iteratorIPNS_12basic_stringIcNS_11char_traitsIcEENS_9allocatorIcEEEEEppB8ne180100Ev
FNA:3,0,_ZNSt3__116reverse_iteratorIPPN7testing11EnvironmentEEppB8ne180100Ev
FNA:3,0,_ZNSt3__116reverse_iteratorIPPN7testing17TestEventListenerEEppB8ne180100Ev
FNA:3,1612,_ZNSt3__116reverse_iteratorIPPN7testing8TestInfoEEppB8ne180100Ev
FNA:3,0,_ZNSt3__116reverse_iteratorIPPN7testing9TestSuiteEEppB8ne180100Ev
FNA:3,0,_ZNSt3__116reverse_iteratorIPPcEppB8ne180100Ev
FNA:3,1612,_ZNSt3__116reverse_iteratorIPiEppB8ne180100Ev
FNA:3,0,_ZNSt3__116reverse_iteratorIPmEppB8ne180100Ev
FNL:4,158,160
FNA:4,0,_ZNSt3__116reverse_iteratorIPN7testing12TestPropertyEEmmB8ne180100Ev
FNA:4,0,_ZNSt3__116reverse_iteratorIPN7testing14TestPartResultEEmmB8ne180100Ev
FNA:4,0,_ZNSt3__116reverse_iteratorIPN7testing8internal9TraceInfoEEmmB8ne180100Ev
FNA:4,0,_ZNSt3__116reverse_iteratorIPNS_12basic_stringIcNS_11char_traitsIcEENS_9allocatorIcEEEEEmmB8ne180100Ev
FNL:5,231,238
FNA:5,25,_ZNSt3__1neB8ne180100INS_11__wrap_iterIPPN7testing11EnvironmentEEES6_EEbRKNS_16reverse_iteratorIT_EERKNS7_IT0_EE
FNA:5,1300,_ZNSt3__1neB8ne180100INS_11__wrap_iterIPPN7testing9TestSuiteEEES6_EEbRKNS_16reverse_iteratorIT_EERKNS7_IT0_EE
FNA:5,0,_ZNSt3__1neB8ne180100INS_16reverse_iteratorIPN7testing12TestPropertyEEES5_EEbRKNS1_IT_EERKNS1_IT0_EE
FNA:5,0,_ZNSt3__1neB8ne180100INS_16reverse_iteratorIPN7testing14TestPartResultEEES5_EEbRKNS1_IT_EERKNS1_IT0_EE
FNA:5,0,_ZNSt3__1neB8ne180100INS_16reverse_iteratorIPN7testing8internal9TraceInfoEEES6_EEbRKNS1_IT_EERKNS1_IT0_EE
FNA:5,0,_ZNSt3__1neB8ne180100INS_16reverse_iteratorIPNS_12basic_stringIcNS_11char_traitsIcEENS_9allocatorIcEEEEEES9_EEbRKNS1_IT_EERKNS1_IT0_EE
FNA:5,0,_ZNSt3__1neB8ne180100IPN7testing12TestPropertyES3_EEbRKNS_16reverse_iteratorIT_EERKNS4_IT0_EE
FNA:5,0,_ZNSt3__1neB8ne180100IPN7testing14TestPartResultES3_EEbRKNS_16reverse_iteratorIT_EERKNS4_IT0_EE
FNA:5,0,_ZNSt3__1neB8ne180100IPN7testing8internal13edit_distance8EditTypeES5_EEbRKNS_16reverse_iteratorIT_EERKNS6_IT0_EE
FNA:5,0,_ZNSt3__1neB8ne180100IPN7testing8internal9TraceInfoES4_EEbRKNS_16reverse_iteratorIT_EERKNS5_IT0_EE
FNA:5,414,_ZNSt3__1neB8ne180100IPNS_12basic_stringIcNS_11char_traitsIcEENS_9allocatorIcEEEES7_EEbRKNS_16reverse_iteratorIT_EERKNS8_IT0_EE
FNA:5,0,_ZNSt3__1neB8ne180100IPPN7testing11EnvironmentES4_EEbRKNS_16reverse_iteratorIT_EERKNS5_IT0_EE
FNA:5,26,_ZNSt3__1neB8ne180100IPPN7testing17TestEventListenerES4_EEbRKNS_16reverse_iteratorIT_EERKNS5_IT0_EE
FNA:5,962,_ZNSt3__1neB8ne180100IPPN7testing8TestInfoES4_EEbRKNS_16reverse_iteratorIT_EERKNS5_IT0_EE
FNA:5,26,_ZNSt3__1neB8ne180100IPPN7testing9TestSuiteES4_EEbRKNS_16reverse_iteratorIT_EERKNS5_IT0_EE
FNA:5,0,_ZNSt3__1neB8ne180100IPPcS2_EEbRKNS_16reverse_iteratorIT_EERKNS3_IT0_EE
FNA:5,988,_ZNSt3__1neB8ne180100IPiS1_EEbRKNS_16reverse_iteratorIT_EERKNS2_IT0_EE
FNA:5,0,_ZNSt3__1neB8ne180100IPmS1_EEbRKNS_16reverse_iteratorIT_EERKNS2_IT0_EE
FNL:6,97,97
FNA:6,0,_ZNSt3__116reverse_iteratorINS0_IPN7testing12TestPropertyEEEEC1B8ne180100ES4_
FNA:6,0,_ZNSt3__116reverse_iteratorINS0_IPN7testing12TestPropertyEEEEC2B8ne180100ES4_
FNA:6,0,_ZNSt3__116reverse_iteratorINS0_IPN7testing14TestPartResultEEEEC1B8ne180100ES4_
FNA:6,0,_ZNSt3__116reverse_iteratorINS0_IPN7testing14TestPartResultEEEEC2B8ne180100ES4_
FNA:6,0,_ZNSt3__116reverse_iteratorINS0_IPN7testing8internal9TraceInfoEEEEC1B8ne180100ES5_
FNA:6,0,_ZNSt3__116reverse_iteratorINS0_IPN7testing8internal9TraceInfoEEEEC2B8ne180100ES5_
FNA:6,0,_ZNSt3__116reverse_iteratorINS0_IPNS_12basic_stringIcNS_11char_traitsIcEENS_9allocatorIcEEEEEEEC1B8ne180100ES8_
FNA:6,0,_ZNSt3__116reverse_iteratorINS0_IPNS_12basic_stringIcNS_11char_traitsIcEENS_9allocatorIcEEEEEEEC2B8ne180100ES8_
FNA:6,50,_ZNSt3__116reverse_iteratorINS_11__wrap_iterIPPN7testing11EnvironmentEEEEC1B8ne180100ES6_
FNA:6,50,_ZNSt3__116reverse_iteratorINS_11__wrap_iterIPPN7testing11EnvironmentEEEEC2B8ne180100ES6_
FNA:6,1950,_ZNSt3__116reverse_iteratorINS_11__wrap_iterIPPN7testing9TestSuiteEEEEC1B8ne180100ES6_
FNA:6,1950,_ZNSt3__116reverse_iteratorINS_11__wrap_iterIPPN7testing9TestSuiteEEEEC2B8ne180100ES6_
FNA:6,0,_ZNSt3__116reverse_iteratorIPN7testing12TestPropertyEEC1B8ne180100ES3_
FNA:6,0,_ZNSt3__116reverse_iteratorIPN7testing12TestPropertyEEC2B8ne180100ES3_
FNA:6,0,_ZNSt3__116reverse_iteratorIPN7testing14TestPartResultEEC1B8ne180100ES3_
FNA:6,0,_ZNSt3__116reverse_iteratorIPN7testing14TestPartResultEEC2B8ne180100ES3_
FNA:6,0,_ZNSt3__116reverse_iteratorIPN7testing8internal13edit_distance8EditTypeEEC1B8ne180100ES5_
FNA:6,0,_ZNSt3__116reverse_iteratorIPN7testing8internal13edit_distance8EditTypeEEC2B8ne180100ES5_
FNA:6,0,_ZNSt3__116reverse_iteratorIPN7testing8internal9TraceInfoEEC1B8ne180100ES4_
FNA:6,0,_ZNSt3__116reverse_iteratorIPN7testing8internal9TraceInfoEEC2B8ne180100ES4_
FNA:6,858,_ZNSt3__116reverse_iteratorIPNS_12basic_stringIcNS_11char_traitsIcEENS_9allocatorIcEEEEEC1B8ne180100ES7_
FNA:6,858,_ZNSt3__116reverse_iteratorIPNS_12basic_stringIcNS_11char_traitsIcEENS_9allocatorIcEEEEEC2B8ne180100ES7_
FNA:6,0,_ZNSt3__116reverse_iteratorIPPN7testing11EnvironmentEEC1B8ne180100ES4_
FNA:6,0,_ZNSt3__116reverse_iteratorIPPN7testing11EnvironmentEEC2B8ne180100ES4_
FNA:6,78,_ZNSt3__116reverse_iteratorIPPN7testing17TestEventListenerEEC1B8ne180100ES4_
FNA:6,78,_ZNSt3__116reverse_iteratorIPPN7testing17TestEventListenerEEC2B8ne180100ES4_
FNA:6,468,_ZNSt3__116reverse_iteratorIPPN7testing8TestInfoEEC1B8ne180100ES4_
FNA:6,468,_ZNSt3__116reverse_iteratorIPPN7testing8TestInfoEEC2B8ne180100ES4_
FNA:6,78,_ZNSt3__116reverse_iteratorIPPN7testing9TestSuiteEEC1B8ne180100ES4_
FNA:6,78,_ZNSt3__116reverse_iteratorIPPN7testing9TestSuiteEEC2B8ne180100ES4_
FNA:6,0,_ZNSt3__116reverse_iteratorIPPcEC1B8ne180100ES2_
FNA:6,0,_ZNSt3__116reverse_iteratorIPPcEC2B8ne180100ES2_
FNA:6,546,_ZNSt3__116reverse_iteratorIPiEC1B8ne180100ES1_
FNA:6,546,_ZNSt3__116reverse_iteratorIPiEC2B8ne180100ES1_
FNA:6,0,_ZNSt3__116reverse_iteratorIPmEC1B8ne180100ES1_
FNA:6,0,_ZNSt3__116reverse_iteratorIPmEC2B8ne180100ES1_
FNF:7
FNH:6
DA:97,8056
DA:129,8158
DA:130,4728
DA:131,4728
DA:132,4728
DA:146,128
DA:149,3480
DA:150,3480
DA:151,3480
DA:158,0
DA:159,0
DA:160,0
DA:231,3741
DA:238,3741
LF:14
LH:11
end_of_record
TN:
SF:/Library/Developer/CommandLineTools/SDKs/MacOSX15.1.sdk/usr/include/c++/v1/__iterator/wrap_iter.h
FNL:0,108,109
FNA:0,225,_ZNSt3__1eqB8ne180100IPKN7testing14TestPartResultEEEbRKNS_11__wrap_iterIT_EES9_
FNA:0,0,_ZNSt3__1eqB8ne180100IPKN7testing8internal13edit_distance8EditTypeEEEbRKNS_11__wrap_iterIT_EESB_
FNA:0,4653,_ZNSt3__1eqB8ne180100IPKNS_12basic_stringIcNS_11char_traitsIcEENS_9allocatorIcEEEEEEbRKNS_11__wrap_iterIT_EESD_
FNA:0,25,_ZNSt3__1eqB8ne180100IPKPN7testing11EnvironmentEEEbRKNS_11__wrap_iterIT_EESA_
FNA:0,0,_ZNSt3__1eqB8ne180100IPKPN7testing17TestEventListenerEEEbRKNS_11__wrap_iterIT_EESA_
FNA:0,6500,_ZNSt3__1eqB8ne180100IPKPN7testing8TestInfoEEEbRKNS_11__wrap_iterIT_EESA_
FNA:0,250,_ZNSt3__1eqB8ne180100IPKPN7testing9TestSuiteEEEbRKNS_11__wrap_iterIT_EESA_
FNA:0,1185,_ZNSt3__1eqB8ne180100IPKcEEbRKNS_11__wrap_iterIT_EES7_
FNA:0,0,_ZNSt3__1eqB8ne180100IPN7testing12TestPropertyEEEbRKNS_11__wrap_iterIT_EES8_
FNA:0,0,_ZNSt3__1eqB8ne180100IPN7testing8internal13edit_distance8EditTypeEEEbRKNS_11__wrap_iterIT_EESA_
FNA:0,208,_ZNSt3__1eqB8ne180100IPNS_12basic_stringIcNS_11char_traitsIcEENS_9allocatorIcEEEEEEbRKNS_11__wrap_iterIT_EESC_
FNA:0,25,_ZNSt3__1eqB8ne180100IPPN7testing11EnvironmentEEEbRKNS_11__wrap_iterIT_EES9_
FNA:0,26,_ZNSt3__1eqB8ne180100IPPN7testing8internal30ParameterizedTestSuiteInfoBaseEEEbRKNS_11__wrap_iterIT_EESA_
FNA:0,1354,_ZNSt3__1eqB8ne180100IPPN7testing9TestSuiteEEEbRKNS_11__wrap_iterIT_EES9_
FNA:0,0,_ZNSt3__1eqB8ne180100IPPcEEbRKNS_11__wrap_iterIT_EES7_
FNA:0,1482,_ZNSt3__1eqB8ne180100IPcEEbRKNS_11__wrap_iterIT_EES6_
FNL:1,114,115
FNA:1,0,_ZNSt3__1eqB8ne180100IPKNS_12basic_stringIcNS_11char_traitsIcEENS_9allocatorIcEEEEPS6_EEbRKNS_11__wrap_iterIT_EERKNSA_IT0_EE
FNL:2,120,121
FNA:2,0,_ZNSt3__1ltB8ne180100IPN7testing8internal13edit_distance8EditTypeEEEbRKNS_11__wrap_iterIT_EESA_
FNL:3,132,133
FNA:3,225,_ZNSt3__1neB8ne180100IPKN7testing14TestPartResultEEEbRKNS_11__wrap_iterIT_EES9_
FNA:3,0,_ZNSt3__1neB8ne180100IPKN7testing8internal13edit_distance8EditTypeEEEbRKNS_11__wrap_iterIT_EESB_
FNA:3,4653,_ZNSt3__1neB8ne180100IPKNS_12basic_stringIcNS_11char_traitsIcEENS_9allocatorIcEEEEEEbRKNS_11__wrap_iterIT_EESD_
FNA:3,25,_ZNSt3__1neB8ne180100IPKPN7testing11EnvironmentEEEbRKNS_11__wrap_iterIT_EESA_
FNA:3,0,_ZNSt3__1neB8ne180100IPKPN7testing17TestEventListenerEEEbRKNS_11__wrap_iterIT_EESA_
FNA:3,6500,_ZNSt3__1neB8ne180100IPKPN7testing8TestInfoEEEbRKNS_11__wrap_iterIT_EESA_
FNA:3,250,_ZNSt3__1neB8ne180100IPKPN7testing9TestSuiteEEEbRKNS_11__wrap_iterIT_EESA_
FNA:3,1185,_ZNSt3__1neB8ne180100IPKcEEbRKNS_11__wrap_iterIT_EES7_
FNA:3,0,_ZNSt3__1neB8ne180100IPN7testing12TestPropertyEEEbRKNS_11__wrap_iterIT_EES8_
FNA:3,0,_ZNSt3__1neB8ne180100IPN7testing8internal13edit_distance8EditTypeEEEbRKNS_11__wrap_iterIT_EESA_
FNA:3,25,_ZNSt3__1neB8ne180100IPPN7testing11EnvironmentEEEbRKNS_11__wrap_iterIT_EES9_
FNA:3,26,_ZNSt3__1neB8ne180100IPPN7testing8internal30ParameterizedTestSuiteInfoBaseEEEbRKNS_11__wrap_iterIT_EESA_
FNA:3,1354,_ZNSt3__1neB8ne180100IPPN7testing9TestSuiteEEEbRKNS_11__wrap_iterIT_EES9_
FNA:3,0,_ZNSt3__1neB8ne180100IPPcEEbRKNS_11__wrap_iterIT_EES7_
FNA:3,1274,_ZNSt3__1neB8ne180100IPcEEbRKNS_11__wrap_iterIT_EES6_
FNL:4,138,139
FNA:4,0,_ZNSt3__1neB8ne180100IPKNS_12basic_stringIcNS_11char_traitsIcEENS_9allocatorIcEEEEPS6_EEbRKNS_11__wrap_iterIT_EERKNSA_IT0_EE
FNL:5,182,189
FNA:5,0,_ZNSt3__1miB8ne180100IPKN7testing8internal13edit_distance8EditTypeES6_EEDTmicldtfp_4baseEcldtfp0_4baseEERKNS_11__wrap_iterIT_EERKNS8_IT0_EE
FNA:5,105,_ZNSt3__1miB8ne180100IPKNS_12basic_stringIcNS_11char_traitsIcEENS_9allocatorIcEEEEPS6_EEDTmicldtfp_4baseEcldtfp0_4baseEERKNS_11__wrap_iterIT_EERKNSB_IT0_EE
FNA:5,0,_ZNSt3__1miB8ne180100IPKNS_12basic_stringIcNS_11char_traitsIcEENS_9allocatorIcEEEES8_EEDTmicldtfp_4baseEcldtfp0_4baseEERKNS_11__wrap_iterIT_EERKNSA_IT0_EE
FNA:5,0,_ZNSt3__1miB8ne180100IPKPN7testing17TestEventListenerES5_EEDTmicldtfp_4baseEcldtfp0_4baseEERKNS_11__wrap_iterIT_EERKNS7_IT0_EE
FNA:5,0,_ZNSt3__1miB8ne180100IPKPN7testing9TestSuiteEPS3_EEDTmicldtfp_4baseEcldtfp0_4baseEERKNS_11__wrap_iterIT_EERKNS8_IT0_EE
FNA:5,0,_ZNSt3__1miB8ne180100IPKPcPS1_EEDTmicldtfp_4baseEcldtfp0_4baseEERKNS_11__wrap_iterIT_EERKNS6_IT0_EE
FNA:5,26,_ZNSt3__1miB8ne180100IPKcPcEEDTmicldtfp_4baseEcldtfp0_4baseEERKNS_11__wrap_iterIT_EERKNS5_IT0_EE
FNA:5,26,_ZNSt3__1miB8ne180100IPKcS2_EEDTmicldtfp_4baseEcldtfp0_4baseEERKNS_11__wrap_iterIT_EERKNS4_IT0_EE
FNA:5,78,_ZNSt3__1miB8ne180100IPNS_12basic_stringIcNS_11char_traitsIcEENS_9allocatorIcEEEES7_EEDTmicldtfp_4baseEcldtfp0_4baseEERKNS_11__wrap_iterIT_EERKNS9_IT0_EE
FNL:6,210,211
FNA:6,0,_ZNSt3__114pointer_traitsINS_11__wrap_iterIPKNS_12basic_stringIcNS_11char_traitsIcEENS_9allocatorIcEEEEEEE10to_addressB8ne180100ESA_
FNA:6,468,_ZNSt3__114pointer_traitsINS_11__wrap_iterIPNS_12basic_stringIcNS_11char_traitsIcEENS_9allocatorIcEEEEEEE10to_addressB8ne180100ES9_
FNL:7,46,47
FNA:7,105,_ZNSt3__111__wrap_iterIPKNS_12basic_stringIcNS_11char_traitsIcEENS_9allocatorIcEEEEEC1B8ne180100IPS6_Li0EEERKNS0_IT_EE
FNA:7,105,_ZNSt3__111__wrap_iterIPKNS_12basic_stringIcNS_11char_traitsIcEENS_9allocatorIcEEEEEC2B8ne180100IPS6_Li0EEERKNS0_IT_EE
FNA:7,0,_ZNSt3__111__wrap_iterIPKPN7testing17TestEventListenerEEC1B8ne180100IPS3_Li0EEERKNS0_IT_EE
FNA:7,0,_ZNSt3__111__wrap_iterIPKPN7testing17TestEventListenerEEC2B8ne180100IPS3_Li0EEERKNS0_IT_EE
FNA:7,0,_ZNSt3__111__wrap_iterIPKPN7testing9TestSuiteEEC1B8ne180100IPS3_Li0EEERKNS0_IT_EE
FNA:7,0,_ZNSt3__111__wrap_iterIPKPN7testing9TestSuiteEEC2B8ne180100IPS3_Li0EEERKNS0_IT_EE
FNA:7,0,_ZNSt3__111__wrap_iterIPKPcEC1B8ne180100IPS1_Li0EEERKNS0_IT_EE
FNA:7,0,_ZNSt3__111__wrap_iterIPKPcEC2B8ne180100IPS1_Li0EEERKNS0_IT_EE
FNA:7,52,_ZNSt3__111__wrap_iterIPKcEC1B8ne180100IPcLi0EEERKNS0_IT_EE
FNA:7,52,_ZNSt3__111__wrap_iterIPKcEC2B8ne180100IPcLi0EEERKNS0_IT_EE
FNL:8,48,48
FNA:8,0,_ZNKSt3__111__wrap_iterIPKN7testing14TestPartResultEEdeB8ne180100Ev
FNA:8,0,_ZNKSt3__111__wrap_iterIPKN7testing8internal13edit_distance8EditTypeEEdeB8ne180100Ev
FNA:8,2677,_ZNKSt3__111__wrap_iterIPKNS_12basic_stringIcNS_11char_traitsIcEENS_9allocatorIcEEEEEdeB8ne180100Ev
FNA:8,0,_ZNKSt3__111__wrap_iterIPKPN7testing11EnvironmentEEdeB8ne180100Ev
FNA:8,0,_ZNKSt3__111__wrap_iterIPKPN7testing17TestEventListenerEEdeB8ne180100Ev
FNA:8,6250,_ZNKSt3__111__wrap_iterIPKPN7testing8TestInfoEEdeB8ne180100Ev
FNA:8,125,_ZNKSt3__111__wrap_iterIPKPN7testing9TestSuiteEEdeB8ne180100Ev
FNA:8,1160,_ZNKSt3__111__wrap_iterIPKcEdeB8ne180100Ev
FNA:8,0,_ZNKSt3__111__wrap_iterIPN7testing12TestPropertyEEdeB8ne180100Ev
FNA:8,0,_ZNKSt3__111__wrap_iterIPN7testing8internal13edit_distance8EditTypeEEdeB8ne180100Ev
FNA:8,130,_ZNKSt3__111__wrap_iterIPNS_12basic_stringIcNS_11char_traitsIcEENS_9allocatorIcEEEEEdeB8ne180100Ev
FNA:8,0,_ZNKSt3__111__wrap_iterIPPN7testing11EnvironmentEEdeB8ne180100Ev
FNA:8,0,_ZNKSt3__111__wrap_iterIPPN7testing8internal30ParameterizedTestSuiteInfoBaseEEdeB8ne180100Ev
FNA:8,1275,_ZNKSt3__111__wrap_iterIPPN7testing9TestSuiteEEdeB8ne180100Ev
FNA:8,0,_ZNKSt3__111__wrap_iterIPPcEdeB8ne180100Ev
FNA:8,2678,_ZNKSt3__111__wrap_iterIPcEdeB8ne180100Ev
FNL:9,49,50
FNA:9,0,_ZNKSt3__111__wrap_iterIPKNS_12basic_stringIcNS_11char_traitsIcEENS_9allocatorIcEEEEEptB8ne180100Ev
FNA:9,0,_ZNKSt3__111__wrap_iterIPN7testing12TestPropertyEEptB8ne180100Ev
FNL:10,52,54
FNA:10,0,_ZNSt3__111__wrap_iterIPKN7testing14TestPartResultEEppB8ne180100Ev
FNA:10,0,_ZNSt3__111__wrap_iterIPKN7testing8internal13edit_distance8EditTypeEEppB8ne180100Ev
FNA:10,2652,_ZNSt3__111__wrap_iterIPKNS_12basic_stringIcNS_11char_traitsIcEENS_9allocatorIcEEEEEppB8ne180100Ev
FNA:10,0,_ZNSt3__111__wrap_iterIPKPN7testing11EnvironmentEEppB8ne180100Ev
FNA:10,0,_ZNSt3__111__wrap_iterIPKPN7testing17TestEventListenerEEppB8ne180100Ev
FNA:10,6250,_ZNSt3__111__wrap_iterIPKPN7testing8TestInfoEEppB8ne180100Ev
FNA:10,125,_ZNSt3__111__wrap_iterIPKPN7testing9TestSuiteEEppB8ne180100Ev
FNA:10,1055,_ZNSt3__111__wrap_iterIPKcEppB8ne180100Ev
FNA:10,0,_ZNSt3__111__wrap_iterIPN7testing12TestPropertyEEppB8ne180100Ev
FNA:10,0,_ZNSt3__111__wrap_iterIPN7testing8internal13edit_distance8EditTypeEEppB8ne180100Ev
FNA:10,210,_ZNSt3__111__wrap_iterIPNS_12basic_stringIcNS_11char_traitsIcEENS_9allocatorIcEEEEEppB8ne180100Ev
FNA:10,0,_ZNSt3__111__wrap_iterIPPN7testing8internal30ParameterizedTestSuiteInfoBaseEEppB8ne180100Ev
FNA:10,27,_ZNSt3__111__wrap_iterIPPN7testing9TestSuiteEEppB8ne180100Ev
FNA:10,0,_ZNSt3__111__wrap_iterIPPcEppB8ne180100Ev
FNA:10,2496,_ZNSt3__111__wrap_iterIPcEppB8ne180100Ev
FNL:11,56,59
FNA:11,1248,_ZNSt3__111__wrap_iterIPcEppB8ne180100Ei
FNL:12,62,64
FNA:12,0,_ZNSt3__111__wrap_iterIPN7testing8internal13edit_distance8EditTypeEEmmB8ne180100Ev
FNA:12,25,_ZNSt3__111__wrap_iterIPNS_12basic_stringIcNS_11char_traitsIcEENS_9allocatorIcEEEEEmmB8ne180100Ev
FNA:12,0,_ZNSt3__111__wrap_iterIPPN7testing11EnvironmentEEmmB8ne180100Ev
FNA:12,1248,_ZNSt3__111__wrap_iterIPPN7testing9TestSuiteEEmmB8ne180100Ev
FNA:12,0,_ZNSt3__111__wrap_iterIPcEmmB8ne180100Ev
FNL:13,71,74
FNA:13,0,_ZNKSt3__111__wrap_iterIPKN7testing8internal13edit_distance8EditTypeEEplB8ne180100El
FNA:13,0,_ZNKSt3__111__wrap_iterIPKNS_12basic_stringIcNS_11char_traitsIcEENS_9allocatorIcEEEEEplB8ne180100El
FNA:13,156,_ZNKSt3__111__wrap_iterIPNS_12basic_stringIcNS_11char_traitsIcEENS_9allocatorIcEEEEEplB8ne180100El
FNA:13,0,_ZNKSt3__111__wrap_iterIPPN7testing17TestEventListenerEEplB8ne180100El
FNA:13,0,_ZNKSt3__111__wrap_iterIPPN7testing9TestSuiteEEplB8ne180100El
FNA:13,0,_ZNKSt3__111__wrap_iterIPPcEplB8ne180100El
FNA:13,26,_ZNKSt3__111__wrap_iterIPcEplB8ne180100El
FNL:14,76,78
FNA:14,0,_ZNSt3__111__wrap_iterIPKN7testing8internal13edit_distance8EditTypeEEpLB8ne180100El
FNA:14,0,_ZNSt3__111__wrap_iterIPKNS_12basic_stringIcNS_11char_traitsIcEENS_9allocatorIcEEEEEpLB8ne180100El
FNA:14,156,_ZNSt3__111__wrap_iterIPNS_12basic_stringIcNS_11char_traitsIcEENS_9allocatorIcEEEEEpLB8ne180100El
FNA:14,0,_ZNSt3__111__wrap_iterIPPN7testing17TestEventListenerEEpLB8ne180100El
FNA:14,0,_ZNSt3__111__wrap_iterIPPN7testing9TestSuiteEEpLB8ne180100El
FNA:14,0,_ZNSt3__111__wrap_iterIPPcEpLB8ne180100El
FNA:14,208,_ZNSt3__111__wrap_iterIPcEpLB8ne180100El
FNL:15,80,81
FNA:15,0,_ZNKSt3__111__wrap_iterIPPcEmiB8ne180100El
FNL:16,91,91
FNA:16,450,_ZNKSt3__111__wrap_iterIPKN7testing14TestPartResultEE4baseB8ne180100Ev
FNA:16,0,_ZNKSt3__111__wrap_iterIPKN7testing8internal13edit_distance8EditTypeEE4baseB8ne180100Ev
FNA:16,9411,_ZNKSt3__111__wrap_iterIPKNS_12basic_stringIcNS_11char_traitsIcEENS_9allocatorIcEEEEE4baseB8ne180100Ev
FNA:16,50,_ZNKSt3__111__wrap_iterIPKPN7testing11EnvironmentEE4baseB8ne180100Ev
FNA:16,0,_ZNKSt3__111__wrap_iterIPKPN7testing17TestEventListenerEE4baseB8ne180100Ev
FNA:16,13000,_ZNKSt3__111__wrap_iterIPKPN7testing8TestInfoEE4baseB8ne180100Ev
FNA:16,500,_ZNKSt3__111__wrap_iterIPKPN7testing9TestSuiteEE4baseB8ne180100Ev
FNA:16,0,_ZNKSt3__111__wrap_iterIPKPcE4baseB8ne180100Ev
FNA:16,2448,_ZNKSt3__111__wrap_iterIPKcE4baseB8ne180100Ev
FNA:16,0,_ZNKSt3__111__wrap_iterIPN7testing12TestPropertyEE4baseB8ne180100Ev
FNA:16,0,_ZNKSt3__111__wrap_iterIPN7testing8internal13edit_distance8EditTypeEE4baseB8ne180100Ev
FNA:16,1250,_ZNKSt3__111__wrap_iterIPNS_12basic_stringIcNS_11char_traitsIcEENS_9allocatorIcEEEEE4baseB8ne180100Ev
FNA:16,50,_ZNKSt3__111__wrap_iterIPPN7testing11EnvironmentEE4baseB8ne180100Ev
FNA:16,0,_ZNKSt3__111__wrap_iterIPPN7testing17TestEventListenerEE4baseB8ne180100Ev
FNA:16,52,_ZNKSt3__111__wrap_iterIPPN7testing8internal30ParameterizedTestSuiteInfoBaseEE4baseB8ne180100Ev
FNA:16,2708,_ZNKSt3__111__wrap_iterIPPN7testing9TestSuiteEE4baseB8ne180100Ev
FNA:16,0,_ZNKSt3__111__wrap_iterIPPcE4baseB8ne180100Ev
FNA:16,3042,_ZNKSt3__111__wrap_iterIPcE4baseB8ne180100Ev
FNL:17,94,94
FNA:17,450,_ZNSt3__111__wrap_iterIPKN7testing14TestPartResultEEC1B8ne180100ES4_
FNA:17,450,_ZNSt3__111__wrap_iterIPKN7testing14TestPartResultEEC2B8ne180100ES4_
FNA:17,0,_ZNSt3__111__wrap_iterIPKN7testing8internal13edit_distance8EditTypeEEC1B8ne180100ES6_
FNA:17,0,_ZNSt3__111__wrap_iterIPKN7testing8internal13edit_distance8EditTypeEEC2B8ne180100ES6_
FNA:17,4002,_ZNSt3__111__wrap_iterIPKNS_12basic_stringIcNS_11char_traitsIcEENS_9allocatorIcEEEEEC1B8ne180100ES8_
FNA:17,4002,_ZNSt3__111__wrap_iterIPKNS_12basic_stringIcNS_11char_traitsIcEENS_9allocatorIcEEEEEC2B8ne180100ES8_
FNA:17,50,_ZNSt3__111__wrap_iterIPKPN7testing11EnvironmentEEC1B8ne180100ES5_
FNA:17,50,_ZNSt3__111__wrap_iterIPKPN7testing11EnvironmentEEC2B8ne180100ES5_
FNA:17,0,_ZNSt3__111__wrap_iterIPKPN7testing17TestEventListenerEEC1B8ne180100ES5_
FNA:17,0,_ZNSt3__111__wrap_iterIPKPN7testing17TestEventListenerEEC2B8ne180100ES5_
FNA:17,6125,_ZNSt3__111__wrap_iterIPKPN7testing8TestInfoEEC1B8ne180100ES5_
FNA:17,6125,_ZNSt3__111__wrap_iterIPKPN7testing8TestInfoEEC2B8ne180100ES5_
FNA:17,350,_ZNSt3__111__wrap_iterIPKPN7testing9TestSuiteEEC1B8ne180100ES5_
FNA:17,350,_ZNSt3__111__wrap_iterIPKPN7testing9TestSuiteEEC2B8ne180100ES5_
FNA:17,260,_ZNSt3__111__wrap_iterIPKcEC1B8ne180100ES2_
FNA:17,260,_ZNSt3__111__wrap_iterIPKcEC2B8ne180100ES2_
FNA:17,0,_ZNSt3__111__wrap_iterIPN7testing12TestPropertyEEC1B8ne180100ES3_
FNA:17,0,_ZNSt3__111__wrap_iterIPN7testing12TestPropertyEEC2B8ne180100ES3_
FNA:17,0,_ZNSt3__111__wrap_iterIPN7testing8internal13edit_distance8EditTypeEEC1B8ne180100ES5_
FNA:17,0,_ZNSt3__111__wrap_iterIPN7testing8internal13edit_distance8EditTypeEEC2B8ne180100ES5_
FNA:17,678,_ZNSt3__111__wrap_iterIPNS_12basic_stringIcNS_11char_traitsIcEENS_9allocatorIcEEEEEC1B8ne180100ES7_
FNA:17,678,_ZNSt3__111__wrap_iterIPNS_12basic_stringIcNS_11char_traitsIcEENS_9allocatorIcEEEEEC2B8ne180100ES7_
FNA:17,50,_ZNSt3__111__wrap_iterIPPN7testing11EnvironmentEEC1B8ne180100ES4_
FNA:17,50,_ZNSt3__111__wrap_iterIPPN7testing11EnvironmentEEC2B8ne180100ES4_
FNA:17,0,_ZNSt3__111__wrap_iterIPPN7testing17TestEventListenerEEC1B8ne180100ES4_
FNA:17,0,_ZNSt3__111__wrap_iterIPPN7testing17TestEventListenerEEC2B8ne180100ES4_
FNA:17,52,_ZNSt3__111__wrap_iterIPPN7testing8internal30ParameterizedTestSuiteInfoBaseEEC1B8ne180100ES5_
FNA:17,52,_ZNSt3__111__wrap_iterIPPN7testing8internal30ParameterizedTestSuiteInfoBaseEEC2B8ne180100ES5_
FNA:17,2004,_ZNSt3__111__wrap_iterIPPN7testing9TestSuiteEEC1B8ne180100ES4_
FNA:17,2004,_ZNSt3__111__wrap_iterIPPN7testing9TestSuiteEEC2B8ne180100ES4_
FNA:17,0,_ZNSt3__111__wrap_iterIPPcEC1B8ne180100ES2_
FNA:17,0,_ZNSt3__111__wrap_iterIPPcEC2B8ne180100ES2_
FNA:17,338,_ZNSt3__111__wrap_iterIPcEC1B8ne180100ES1_
FNA:17,338,_ZNSt3__111__wrap_iterIPcEC2B8ne180100ES1_
FNF:18
FNH:13
DA:46,314
DA:47,314
DA:48,14295
DA:49,0
DA:50,0
DA:52,12815
DA:53,12815
DA:54,12815
DA:56,1248
DA:57,1248
DA:58,1248
DA:59,1248
DA:62,1273
DA:63,1273
DA:64,1273
DA:71,182
DA:72,182
DA:73,182
DA:74,182
DA:76,364
DA:77,364
DA:78,364
DA:80,0
DA:81,0
DA:91,32961
DA:94,28718
DA:108,15933
DA:109,15933
DA:114,0
DA:115,0
DA:120,0
DA:121,0
DA:132,15517
DA:133,15517
DA:138,0
DA:139,0
DA:182,235
DA:189,235
DA:210,468
DA:211,468
LF:40
LH:30
end_of_record
TN:
SF:/Library/Developer/CommandLineTools/SDKs/MacOSX15.1.sdk/usr/include/c++/v1/__locale
FNL:0,189,190
FNA:0,1220,_ZNSt3__19use_facetB8ne180100INS_5ctypeIcEEEERKT_RKNS_6localeE
FNL:1,587,587
FNA:1,1220,_ZNKSt3__15ctypeIcE5widenB8ne180100Ec
FNF:2
FNH:2
DA:189,1220
DA:190,1220
DA:587,1220
LF:3
LH:3
end_of_record
TN:
SF:/Library/Developer/CommandLineTools/SDKs/MacOSX15.1.sdk/usr/include/c++/v1/__math/rounding_functions.h
FNL:0,29,29
FNA:0,25,_ZNSt3__16__math4ceilB8ne180100Ef
FNF:1
FNH:1
DA:29,25
LF:1
LH:1
end_of_record
TN:
SF:/Library/Developer/CommandLineTools/SDKs/MacOSX15.1.sdk/usr/include/c++/v1/__math/traits.h
FNL:0,103,104
FNA:0,0,_ZNSt3__16__math5isnanB8ne180100EUa9enable_ifIXLb1EEEd
FNF:1
FNH:0
DA:103,0
DA:104,0
LF:2
LH:0
end_of_record
TN:
SF:/Library/Developer/CommandLineTools/SDKs/MacOSX15.1.sdk/usr/include/c++/v1/__memory/allocate_at_least.h
FNL:0,54,55
FNA:0,0,_ZNSt3__119__allocate_at_leastB8ne180100INS_9allocatorIN7testing12TestPropertyEEEEENS_19__allocation_resultINS_16allocator_traitsIT_E7pointerEEERS7_m
FNA:0,0,_ZNSt3__119__allocate_at_leastB8ne180100INS_9allocatorIN7testing14TestPartResultEEEEENS_19__allocation_resultINS_16allocator_traitsIT_E7pointerEEERS7_m
FNA:0,0,_ZNSt3__119__allocate_at_leastB8ne180100INS_9allocatorIN7testing8internal13edit_distance8EditTypeEEEEENS_19__allocation_resultINS_16allocator_traitsIT_E7pointerEEERS9_m
FNA:0,0,_ZNSt3__119__allocate_at_leastB8ne180100INS_9allocatorIN7testing8internal9TraceInfoEEEEENS_19__allocation_resultINS_16allocator_traitsIT_E7pointerEEERS8_m
FNA:0,312,_ZNSt3__119__allocate_at_leastB8ne180100INS_9allocatorINS_12basic_stringIcNS_11char_traitsIcEENS1_IcEEEEEEEENS_19__allocation_resultINS_16allocator_traitsIT_E7pointerEEERSA_m
FNA:0,0,_ZNSt3__119__allocate_at_leastB8ne180100INS_9allocatorINS_6vectorIN7testing8internal13edit_distance8EditTypeENS1_IS6_EEEEEEEENS_19__allocation_resultINS_16allocator_traitsIT_E7pointerEEERSC_m
FNA:0,0,_ZNSt3__119__allocate_at_leastB8ne180100INS_9allocatorINS_6vectorIdNS1_IdEEEEEEEENS_19__allocation_resultINS_16allocator_traitsIT_E7pointerEEERS8_m
FNA:0,0,_ZNSt3__119__allocate_at_leastB8ne180100INS_9allocatorIPN7testing11EnvironmentEEEEENS_19__allocation_resultINS_16allocator_traitsIT_E7pointerEEERS8_m
FNA:0,26,_ZNSt3__119__allocate_at_leastB8ne180100INS_9allocatorIPN7testing17TestEventListenerEEEEENS_19__allocation_resultINS_16allocator_traitsIT_E7pointerEEERS8_m
FNA:0,156,_ZNSt3__119__allocate_at_leastB8ne180100INS_9allocatorIPN7testing8TestInfoEEEEENS_19__allocation_resultINS_16allocator_traitsIT_E7pointerEEERS8_m
FNA:0,26,_ZNSt3__119__allocate_at_leastB8ne180100INS_9allocatorIPN7testing9TestSuiteEEEEENS_19__allocation_resultINS_16allocator_traitsIT_E7pointerEEERS8_m
FNA:0,0,_ZNSt3__119__allocate_at_leastB8ne180100INS_9allocatorIPcEEEENS_19__allocation_resultINS_16allocator_traitsIT_E7pointerEEERS6_m
FNA:0,0,_ZNSt3__119__allocate_at_leastB8ne180100INS_9allocatorIcEEEENS_19__allocation_resultINS_16allocator_traitsIT_E7pointerEEERS5_m
FNA:0,0,_ZNSt3__119__allocate_at_leastB8ne180100INS_9allocatorIdEEEENS_19__allocation_resultINS_16allocator_traitsIT_E7pointerEEERS5_m
FNA:0,182,_ZNSt3__119__allocate_at_leastB8ne180100INS_9allocatorIiEEEENS_19__allocation_resultINS_16allocator_traitsIT_E7pointerEEERS5_m
FNA:0,0,_ZNSt3__119__allocate_at_leastB8ne180100INS_9allocatorImEEEENS_19__allocation_resultINS_16allocator_traitsIT_E7pointerEEERS5_m
FNF:1
FNH:1
DA:54,702
DA:55,702
LF:2
LH:2
end_of_record
TN:
SF:/Library/Developer/CommandLineTools/SDKs/MacOSX15.1.sdk/usr/include/c++/v1/__memory/allocation_guard.h
FNL:0,53,57
FNA:0,0,_ZNSt3__118__allocation_guardINS_9allocatorINS_11__list_nodeINS_4pairIcPKcEEPvEEEEEC1B8ne180100IS9_EET_m
FNA:0,0,_ZNSt3__118__allocation_guardINS_9allocatorINS_11__list_nodeINS_4pairIcPKcEEPvEEEEEC2B8ne180100IS9_EET_m
FNL:1,59,59
FNA:1,0,_ZNSt3__118__allocation_guardINS_9allocatorINS_11__list_nodeINS_4pairIcPKcEEPvEEEEED1B8ne180100Ev
FNA:1,0,_ZNSt3__118__allocation_guardINS_9allocatorINS_11__list_nodeINS_4pairIcPKcEEPvEEEEED2B8ne180100Ev
FNL:2,84,87
FNA:2,0,_ZNSt3__118__allocation_guardINS_9allocatorINS_11__list_nodeINS_4pairIcPKcEEPvEEEEE13__release_ptrB8ne180100Ev
FNL:3,90,90
FNA:3,0,_ZNKSt3__118__allocation_guardINS_9allocatorINS_11__list_nodeINS_4pairIcPKcEEPvEEEEE5__getB8ne180100Ev
FNL:4,93,97
FNA:4,0,_ZNSt3__118__allocation_guardINS_9allocatorINS_11__list_nodeINS_4pairIcPKcEEPvEEEEE9__destroyB8ne180100Ev
FNF:5
FNH:0
DA:53,0
DA:54,0
DA:55,0
DA:56,0
DA:57,0
DA:59,0
DA:84,0
DA:85,0
DA:86,0
DA:87,0
DA:90,0
DA:93,0
DA:94,0
DA:95,0
DA:96,0
DA:97,0
LF:16
LH:0
end_of_record
TN:
SF:/Library/Developer/CommandLineTools/SDKs/MacOSX15.1.sdk/usr/include/c++/v1/__memory/allocator.h
FNL:0,114,114
FNA:0,702,_ZNSt3__19allocatorIN7testing12TestPropertyEEC2B8ne180100Ev
FNA:0,702,_ZNSt3__19allocatorIN7testing14TestPartResultEEC2B8ne180100Ev
FNA:0,0,_ZNSt3__19allocatorIN7testing8internal13edit_distance8EditTypeEEC2B8ne180100Ev
FNA:0,0,_ZNSt3__19allocatorIN7testing8internal9TraceInfoEEC2B8ne180100Ev
FNA:0,130,_ZNSt3__19allocatorINS_11__hash_nodeINS_12basic_stringIcNS_11char_traitsIcEENS0_IcEEEEPvEEEC2B8ne180100Ev
FNA:0,0,_ZNSt3__19allocatorINS_11__list_nodeINS_4pairIcPKcEEPvEEEC2B8ne180100Ev
FNA:0,26,_ZNSt3__19allocatorINS_11__tree_nodeINS_12__value_typeINS_12basic_stringIcNS_11char_traitsIcEENS0_IcEEEEN7testing8internal34TypeParameterizedTestSuiteRegistry30TypeParameterizedTestSuiteInfoEEEPvEEEC2B8ne180100Ev
FNA:0,0,_ZNSt3__19allocatorINS_11__tree_nodeINS_12__value_typeINS_12basic_stringIcNS_11char_traitsIcEENS0_IcEEEEmEEPvEEEC2B8ne180100Ev
FNA:0,26,_ZNSt3__19allocatorINS_11__tree_nodeINS_12basic_stringIcNS_11char_traitsIcEENS0_IcEEEEPvEEEC2B8ne180100Ev
FNA:0,364,_ZNSt3__19allocatorINS_12basic_stringIcNS_11char_traitsIcEENS0_IcEEEEEC2B8ne180100Ev
FNA:0,0,_ZNSt3__19allocatorINS_6vectorIN7testing8internal13edit_distance8EditTypeENS0_IS5_EEEEEC2B8ne180100Ev
FNA:0,0,_ZNSt3__19allocatorINS_6vectorIdNS0_IdEEEEEC2B8ne180100Ev
FNA:0,26,_ZNSt3__19allocatorIPN7testing11EnvironmentEEC2B8ne180100Ev
FNA:0,26,_ZNSt3__19allocatorIPN7testing17TestEventListenerEEC2B8ne180100Ev
FNA:0,26,_ZNSt3__19allocatorIPN7testing8TestInfoEEC2B8ne180100Ev
FNA:0,26,_ZNSt3__19allocatorIPN7testing8internal30ParameterizedTestSuiteInfoBaseEEC2B8ne180100Ev
FNA:0,26,_ZNSt3__19allocatorIPN7testing9TestSuiteEEC2B8ne180100Ev
FNA:0,130,_ZNSt3__19allocatorIPNS_16__hash_node_baseIPNS_11__hash_nodeINS_12basic_stringIcNS_11char_traitsIcEENS0_IcEEEEPvEEEEEC2B8ne180100Ev
FNA:0,0,_ZNSt3__19allocatorIPcEC2B8ne180100Ev
FNA:0,156,_ZNSt3__19allocatorIcEC1B8ne180100Ev
FNA:0,7232,_ZNSt3__19allocatorIcEC2B8ne180100Ev
FNA:0,0,_ZNSt3__19allocatorIdEC2B8ne180100Ev
FNA:0,52,_ZNSt3__19allocatorIiEC2B8ne180100Ev
FNA:0,0,_ZNSt3__19allocatorImEC2B8ne180100Ev
FNA:0,0,_ZNSt3__19allocatorIwEC2B8ne180100Ev
FNL:1,119,125
FNA:1,0,_ZNSt3__19allocatorIN7testing12TestPropertyEE8allocateB8ne180100Em
FNA:1,0,_ZNSt3__19allocatorIN7testing14TestPartResultEE8allocateB8ne180100Em
FNA:1,0,_ZNSt3__19allocatorIN7testing8internal13edit_distance8EditTypeEE8allocateB8ne180100Em
FNA:1,0,_ZNSt3__19allocatorIN7testing8internal9TraceInfoEE8allocateB8ne180100Em
FNA:1,25,_ZNSt3__19allocatorINS_11__hash_nodeINS_12basic_stringIcNS_11char_traitsIcEENS0_IcEEEEPvEEE8allocateB8ne180100Em
FNA:1,0,_ZNSt3__19allocatorINS_11__list_nodeINS_4pairIcPKcEEPvEEE8allocateB8ne180100Em
FNA:1,0,_ZNSt3__19allocatorINS_11__tree_nodeINS_12__value_typeINS_12basic_stringIcNS_11char_traitsIcEENS0_IcEEEEN7testing8internal34TypeParameterizedTestSuiteRegistry30TypeParameterizedTestSuiteInfoEEEPvEEE8allocateB8ne180100Em
FNA:1,0,_ZNSt3__19allocatorINS_11__tree_nodeINS_12__value_typeINS_12basic_stringIcNS_11char_traitsIcEENS0_IcEEEEmEEPvEEE8allocateB8ne180100Em
FNA:1,0,_ZNSt3__19allocatorINS_11__tree_nodeINS_12basic_stringIcNS_11char_traitsIcEENS0_IcEEEEPvEEE8allocateB8ne180100Em
FNA:1,312,_ZNSt3__19allocatorINS_12basic_stringIcNS_11char_traitsIcEENS0_IcEEEEE8allocateB8ne180100Em
FNA:1,0,_ZNSt3__19allocatorINS_6vectorIN7testing8internal13edit_distance8EditTypeENS0_IS5_EEEEE8allocateB8ne180100Em
FNA:1,0,_ZNSt3__19allocatorINS_6vectorIdNS0_IdEEEEE8allocateB8ne180100Em
FNA:1,0,_ZNSt3__19allocatorIPN7testing11EnvironmentEE8allocateB8ne180100Em
FNA:1,26,_ZNSt3__19allocatorIPN7testing17TestEventListenerEE8allocateB8ne180100Em
FNA:1,156,_ZNSt3__19allocatorIPN7testing8TestInfoEE8allocateB8ne180100Em
FNA:1,26,_ZNSt3__19allocatorIPN7testing9TestSuiteEE8allocateB8ne180100Em
FNA:1,25,_ZNSt3__19allocatorIPNS_16__hash_node_baseIPNS_11__hash_nodeINS_12basic_stringIcNS_11char_traitsIcEENS0_IcEEEEPvEEEEE8allocateB8ne180100Em
FNA:1,0,_ZNSt3__19allocatorIPcE8allocateB8ne180100Em
FNA:1,0,_ZNSt3__19allocatorIcE8allocateB8ne180100Em
FNA:1,0,_ZNSt3__19allocatorIdE8allocateB8ne180100Em
FNA:1,182,_ZNSt3__19allocatorIiE8allocateB8ne180100Em
FNA:1,0,_ZNSt3__19allocatorImE8allocateB8ne180100Em
FNL:2,135,141
FNA:2,0,_ZNSt3__19allocatorIN7testing12TestPropertyEE10deallocateB8ne180100EPS2_m
FNA:2,0,_ZNSt3__19allocatorIN7testing14TestPartResultEE10deallocateB8ne180100EPS2_m
FNA:2,0,_ZNSt3__19allocatorIN7testing8internal13edit_distance8EditTypeEE10deallocateB8ne180100EPS4_m
FNA:2,0,_ZNSt3__19allocatorIN7testing8internal9TraceInfoEE10deallocateB8ne180100EPS3_m
FNA:2,25,_ZNSt3__19allocatorINS_11__hash_nodeINS_12basic_stringIcNS_11char_traitsIcEENS0_IcEEEEPvEEE10deallocateB8ne180100EPS8_m
FNA:2,0,_ZNSt3__19allocatorINS_11__list_nodeINS_4pairIcPKcEEPvEEE10deallocateB8ne180100EPS7_m
FNA:2,0,_ZNSt3__19allocatorINS_11__tree_nodeINS_12__value_typeINS_12basic_stringIcNS_11char_traitsIcEENS0_IcEEEEN7testing8internal34TypeParameterizedTestSuiteRegistry30TypeParameterizedTestSuiteInfoEEEPvEEE10deallocateB8ne180100EPSE_m
FNA:2,0,_ZNSt3__19allocatorINS_11__tree_nodeINS_12__value_typeINS_12basic_stringIcNS_11char_traitsIcEENS0_IcEEEEmEEPvEEE10deallocateB8ne180100EPSA_m
FNA:2,0,_ZNSt3__19allocatorINS_11__tree_nodeINS_12basic_stringIcNS_11char_traitsIcEENS0_IcEEEEPvEEE10deallocateB8ne180100EPS8_m
FNA:2,286,_ZNSt3__19allocatorINS_12basic_stringIcNS_11char_traitsIcEENS0_IcEEEEE10deallocateB8ne180100EPS5_m
FNA:2,0,_ZNSt3__19allocatorINS_6vectorIN7testing8internal13edit_distance8EditTypeENS0_IS5_EEEEE10deallocateB8ne180100EPS7_m
FNA:2,0,_ZNSt3__19allocatorINS_6vectorIdNS0_IdEEEEE10deallocateB8ne180100EPS3_m
FNA:2,0,_ZNSt3__19allocatorIPN7testing11EnvironmentEE10deallocateB8ne180100EPS3_m
FNA:2,0,_ZNSt3__19allocatorIPN7testing17TestEventListenerEE10deallocateB8ne180100EPS3_m
FNA:2,130,_ZNSt3__19allocatorIPN7testing8TestInfoEE10deallocateB8ne180100EPS3_m
FNA:2,0,_ZNSt3__19allocatorIPN7testing8internal30ParameterizedTestSuiteInfoBaseEE10deallocateB8ne180100EPS4_m
FNA:2,0,_ZNSt3__19allocatorIPN7testing9TestSuiteEE10deallocateB8ne180100EPS3_m
FNA:2,25,_ZNSt3__19allocatorIPNS_16__hash_node_baseIPNS_11__hash_nodeINS_12basic_stringIcNS_11char_traitsIcEENS0_IcEEEEPvEEEEE10deallocateB8ne180100EPSC_m
FNA:2,0,_ZNSt3__19allocatorIPcE10deallocateB8ne180100EPS1_m
FNA:2,0,_ZNSt3__19allocatorIcE10deallocateB8ne180100EPcm
FNA:2,0,_ZNSt3__19allocatorIdE10deallocateB8ne180100EPdm
FNA:2,130,_ZNSt3__19allocatorIiE10deallocateB8ne180100EPim
FNA:2,0,_ZNSt3__19allocatorImE10deallocateB8ne180100EPmm
FNL:3,167,168
FNA:3,0,_ZNKSt3__19allocatorIN7testing12TestPropertyEE8max_sizeB8ne180100Ev
FNA:3,0,_ZNKSt3__19allocatorIN7testing14TestPartResultEE8max_sizeB8ne180100Ev
FNA:3,0,_ZNKSt3__19allocatorIN7testing8internal13edit_distance8EditTypeEE8max_sizeB8ne180100Ev
FNA:3,0,_ZNKSt3__19allocatorIN7testing8internal9TraceInfoEE8max_sizeB8ne180100Ev
FNA:3,25,_ZNKSt3__19allocatorINS_11__hash_nodeINS_12basic_stringIcNS_11char_traitsIcEENS0_IcEEEEPvEEE8max_sizeB8ne180100Ev
FNA:3,0,_ZNKSt3__19allocatorINS_11__list_nodeINS_4pairIcPKcEEPvEEE8max_sizeB8ne180100Ev
FNA:3,0,_ZNKSt3__19allocatorINS_11__tree_nodeINS_12__value_typeINS_12basic_stringIcNS_11char_traitsIcEENS0_IcEEEEN7testing8internal34TypeParameterizedTestSuiteRegistry30TypeParameterizedTestSuiteInfoEEEPvEEE8max_sizeB8ne180100Ev
FNA:3,0,_ZNKSt3__19allocatorINS_11__tree_nodeINS_12__value_typeINS_12basic_stringIcNS_11char_traitsIcEENS0_IcEEEEmEEPvEEE8max_sizeB8ne180100Ev
FNA:3,0,_ZNKSt3__19allocatorINS_11__tree_nodeINS_12basic_stringIcNS_11char_traitsIcEENS0_IcEEEEPvEEE8max_sizeB8ne180100Ev
FNA:3,624,_ZNKSt3__19allocatorINS_12basic_stringIcNS_11char_traitsIcEENS0_IcEEEEE8max_sizeB8ne180100Ev
FNA:3,0,_ZNKSt3__19allocatorINS_6vectorIN7testing8internal13edit_distance8EditTypeENS0_IS5_EEEEE8max_sizeB8ne180100Ev
FNA:3,0,_ZNKSt3__19allocatorINS_6vectorIdNS0_IdEEEEE8max_sizeB8ne180100Ev
FNA:3,0,_ZNKSt3__19allocatorIPN7testing11EnvironmentEE8max_sizeB8ne180100Ev
FNA:3,52,_ZNKSt3__19allocatorIPN7testing17TestEventListenerEE8max_sizeB8ne180100Ev
FNA:3,312,_ZNKSt3__19allocatorIPN7testing8TestInfoEE8max_sizeB8ne180100Ev
FNA:3,52,_ZNKSt3__19allocatorIPN7testing9TestSuiteEE8max_sizeB8ne180100Ev
FNA:3,25,_ZNKSt3__19allocatorIPNS_16__hash_node_baseIPNS_11__hash_nodeINS_12basic_stringIcNS_11char_traitsIcEENS0_IcEEEEPvEEEEE8max_sizeB8ne180100Ev
FNA:3,0,_ZNKSt3__19allocatorIPcE8max_sizeB8ne180100Ev
FNA:3,650,_ZNKSt3__19allocatorIcE8max_sizeB8ne180100Ev
FNA:3,0,_ZNKSt3__19allocatorIdE8max_sizeB8ne180100Ev
FNA:3,364,_ZNKSt3__19allocatorIiE8max_sizeB8ne180100Ev
FNA:3,0,_ZNKSt3__19allocatorImE8max_sizeB8ne180100Ev
FNL:4,172,174
FNA:4,0,_ZNSt3__19allocatorIN7testing12TestPropertyEE9constructB8ne180100IS2_JRKS2_EEEvPT_DpOT0_
FNA:4,0,_ZNSt3__19allocatorIN7testing12TestPropertyEE9constructB8ne180100IS2_JS2_EEEvPT_DpOT0_
FNA:4,0,_ZNSt3__19allocatorIN7testing14TestPartResultEE9constructB8ne180100IS2_JRKS2_EEEvPT_DpOT0_
FNA:4,0,_ZNSt3__19allocatorIN7testing14TestPartResultEE9constructB8ne180100IS2_JS2_EEEvPT_DpOT0_
FNA:4,0,_ZNSt3__19allocatorIN7testing8internal13edit_distance8EditTypeEE9constructB8ne180100IS4_JEEEvPT_DpOT0_
FNA:4,0,_ZNSt3__19allocatorIN7testing8internal13edit_distance8EditTypeEE9constructB8ne180100IS4_JRKS4_EEEvPT_DpOT0_
FNA:4,0,_ZNSt3__19allocatorIN7testing8internal9TraceInfoEE9constructB8ne180100IS3_JRKS3_EEEvPT_DpOT0_
FNA:4,0,_ZNSt3__19allocatorIN7testing8internal9TraceInfoEE9constructB8ne180100IS3_JS3_EEEvPT_DpOT0_
FNA:4,25,_ZNSt3__19allocatorINS_11__hash_nodeINS_12basic_stringIcNS_11char_traitsIcEENS0_IcEEEEPvEEE9constructB8ne180100IS6_JS6_EEEvPT_DpOT0_
FNA:4,0,_ZNSt3__19allocatorINS_11__list_nodeINS_4pairIcPKcEEPvEEE9constructB8ne180100IS5_JS5_EEEvPT_DpOT0_
FNA:4,0,_ZNSt3__19allocatorINS_11__tree_nodeINS_12__value_typeINS_12basic_stringIcNS_11char_traitsIcEENS0_IcEEEEN7testing8internal34TypeParameterizedTestSuiteRegistry30TypeParameterizedTestSuiteInfoEEEPvEEE9constructB8ne180100INS_4pairIKS7_SB_EEJS7_SB_EEEvPT_DpOT0_
FNA:4,0,_ZNSt3__19allocatorINS_11__tree_nodeINS_12__value_typeINS_12basic_stringIcNS_11char_traitsIcEENS0_IcEEEEmEEPvEEE9constructB8ne180100INS_4pairIKS7_mEEJRKNS_21piecewise_construct_tENS_5tupleIJRSE_EEENSJ_IJEEEEEEvPT_DpOT0_
FNA:4,0,_ZNSt3__19allocatorINS_11__tree_nodeINS_12basic_stringIcNS_11char_traitsIcEENS0_IcEEEEPvEEE9constructB8ne180100IS6_JRKS6_EEEvPT_DpOT0_
FNA:4,0,_ZNSt3__19allocatorINS_11__tree_nodeINS_12basic_stringIcNS_11char_traitsIcEENS0_IcEEEEPvEEE9constructB8ne180100IS6_JS6_EEEvPT_DpOT0_
FNA:4,0,_ZNSt3__19allocatorINS_12basic_stringIcNS_11char_traitsIcEENS0_IcEEEEE9constructB8ne180100IS5_JRKPKcEEEvPT_DpOT0_
FNA:4,0,_ZNSt3__19allocatorINS_12basic_stringIcNS_11char_traitsIcEENS0_IcEEEEE9constructB8ne180100IS5_JRKS5_EEEvPT_DpOT0_
FNA:4,77,_ZNSt3__19allocatorINS_12basic_stringIcNS_11char_traitsIcEENS0_IcEEEEE9constructB8ne180100IS5_JRS5_EEEvPT_DpOT0_
FNA:4,466,_ZNSt3__19allocatorINS_12basic_stringIcNS_11char_traitsIcEENS0_IcEEEEE9constructB8ne180100IS5_JS5_EEEvPT_DpOT0_
FNA:4,0,_ZNSt3__19allocatorINS_6vectorIN7testing8internal13edit_distance8EditTypeENS0_IS5_EEEEE9constructB8ne180100IS7_JRKS7_EEEvPT_DpOT0_
FNA:4,0,_ZNSt3__19allocatorINS_6vectorIdNS0_IdEEEEE9constructB8ne180100IS3_JRKS3_EEEvPT_DpOT0_
FNA:4,0,_ZNSt3__19allocatorIPN7testing11EnvironmentEE9constructB8ne180100IS3_JRKS3_EEEvPT_DpOT0_
FNA:4,26,_ZNSt3__19allocatorIPN7testing17TestEventListenerEE9constructB8ne180100IS3_JRKS3_EEEvPT_DpOT0_
FNA:4,650,_ZNSt3__19allocatorIPN7testing8TestInfoEE9constructB8ne180100IS3_JRKS3_EEEvPT_DpOT0_
FNA:4,26,_ZNSt3__19allocatorIPN7testing9TestSuiteEE9constructB8ne180100IS3_JRKS3_EEEvPT_DpOT0_
FNA:4,0,_ZNSt3__19allocatorIPN7testing9TestSuiteEE9constructB8ne180100IS3_JS3_EEEvPT_DpOT0_
FNA:4,0,_ZNSt3__19allocatorIPcE9constructB8ne180100IS1_JS1_EEEvPT_DpOT0_
FNA:4,0,_ZNSt3__19allocatorIdE9constructB8ne180100IdJEEEvPT_DpOT0_
FNA:4,676,_ZNSt3__19allocatorIiE9constructB8ne180100IiJiEEEvPT_DpOT0_
FNA:4,0,_ZNSt3__19allocatorImE9constructB8ne180100ImJmEEEvPT_DpOT0_
FNL:5,176,176
FNA:5,0,_ZNSt3__19allocatorIN7testing12TestPropertyEE7destroyB8ne180100EPS2_
FNA:5,0,_ZNSt3__19allocatorIN7testing14TestPartResultEE7destroyB8ne180100EPS2_
FNA:5,0,_ZNSt3__19allocatorIN7testing8internal13edit_distance8EditTypeEE7destroyB8ne180100EPS4_
FNA:5,0,_ZNSt3__19allocatorIN7testing8internal9TraceInfoEE7destroyB8ne180100EPS3_
FNA:5,466,_ZNSt3__19allocatorINS_12basic_stringIcNS_11char_traitsIcEENS0_IcEEEEE7destroyB8ne180100EPS5_
FNA:5,0,_ZNSt3__19allocatorINS_6vectorIN7testing8internal13edit_distance8EditTypeENS0_IS5_EEEEE7destroyB8ne180100EPS7_
FNA:5,0,_ZNSt3__19allocatorINS_6vectorIdNS0_IdEEEEE7destroyB8ne180100EPS3_
FNA:5,0,_ZNSt3__19allocatorIPN7testing11EnvironmentEE7destroyB8ne180100EPS3_
FNA:5,0,_ZNSt3__19allocatorIPN7testing17TestEventListenerEE7destroyB8ne180100EPS3_
FNA:5,806,_ZNSt3__19allocatorIPN7testing8TestInfoEE7destroyB8ne180100EPS3_
FNA:5,0,_ZNSt3__19allocatorIPN7testing8internal30ParameterizedTestSuiteInfoBaseEE7destroyB8ne180100EPS4_
FNA:5,0,_ZNSt3__19allocatorIPN7testing9TestSuiteEE7destroyB8ne180100EPS3_
FNA:5,0,_ZNSt3__19allocatorIPcE7destroyB8ne180100EPS1_
FNA:5,0,_ZNSt3__19allocatorIdE7destroyB8ne180100EPd
FNA:5,806,_ZNSt3__19allocatorIiE7destroyB8ne180100EPi
FNA:5,0,_ZNSt3__19allocatorImE7destroyB8ne180100EPm
FNL:6,93,93
FNA:6,702,_ZNSt3__116__non_trivial_ifILb1ENS_9allocatorIN7testing12TestPropertyEEEEC2B8ne180100Ev
FNA:6,702,_ZNSt3__116__non_trivial_ifILb1ENS_9allocatorIN7testing14TestPartResultEEEEC2B8ne180100Ev
FNA:6,0,_ZNSt3__116__non_trivial_ifILb1ENS_9allocatorIN7testing8internal13edit_distance8EditTypeEEEEC2B8ne180100Ev
FNA:6,0,_ZNSt3__116__non_trivial_ifILb1ENS_9allocatorIN7testing8internal9TraceInfoEEEEC2B8ne180100Ev
FNA:6,130,_ZNSt3__116__non_trivial_ifILb1ENS_9allocatorINS_11__hash_nodeINS_12basic_stringIcNS_11char_traitsIcEENS1_IcEEEEPvEEEEEC2B8ne180100Ev
FNA:6,0,_ZNSt3__116__non_trivial_ifILb1ENS_9allocatorINS_11__list_nodeINS_4pairIcPKcEEPvEEEEEC2B8ne180100Ev
FNA:6,26,_ZNSt3__116__non_trivial_ifILb1ENS_9allocatorINS_11__tree_nodeINS_12__value_typeINS_12basic_stringIcNS_11char_traitsIcEENS1_IcEEEEN7testing8internal34TypeParameterizedTestSuiteRegistry30TypeParameterizedTestSuiteInfoEEEPvEEEEEC2B8ne180100Ev
FNA:6,0,_ZNSt3__116__non_trivial_ifILb1ENS_9allocatorINS_11__tree_nodeINS_12__value_typeINS_12basic_stringIcNS_11char_traitsIcEENS1_IcEEEEmEEPvEEEEEC2B8ne180100Ev
FNA:6,26,_ZNSt3__116__non_trivial_ifILb1ENS_9allocatorINS_11__tree_nodeINS_12basic_stringIcNS_11char_traitsIcEENS1_IcEEEEPvEEEEEC2B8ne180100Ev
FNA:6,364,_ZNSt3__116__non_trivial_ifILb1ENS_9allocatorINS_12basic_stringIcNS_11char_traitsIcEENS1_IcEEEEEEEC2B8ne180100Ev
FNA:6,0,_ZNSt3__116__non_trivial_ifILb1ENS_9allocatorINS_6vectorIN7testing8internal13edit_distance8EditTypeENS1_IS6_EEEEEEEC2B8ne180100Ev
FNA:6,0,_ZNSt3__116__non_trivial_ifILb1ENS_9allocatorINS_6vectorIdNS1_IdEEEEEEEC2B8ne180100Ev
FNA:6,26,_ZNSt3__116__non_trivial_ifILb1ENS_9allocatorIPN7testing11EnvironmentEEEEC2B8ne180100Ev
FNA:6,26,_ZNSt3__116__non_trivial_ifILb1ENS_9allocatorIPN7testing17TestEventListenerEEEEC2B8ne180100Ev
FNA:6,26,_ZNSt3__116__non_trivial_ifILb1ENS_9allocatorIPN7testing8TestInfoEEEEC2B8ne180100Ev
FNA:6,26,_ZNSt3__116__non_trivial_ifILb1ENS_9allocatorIPN7testing8internal30ParameterizedTestSuiteInfoBaseEEEEC2B8ne180100Ev
FNA:6,26,_ZNSt3__116__non_trivial_ifILb1ENS_9allocatorIPN7testing9TestSuiteEEEEC2B8ne180100Ev
FNA:6,130,_ZNSt3__116__non_trivial_ifILb1ENS_9allocatorIPNS_16__hash_node_baseIPNS_11__hash_nodeINS_12basic_stringIcNS_11char_traitsIcEENS1_IcEEEEPvEEEEEEEC2B8ne180100Ev
FNA:6,0,_ZNSt3__116__non_trivial_ifILb1ENS_9allocatorIPcEEEC2B8ne180100Ev
FNA:6,7232,_ZNSt3__116__non_trivial_ifILb1ENS_9allocatorIcEEEC2B8ne180100Ev
FNA:6,0,_ZNSt3__116__non_trivial_ifILb1ENS_9allocatorIdEEEC2B8ne180100Ev
FNA:6,52,_ZNSt3__116__non_trivial_ifILb1ENS_9allocatorIiEEEC2B8ne180100Ev
FNA:6,0,_ZNSt3__116__non_trivial_ifILb1ENS_9allocatorImEEEC2B8ne180100Ev
FNA:6,0,_ZNSt3__116__non_trivial_ifILb1ENS_9allocatorIwEEEC2B8ne180100Ev
FNF:7
FNH:7
DA:93,9494
DA:114,9650
DA:119,752
DA:120,752
DA:121,0
DA:125,752
DA:135,596
DA:139,596
DA:141,596
DA:167,2104
DA:168,2104
DA:172,1946
DA:173,1946
DA:174,1946
DA:176,2078
LF:15
LH:14
end_of_record
TN:
SF:/Library/Developer/CommandLineTools/SDKs/MacOSX15.1.sdk/usr/include/c++/v1/__memory/allocator_traits.h
FNL:0,268,269
FNA:0,25,_ZNSt3__116allocator_traitsINS_9allocatorINS_11__hash_nodeINS_12basic_stringIcNS_11char_traitsIcEENS1_IcEEEEPvEEEEE8allocateB8ne180100ERSA_m
FNA:0,0,_ZNSt3__116allocator_traitsINS_9allocatorINS_11__list_nodeINS_4pairIcPKcEEPvEEEEE8allocateB8ne180100ERS9_m
FNA:0,0,_ZNSt3__116allocator_traitsINS_9allocatorINS_11__tree_nodeINS_12__value_typeINS_12basic_stringIcNS_11char_traitsIcEENS1_IcEEEEN7testing8internal34TypeParameterizedTestSuiteRegistry30TypeParameterizedTestSuiteInfoEEEPvEEEEE8allocateB8ne180100ERSG_m
FNA:0,0,_ZNSt3__116allocator_traitsINS_9allocatorINS_11__tree_nodeINS_12__value_typeINS_12basic_stringIcNS_11char_traitsIcEENS1_IcEEEEmEEPvEEEEE8allocateB8ne180100ERSC_m
FNA:0,0,_ZNSt3__116allocator_traitsINS_9allocatorINS_11__tree_nodeINS_12basic_stringIcNS_11char_traitsIcEENS1_IcEEEEPvEEEEE8allocateB8ne180100ERSA_m
FNA:0,25,_ZNSt3__116allocator_traitsINS_9allocatorIPNS_16__hash_node_baseIPNS_11__hash_nodeINS_12basic_stringIcNS_11char_traitsIcEENS1_IcEEEEPvEEEEEEE8allocateB8ne180100ERSE_m
FNA:0,0,_ZNSt3__116allocator_traitsINS_9allocatorIcEEE8allocateB8ne180100ERS2_m
FNL:1,288,290
FNA:1,0,_ZNSt3__116allocator_traitsINS_9allocatorIN7testing12TestPropertyEEEE10deallocateB8ne180100ERS4_PS3_m
FNA:1,0,_ZNSt3__116allocator_traitsINS_9allocatorIN7testing14TestPartResultEEEE10deallocateB8ne180100ERS4_PS3_m
FNA:1,0,_ZNSt3__116allocator_traitsINS_9allocatorIN7testing8internal13edit_distance8EditTypeEEEE10deallocateB8ne180100ERS6_PS5_m
FNA:1,0,_ZNSt3__116allocator_traitsINS_9allocatorIN7testing8internal9TraceInfoEEEE10deallocateB8ne180100ERS5_PS4_m
FNA:1,25,_ZNSt3__116allocator_traitsINS_9allocatorINS_11__hash_nodeINS_12basic_stringIcNS_11char_traitsIcEENS1_IcEEEEPvEEEEE10deallocateB8ne180100ERSA_PS9_m
FNA:1,0,_ZNSt3__116allocator_traitsINS_9allocatorINS_11__list_nodeINS_4pairIcPKcEEPvEEEEE10deallocateB8ne180100ERS9_PS8_m
FNA:1,0,_ZNSt3__116allocator_traitsINS_9allocatorINS_11__tree_nodeINS_12__value_typeINS_12basic_stringIcNS_11char_traitsIcEENS1_IcEEEEN7testing8internal34TypeParameterizedTestSuiteRegistry30TypeParameterizedTestSuiteInfoEEEPvEEEEE10deallocateB8ne180100ERSG_PSF_m
FNA:1,0,_ZNSt3__116allocator_traitsINS_9allocatorINS_11__tree_nodeINS_12__value_typeINS_12basic_stringIcNS_11char_traitsIcEENS1_IcEEEEmEEPvEEEEE10deallocateB8ne180100ERSC_PSB_m
FNA:1,0,_ZNSt3__116allocator_traitsINS_9allocatorINS_11__tree_nodeINS_12basic_stringIcNS_11char_traitsIcEENS1_IcEEEEPvEEEEE10deallocateB8ne180100ERSA_PS9_m
FNA:1,286,_ZNSt3__116allocator_traitsINS_9allocatorINS_12basic_stringIcNS_11char_traitsIcEENS1_IcEEEEEEE10deallocateB8ne180100ERS7_PS6_m
FNA:1,0,_ZNSt3__116allocator_traitsINS_9allocatorINS_6vectorIN7testing8internal13edit_distance8EditTypeENS1_IS6_EEEEEEE10deallocateB8ne180100ERS9_PS8_m
FNA:1,0,_ZNSt3__116allocator_traitsINS_9allocatorINS_6vectorIdNS1_IdEEEEEEE10deallocateB8ne180100ERS5_PS4_m
FNA:1,0,_ZNSt3__116allocator_traitsINS_9allocatorIPN7testing11EnvironmentEEEE10deallocateB8ne180100ERS5_PS4_m
FNA:1,0,_ZNSt3__116allocator_traitsINS_9allocatorIPN7testing17TestEventListenerEEEE10deallocateB8ne180100ERS5_PS4_m
FNA:1,130,_ZNSt3__116allocator_traitsINS_9allocatorIPN7testing8TestInfoEEEE10deallocateB8ne180100ERS5_PS4_m
FNA:1,0,_ZNSt3__116allocator_traitsINS_9allocatorIPN7testing8internal30ParameterizedTestSuiteInfoBaseEEEE10deallocateB8ne180100ERS6_PS5_m
FNA:1,0,_ZNSt3__116allocator_traitsINS_9allocatorIPN7testing9TestSuiteEEEE10deallocateB8ne180100ERS5_PS4_m
FNA:1,25,_ZNSt3__116allocator_traitsINS_9allocatorIPNS_16__hash_node_baseIPNS_11__hash_nodeINS_12basic_stringIcNS_11char_traitsIcEENS1_IcEEEEPvEEEEEEE10deallocateB8ne180100ERSE_PSD_m
FNA:1,0,_ZNSt3__116allocator_traitsINS_9allocatorIPcEEE10deallocateB8ne180100ERS3_PS2_m
FNA:1,0,_ZNSt3__116allocator_traitsINS_9allocatorIcEEE10deallocateB8ne180100ERS2_Pcm
FNA:1,0,_ZNSt3__116allocator_traitsINS_9allocatorIdEEE10deallocateB8ne180100ERS2_Pdm
FNA:1,130,_ZNSt3__116allocator_traitsINS_9allocatorIiEEE10deallocateB8ne180100ERS2_Pim
FNA:1,0,_ZNSt3__116allocator_traitsINS_9allocatorImEEE10deallocateB8ne180100ERS2_Pmm
FNL:2,294,298
FNA:2,0,_ZNSt3__116allocator_traitsINS_9allocatorIN7testing12TestPropertyEEEE9constructB8ne180100IS3_JRKS3_EvEEvRS4_PT_DpOT0_
FNA:2,0,_ZNSt3__116allocator_traitsINS_9allocatorIN7testing12TestPropertyEEEE9constructB8ne180100IS3_JS3_EvEEvRS4_PT_DpOT0_
FNA:2,0,_ZNSt3__116allocator_traitsINS_9allocatorIN7testing14TestPartResultEEEE9constructB8ne180100IS3_JRKS3_EvEEvRS4_PT_DpOT0_
FNA:2,0,_ZNSt3__116allocator_traitsINS_9allocatorIN7testing14TestPartResultEEEE9constructB8ne180100IS3_JS3_EvEEvRS4_PT_DpOT0_
FNA:2,0,_ZNSt3__116allocator_traitsINS_9allocatorIN7testing8internal13edit_distance8EditTypeEEEE9constructB8ne180100IS5_JEvEEvRS6_PT_DpOT0_
FNA:2,0,_ZNSt3__116allocator_traitsINS_9allocatorIN7testing8internal13edit_distance8EditTypeEEEE9constructB8ne180100IS5_JRKS5_EvEEvRS6_PT_DpOT0_
FNA:2,0,_ZNSt3__116allocator_traitsINS_9allocatorIN7testing8internal9TraceInfoEEEE9constructB8ne180100IS4_JRKS4_EvEEvRS5_PT_DpOT0_
FNA:2,0,_ZNSt3__116allocator_traitsINS_9allocatorIN7testing8internal9TraceInfoEEEE9constructB8ne180100IS4_JS4_EvEEvRS5_PT_DpOT0_
FNA:2,25,_ZNSt3__116allocator_traitsINS_9allocatorINS_11__hash_nodeINS_12basic_stringIcNS_11char_traitsIcEENS1_IcEEEEPvEEEEE9constructB8ne180100IS7_JS7_EvEEvRSA_PT_DpOT0_
FNA:2,0,_ZNSt3__116allocator_traitsINS_9allocatorINS_11__list_nodeINS_4pairIcPKcEEPvEEEEE9constructB8ne180100IS6_JS6_EvEEvRS9_PT_DpOT0_
FNA:2,0,_ZNSt3__116allocator_traitsINS_9allocatorINS_11__tree_nodeINS_12__value_typeINS_12basic_stringIcNS_11char_traitsIcEENS1_IcEEEEN7testing8internal34TypeParameterizedTestSuiteRegistry30TypeParameterizedTestSuiteInfoEEEPvEEEEE9constructB8ne180100INS_4pairIKS8_SC_EEJS8_SC_EvEEvRSG_PT_DpOT0_
FNA:2,0,_ZNSt3__116allocator_traitsINS_9allocatorINS_11__tree_nodeINS_12__value_typeINS_12basic_stringIcNS_11char_traitsIcEENS1_IcEEEEmEEPvEEEEE9constructB8ne180100INS_4pairIKS8_mEEJRKNS_21piecewise_construct_tENS_5tupleIJRSG_EEENSL_IJEEEEvEEvRSC_PT_DpOT0_
FNA:2,0,_ZNSt3__116allocator_traitsINS_9allocatorINS_11__tree_nodeINS_12basic_stringIcNS_11char_traitsIcEENS1_IcEEEEPvEEEEE9constructB8ne180100IS7_JRKS7_EvEEvRSA_PT_DpOT0_
FNA:2,0,_ZNSt3__116allocator_traitsINS_9allocatorINS_11__tree_nodeINS_12basic_stringIcNS_11char_traitsIcEENS1_IcEEEEPvEEEEE9constructB8ne180100IS7_JS7_EvEEvRSA_PT_DpOT0_
FNA:2,0,_ZNSt3__116allocator_traitsINS_9allocatorINS_12basic_stringIcNS_11char_traitsIcEENS1_IcEEEEEEE9constructB8ne180100IS6_JRKPKcEvEEvRS7_PT_DpOT0_
FNA:2,0,_ZNSt3__116allocator_traitsINS_9allocatorINS_12basic_stringIcNS_11char_traitsIcEENS1_IcEEEEEEE9constructB8ne180100IS6_JRKS6_EvEEvRS7_PT_DpOT0_
FNA:2,77,_ZNSt3__116allocator_traitsINS_9allocatorINS_12basic_stringIcNS_11char_traitsIcEENS1_IcEEEEEEE9constructB8ne180100IS6_JRS6_EvEEvRS7_PT_DpOT0_
FNA:2,466,_ZNSt3__116allocator_traitsINS_9allocatorINS_12basic_stringIcNS_11char_traitsIcEENS1_IcEEEEEEE9constructB8ne180100IS6_JS6_EvEEvRS7_PT_DpOT0_
FNA:2,0,_ZNSt3__116allocator_traitsINS_9allocatorINS_6vectorIN7testing8internal13edit_distance8EditTypeENS1_IS6_EEEEEEE9constructB8ne180100IS8_JRKS8_EvEEvRS9_PT_DpOT0_
FNA:2,0,_ZNSt3__116allocator_traitsINS_9allocatorINS_6vectorIdNS1_IdEEEEEEE9constructB8ne180100IS4_JRKS4_EvEEvRS5_PT_DpOT0_
FNA:2,0,_ZNSt3__116allocator_traitsINS_9allocatorIPN7testing11EnvironmentEEEE9constructB8ne180100IS4_JRKS4_EvEEvRS5_PT_DpOT0_
FNA:2,26,_ZNSt3__116allocator_traitsINS_9allocatorIPN7testing17TestEventListenerEEEE9constructB8ne180100IS4_JRKS4_EvEEvRS5_PT_DpOT0_
FNA:2,650,_ZNSt3__116allocator_traitsINS_9allocatorIPN7testing8TestInfoEEEE9constructB8ne180100IS4_JRKS4_EvEEvRS5_PT_DpOT0_
FNA:2,26,_ZNSt3__116allocator_traitsINS_9allocatorIPN7testing9TestSuiteEEEE9constructB8ne180100IS4_JRKS4_EvEEvRS5_PT_DpOT0_
FNA:2,0,_ZNSt3__116allocator_traitsINS_9allocatorIPN7testing9TestSuiteEEEE9constructB8ne180100IS4_JS4_EvEEvRS5_PT_DpOT0_
FNA:2,0,_ZNSt3__116allocator_traitsINS_9allocatorIPcEEE9constructB8ne180100IS2_JS2_EvEEvRS3_PT_DpOT0_
FNA:2,0,_ZNSt3__116allocator_traitsINS_9allocatorIdEEE9constructB8ne180100IdJEvEEvRS2_PT_DpOT0_
FNA:2,676,_ZNSt3__116allocator_traitsINS_9allocatorIiEEE9constructB8ne180100IiJiEvEEvRS2_PT_DpOT0_
FNA:2,0,_ZNSt3__116allocator_traitsINS_9allocatorImEEE9constructB8ne180100ImJmEvEEvRS2_PT_DpOT0_
FNL:3,309,313
FNA:3,0,_ZNSt3__116allocator_traitsINS_9allocatorIN7testing12TestPropertyEEEE7destroyB8ne180100IS3_vEEvRS4_PT_
FNA:3,0,_ZNSt3__116allocator_traitsINS_9allocatorIN7testing14TestPartResultEEEE7destroyB8ne180100IS3_vEEvRS4_PT_
FNA:3,0,_ZNSt3__116allocator_traitsINS_9allocatorIN7testing8internal13edit_distance8EditTypeEEEE7destroyB8ne180100IS5_vEEvRS6_PT_
FNA:3,0,_ZNSt3__116allocator_traitsINS_9allocatorIN7testing8internal9TraceInfoEEEE7destroyB8ne180100IS4_vEEvRS5_PT_
FNA:3,466,_ZNSt3__116allocator_traitsINS_9allocatorINS_12basic_stringIcNS_11char_traitsIcEENS1_IcEEEEEEE7destroyB8ne180100IS6_vEEvRS7_PT_
FNA:3,0,_ZNSt3__116allocator_traitsINS_9allocatorINS_6vectorIN7testing8internal13edit_distance8EditTypeENS1_IS6_EEEEEEE7destroyB8ne180100IS8_vEEvRS9_PT_
FNA:3,0,_ZNSt3__116allocator_traitsINS_9allocatorINS_6vectorIdNS1_IdEEEEEEE7destroyB8ne180100IS4_vEEvRS5_PT_
FNA:3,0,_ZNSt3__116allocator_traitsINS_9allocatorIPN7testing11EnvironmentEEEE7destroyB8ne180100IS4_vEEvRS5_PT_
FNA:3,0,_ZNSt3__116allocator_traitsINS_9allocatorIPN7testing17TestEventListenerEEEE7destroyB8ne180100IS4_vEEvRS5_PT_
FNA:3,806,_ZNSt3__116allocator_traitsINS_9allocatorIPN7testing8TestInfoEEEE7destroyB8ne180100IS4_vEEvRS5_PT_
FNA:3,0,_ZNSt3__116allocator_traitsINS_9allocatorIPN7testing8internal30ParameterizedTestSuiteInfoBaseEEEE7destroyB8ne180100IS5_vEEvRS6_PT_
FNA:3,0,_ZNSt3__116allocator_traitsINS_9allocatorIPN7testing9TestSuiteEEEE7destroyB8ne180100IS4_vEEvRS5_PT_
FNA:3,0,_ZNSt3__116allocator_traitsINS_9allocatorIPcEEE7destroyB8ne180100IS2_vEEvRS3_PT_
FNA:3,0,_ZNSt3__116allocator_traitsINS_9allocatorIdEEE7destroyB8ne180100IdvEEvRS2_PT_
FNA:3,806,_ZNSt3__116allocator_traitsINS_9allocatorIiEEE7destroyB8ne180100IivEEvRS2_PT_
FNA:3,0,_ZNSt3__116allocator_traitsINS_9allocatorImEEE7destroyB8ne180100ImvEEvRS2_PT_
FNL:4,315,317
FNA:4,25,_ZNSt3__116allocator_traitsINS_9allocatorINS_11__hash_nodeINS_12basic_stringIcNS_11char_traitsIcEENS1_IcEEEEPvEEEEE7destroyB8ne180100IS7_vvEEvRSA_PT_
FNA:4,0,_ZNSt3__116allocator_traitsINS_9allocatorINS_11__list_nodeINS_4pairIcPKcEEPvEEEEE7destroyB8ne180100IS6_vvEEvRS9_PT_
FNA:4,0,_ZNSt3__116allocator_traitsINS_9allocatorINS_11__tree_nodeINS_12__value_typeINS_12basic_stringIcNS_11char_traitsIcEENS1_IcEEEEN7testing8internal34TypeParameterizedTestSuiteRegistry30TypeParameterizedTestSuiteInfoEEEPvEEEEE7destroyB8ne180100INS_4pairIKS8_SC_EEvvEEvRSG_PT_
FNA:4,0,_ZNSt3__116allocator_traitsINS_9allocatorINS_11__tree_nodeINS_12__value_typeINS_12basic_stringIcNS_11char_traitsIcEENS1_IcEEEEmEEPvEEEEE7destroyB8ne180100INS_4pairIKS8_mEEvvEEvRSC_PT_
FNA:4,0,_ZNSt3__116allocator_traitsINS_9allocatorINS_11__tree_nodeINS_12basic_stringIcNS_11char_traitsIcEENS1_IcEEEEPvEEEEE7destroyB8ne180100IS7_vvEEvRSA_PT_
FNL:5,320,322
FNA:5,0,_ZNSt3__116allocator_traitsINS_9allocatorIN7testing12TestPropertyEEEE8max_sizeB8ne180100IS4_vEEmRKS4_
FNA:5,0,_ZNSt3__116allocator_traitsINS_9allocatorIN7testing14TestPartResultEEEE8max_sizeB8ne180100IS4_vEEmRKS4_
FNA:5,0,_ZNSt3__116allocator_traitsINS_9allocatorIN7testing8internal13edit_distance8EditTypeEEEE8max_sizeB8ne180100IS6_vEEmRKS6_
FNA:5,0,_ZNSt3__116allocator_traitsINS_9allocatorIN7testing8internal9TraceInfoEEEE8max_sizeB8ne180100IS5_vEEmRKS5_
FNA:5,25,_ZNSt3__116allocator_traitsINS_9allocatorINS_11__hash_nodeINS_12basic_stringIcNS_11char_traitsIcEENS1_IcEEEEPvEEEEE8max_sizeB8ne180100ISA_vEEmRKSA_
FNA:5,0,_ZNSt3__116allocator_traitsINS_9allocatorINS_11__list_nodeINS_4pairIcPKcEEPvEEEEE8max_sizeB8ne180100IS9_vEEmRKS9_
FNA:5,0,_ZNSt3__116allocator_traitsINS_9allocatorINS_11__tree_nodeINS_12__value_typeINS_12basic_stringIcNS_11char_traitsIcEENS1_IcEEEEN7testing8internal34TypeParameterizedTestSuiteRegistry30TypeParameterizedTestSuiteInfoEEEPvEEEEE8max_sizeB8ne180100ISG_vEEmRKSG_
FNA:5,0,_ZNSt3__116allocator_traitsINS_9allocatorINS_11__tree_nodeINS_12__value_typeINS_12basic_stringIcNS_11char_traitsIcEENS1_IcEEEEmEEPvEEEEE8max_sizeB8ne180100ISC_vEEmRKSC_
FNA:5,0,_ZNSt3__116allocator_traitsINS_9allocatorINS_11__tree_nodeINS_12basic_stringIcNS_11char_traitsIcEENS1_IcEEEEPvEEEEE8max_sizeB8ne180100ISA_vEEmRKSA_
FNA:5,624,_ZNSt3__116allocator_traitsINS_9allocatorINS_12basic_stringIcNS_11char_traitsIcEENS1_IcEEEEEEE8max_sizeB8ne180100IS7_vEEmRKS7_
FNA:5,0,_ZNSt3__116allocator_traitsINS_9allocatorINS_6vectorIN7testing8internal13edit_distance8EditTypeENS1_IS6_EEEEEEE8max_sizeB8ne180100IS9_vEEmRKS9_
FNA:5,0,_ZNSt3__116allocator_traitsINS_9allocatorINS_6vectorIdNS1_IdEEEEEEE8max_sizeB8ne180100IS5_vEEmRKS5_
FNA:5,0,_ZNSt3__116allocator_traitsINS_9allocatorIPN7testing11EnvironmentEEEE8max_sizeB8ne180100IS5_vEEmRKS5_
FNA:5,52,_ZNSt3__116allocator_traitsINS_9allocatorIPN7testing17TestEventListenerEEEE8max_sizeB8ne180100IS5_vEEmRKS5_
FNA:5,312,_ZNSt3__116allocator_traitsINS_9allocatorIPN7testing8TestInfoEEEE8max_sizeB8ne180100IS5_vEEmRKS5_
FNA:5,52,_ZNSt3__116allocator_traitsINS_9allocatorIPN7testing9TestSuiteEEEE8max_sizeB8ne180100IS5_vEEmRKS5_
FNA:5,25,_ZNSt3__116allocator_traitsINS_9allocatorIPNS_16__hash_node_baseIPNS_11__hash_nodeINS_12basic_stringIcNS_11char_traitsIcEENS1_IcEEEEPvEEEEEEE8max_sizeB8ne180100ISE_vEEmRKSE_
FNA:5,0,_ZNSt3__116allocator_traitsINS_9allocatorIPcEEE8max_sizeB8ne180100IS3_vEEmRKS3_
FNA:5,650,_ZNSt3__116allocator_traitsINS_9allocatorIcEEE8max_sizeB8ne180100IS2_vEEmRKS2_
FNA:5,0,_ZNSt3__116allocator_traitsINS_9allocatorIdEEE8max_sizeB8ne180100IS2_vEEmRKS2_
FNA:5,364,_ZNSt3__116allocator_traitsINS_9allocatorIiEEE8max_sizeB8ne180100IS2_vEEmRKS2_
FNA:5,0,_ZNSt3__116allocator_traitsINS_9allocatorImEEE8max_sizeB8ne180100IS2_vEEmRKS2_
FNL:6,339,340
FNA:6,0,_ZNSt3__116allocator_traitsINS_9allocatorIN7testing8internal13edit_distance8EditTypeEEEE37select_on_container_copy_constructionB8ne180100IS6_vvEES6_RKS6_
FNA:6,52,_ZNSt3__116allocator_traitsINS_9allocatorINS_12basic_stringIcNS_11char_traitsIcEENS1_IcEEEEEEE37select_on_container_copy_constructionB8ne180100IS7_vvEES7_RKS7_
FNA:6,650,_ZNSt3__116allocator_traitsINS_9allocatorIcEEE37select_on_container_copy_constructionB8ne180100IS2_vvEES2_RKS2_
FNA:6,0,_ZNSt3__116allocator_traitsINS_9allocatorIdEEE37select_on_container_copy_constructionB8ne180100IS2_vvEES2_RKS2_
FNF:7
FNH:7
DA:268,50
DA:269,50
DA:288,596
DA:289,596
DA:290,596
DA:294,1946
DA:296,1946
DA:298,1946
DA:309,2078
DA:311,2078
DA:313,2078
DA:315,25
DA:316,25
DA:317,25
DA:320,2104
DA:322,2104
DA:339,702
DA:340,702
LF:18
LH:18
end_of_record
TN:
SF:/Library/Developer/CommandLineTools/SDKs/MacOSX15.1.sdk/usr/include/c++/v1/__memory/compressed_pair.h
FNL:0,114,115
FNA:0,26,_ZNSt3__117__compressed_pairINS_15__tree_end_nodeIPNS_16__tree_node_baseIPvEEEENS_9allocatorINS_11__tree_nodeINS_12__value_typeINS_12basic_stringIcNS_11char_traitsIcEENS7_IcEEEEN7testing8internal34TypeParameterizedTestSuiteRegistry30TypeParameterizedTestSuiteInfoEEES3_EEEEEC1B8ne180100ILb1EvEEv
FNA:0,26,_ZNSt3__117__compressed_pairINS_15__tree_end_nodeIPNS_16__tree_node_baseIPvEEEENS_9allocatorINS_11__tree_nodeINS_12__value_typeINS_12basic_stringIcNS_11char_traitsIcEENS7_IcEEEEN7testing8internal34TypeParameterizedTestSuiteRegistry30TypeParameterizedTestSuiteInfoEEES3_EEEEEC2B8ne180100ILb1EvEEv
FNA:0,0,_ZNSt3__117__compressed_pairINS_15__tree_end_nodeIPNS_16__tree_node_baseIPvEEEENS_9allocatorINS_11__tree_nodeINS_12__value_typeINS_12basic_stringIcNS_11char_traitsIcEENS7_IcEEEEmEES3_EEEEEC1B8ne180100ILb1EvEEv
FNA:0,0,_ZNSt3__117__compressed_pairINS_15__tree_end_nodeIPNS_16__tree_node_baseIPvEEEENS_9allocatorINS_11__tree_nodeINS_12__value_typeINS_12basic_stringIcNS_11char_traitsIcEENS7_IcEEEEmEES3_EEEEEC2B8ne180100ILb1EvEEv
FNA:0,26,_ZNSt3__117__compressed_pairINS_15__tree_end_nodeIPNS_16__tree_node_baseIPvEEEENS_9allocatorINS_11__tree_nodeINS_12basic_stringIcNS_11char_traitsIcEENS7_IcEEEES3_EEEEEC1B8ne180100ILb1EvEEv
FNA:0,26,_ZNSt3__117__compressed_pairINS_15__tree_end_nodeIPNS_16__tree_node_baseIPvEEEENS_9allocatorINS_11__tree_nodeINS_12basic_stringIcNS_11char_traitsIcEENS7_IcEEEES3_EEEEEC2B8ne180100ILb1EvEEv
FNA:0,130,_ZNSt3__117__compressed_pairINS_16__hash_node_baseIPNS_11__hash_nodeINS_12basic_stringIcNS_11char_traitsIcEENS_9allocatorIcEEEEPvEEEENS6_ISA_EEEC1B8ne180100ILb1EvEEv
FNA:0,130,_ZNSt3__117__compressed_pairINS_16__hash_node_baseIPNS_11__hash_nodeINS_12basic_stringIcNS_11char_traitsIcEENS_9allocatorIcEEEEPvEEEENS6_ISA_EEEC2B8ne180100ILb1EvEEv
FNL:1,118,119
FNA:1,3148,_ZNSt3__117__compressed_pairINS_12basic_stringIcNS_11char_traitsIcEENS_9allocatorIcEEE5__repES5_EC1B8ne180100INS_16__value_init_tagENS_18__default_init_tagEEEOT_OT0_
FNA:1,650,_ZNSt3__117__compressed_pairINS_12basic_stringIcNS_11char_traitsIcEENS_9allocatorIcEEE5__repES5_EC1B8ne180100INS_18__default_init_tagERKS5_EEOT_OT0_
FNA:1,3928,_ZNSt3__117__compressed_pairINS_12basic_stringIcNS_11char_traitsIcEENS_9allocatorIcEEE5__repES5_EC1B8ne180100INS_18__default_init_tagESA_EEOT_OT0_
FNA:1,3148,_ZNSt3__117__compressed_pairINS_12basic_stringIcNS_11char_traitsIcEENS_9allocatorIcEEE5__repES5_EC2B8ne180100INS_16__value_init_tagENS_18__default_init_tagEEEOT_OT0_
FNA:1,650,_ZNSt3__117__compressed_pairINS_12basic_stringIcNS_11char_traitsIcEENS_9allocatorIcEEE5__repES5_EC2B8ne180100INS_18__default_init_tagERKS5_EEOT_OT0_
FNA:1,3928,_ZNSt3__117__compressed_pairINS_12basic_stringIcNS_11char_traitsIcEENS_9allocatorIcEEE5__repES5_EC2B8ne180100INS_18__default_init_tagESA_EEOT_OT0_
FNA:1,0,_ZNSt3__117__compressed_pairINS_12basic_stringIwNS_11char_traitsIwEENS_9allocatorIwEEE5__repES5_EC1B8ne180100INS_18__default_init_tagESA_EEOT_OT0_
FNA:1,0,_ZNSt3__117__compressed_pairINS_12basic_stringIwNS_11char_traitsIwEENS_9allocatorIwEEE5__repES5_EC2B8ne180100INS_18__default_init_tagESA_EEOT_OT0_
FNA:1,1326,_ZNSt3__117__compressed_pairIPKNS_12basic_stringIcNS_11char_traitsIcEENS_9allocatorIcEEEENS_14default_deleteIS7_EEEC1B8ne180100IRS8_NS_16__value_init_tagEEEOT_OT0_
FNA:1,1326,_ZNSt3__117__compressed_pairIPKNS_12basic_stringIcNS_11char_traitsIcEENS_9allocatorIcEEEENS_14default_deleteIS7_EEEC2B8ne180100IRS8_NS_16__value_init_tagEEEOT_OT0_
FNA:1,702,_ZNSt3__117__compressed_pairIPN7testing12TestPropertyENS_9allocatorIS2_EEEC1B8ne180100IDnNS_18__default_init_tagEEEOT_OT0_
FNA:1,702,_ZNSt3__117__compressed_pairIPN7testing12TestPropertyENS_9allocatorIS2_EEEC2B8ne180100IDnNS_18__default_init_tagEEEOT_OT0_
FNA:1,0,_ZNSt3__117__compressed_pairIPN7testing12TestPropertyERNS_9allocatorIS2_EEEC1B8ne180100IDnS6_EEOT_OT0_
FNA:1,0,_ZNSt3__117__compressed_pairIPN7testing12TestPropertyERNS_9allocatorIS2_EEEC2B8ne180100IDnS6_EEOT_OT0_
FNA:1,702,_ZNSt3__117__compressed_pairIPN7testing14TestPartResultENS_9allocatorIS2_EEEC1B8ne180100IDnNS_18__default_init_tagEEEOT_OT0_
FNA:1,702,_ZNSt3__117__compressed_pairIPN7testing14TestPartResultENS_9allocatorIS2_EEEC2B8ne180100IDnNS_18__default_init_tagEEEOT_OT0_
FNA:1,0,_ZNSt3__117__compressed_pairIPN7testing14TestPartResultERNS_9allocatorIS2_EEEC1B8ne180100IDnS6_EEOT_OT0_
FNA:1,0,_ZNSt3__117__compressed_pairIPN7testing14TestPartResultERNS_9allocatorIS2_EEEC2B8ne180100IDnS6_EEOT_OT0_
FNA:1,26,_ZNSt3__117__compressed_pairIPN7testing8internal11ThreadLocalINS_6vectorINS2_9TraceInfoENS_9allocatorIS5_EEEEE18ValueHolderFactoryENS_14default_deleteISA_EEEC1B8ne180100IRSB_NS_16__value_init_tagEEEOT_OT0_
FNA:1,26,_ZNSt3__117__compressed_pairIPN7testing8internal11ThreadLocalINS_6vectorINS2_9TraceInfoENS_9allocatorIS5_EEEEE18ValueHolderFactoryENS_14default_deleteISA_EEEC2B8ne180100IRSB_NS_16__value_init_tagEEEOT_OT0_
FNA:1,26,_ZNSt3__117__compressed_pairIPN7testing8internal11ThreadLocalIPNS1_31TestPartResultReporterInterfaceEE18ValueHolderFactoryENS_14default_deleteIS7_EEEC1B8ne180100IRS8_NS_16__value_init_tagEEEOT_OT0_
FNA:1,26,_ZNSt3__117__compressed_pairIPN7testing8internal11ThreadLocalIPNS1_31TestPartResultReporterInterfaceEE18ValueHolderFactoryENS_14default_deleteIS7_EEEC2B8ne180100IRS8_NS_16__value_init_tagEEEOT_OT0_
FNA:1,0,_ZNSt3__117__compressed_pairIPN7testing8internal13edit_distance8EditTypeENS_9allocatorIS4_EEEC1B8ne180100IDnNS_18__default_init_tagEEEOT_OT0_
FNA:1,0,_ZNSt3__117__compressed_pairIPN7testing8internal13edit_distance8EditTypeENS_9allocatorIS4_EEEC1B8ne180100IDnS7_EEOT_OT0_
FNA:1,0,_ZNSt3__117__compressed_pairIPN7testing8internal13edit_distance8EditTypeENS_9allocatorIS4_EEEC2B8ne180100IDnNS_18__default_init_tagEEEOT_OT0_
FNA:1,0,_ZNSt3__117__compressed_pairIPN7testing8internal13edit_distance8EditTypeENS_9allocatorIS4_EEEC2B8ne180100IDnS7_EEOT_OT0_
FNA:1,0,_ZNSt3__117__compressed_pairIPN7testing8internal13edit_distance8EditTypeERNS_9allocatorIS4_EEEC1B8ne180100IDnS8_EEOT_OT0_
FNA:1,0,_ZNSt3__117__compressed_pairIPN7testing8internal13edit_distance8EditTypeERNS_9allocatorIS4_EEEC2B8ne180100IDnS8_EEOT_OT0_
FNA:1,25,_ZNSt3__117__compressed_pairIPN7testing8internal14GTestFlagSaverENS_14default_deleteIS3_EEEC1B8ne180100IRS4_NS_16__value_init_tagEEEOT_OT0_
FNA:1,25,_ZNSt3__117__compressed_pairIPN7testing8internal14GTestFlagSaverENS_14default_deleteIS3_EEEC2B8ne180100IRS4_NS_16__value_init_tagEEEOT_OT0_
FNA:1,26,_ZNSt3__117__compressed_pairIPN7testing8internal16DeathTestFactoryENS_14default_deleteIS3_EEEC1B8ne180100IRS4_NS_16__value_init_tagEEEOT_OT0_
FNA:1,26,_ZNSt3__117__compressed_pairIPN7testing8internal16DeathTestFactoryENS_14default_deleteIS3_EEEC2B8ne180100IRS4_NS_16__value_init_tagEEEOT_OT0_
FNA:1,26,_ZNSt3__117__compressed_pairIPN7testing8internal24InternalRunDeathTestFlagENS_14default_deleteIS3_EEEC1B8ne180100INS_16__value_init_tagES9_EEOT_OT0_
FNA:1,26,_ZNSt3__117__compressed_pairIPN7testing8internal24InternalRunDeathTestFlagENS_14default_deleteIS3_EEEC2B8ne180100INS_16__value_init_tagES9_EEOT_OT0_
FNA:1,0,_ZNSt3__117__compressed_pairIPN7testing8internal9TraceInfoENS_9allocatorIS3_EEEC1B8ne180100IDnNS_18__default_init_tagEEEOT_OT0_
FNA:1,0,_ZNSt3__117__compressed_pairIPN7testing8internal9TraceInfoENS_9allocatorIS3_EEEC2B8ne180100IDnNS_18__default_init_tagEEEOT_OT0_
FNA:1,0,_ZNSt3__117__compressed_pairIPN7testing8internal9TraceInfoERNS_9allocatorIS3_EEEC1B8ne180100IDnS7_EEOT_OT0_
FNA:1,0,_ZNSt3__117__compressed_pairIPN7testing8internal9TraceInfoERNS_9allocatorIS3_EEEC2B8ne180100IDnS7_EEOT_OT0_
FNA:1,25,_ZNSt3__117__compressed_pairIPNS_11__hash_nodeINS_12basic_stringIcNS_11char_traitsIcEENS_9allocatorIcEEEEPvEENS_22__hash_node_destructorINS5_IS9_EEEEEC1B8ne180100IRSA_SD_EEOT_OT0_
FNA:1,25,_ZNSt3__117__compressed_pairIPNS_11__hash_nodeINS_12basic_stringIcNS_11char_traitsIcEENS_9allocatorIcEEEEPvEENS_22__hash_node_destructorINS5_IS9_EEEEEC2B8ne180100IRSA_SD_EEOT_OT0_
FNA:1,0,_ZNSt3__117__compressed_pairIPNS_11__tree_nodeINS_12__value_typeINS_12basic_stringIcNS_11char_traitsIcEENS_9allocatorIcEEEEN7testing8internal34TypeParameterizedTestSuiteRegistry30TypeParameterizedTestSuiteInfoEEEPvEENS_22__tree_node_destructorINS6_ISF_EEEEEC1B8ne180100IRSG_SJ_EEOT_OT0_
FNA:1,0,_ZNSt3__117__compressed_pairIPNS_11__tree_nodeINS_12__value_typeINS_12basic_stringIcNS_11char_traitsIcEENS_9allocatorIcEEEEN7testing8internal34TypeParameterizedTestSuiteRegistry30TypeParameterizedTestSuiteInfoEEEPvEENS_22__tree_node_destructorINS6_ISF_EEEEEC2B8ne180100IRSG_SJ_EEOT_OT0_
FNA:1,0,_ZNSt3__117__compressed_pairIPNS_11__tree_nodeINS_12__value_typeINS_12basic_stringIcNS_11char_traitsIcEENS_9allocatorIcEEEEmEEPvEENS_22__tree_node_destructorINS6_ISB_EEEEEC1B8ne180100IRSC_SF_EEOT_OT0_
FNA:1,0,_ZNSt3__117__compressed_pairIPNS_11__tree_nodeINS_12__value_typeINS_12basic_stringIcNS_11char_traitsIcEENS_9allocatorIcEEEEmEEPvEENS_22__tree_node_destructorINS6_ISB_EEEEEC2B8ne180100IRSC_SF_EEOT_OT0_
FNA:1,0,_ZNSt3__117__compressed_pairIPNS_11__tree_nodeINS_12basic_stringIcNS_11char_traitsIcEENS_9allocatorIcEEEEPvEENS_22__tree_node_destructorINS5_IS9_EEEEEC1B8ne180100IRSA_SD_EEOT_OT0_
FNA:1,0,_ZNSt3__117__compressed_pairIPNS_11__tree_nodeINS_12basic_stringIcNS_11char_traitsIcEENS_9allocatorIcEEEEPvEENS_22__tree_node_destructorINS5_IS9_EEEEEC2B8ne180100IRSA_SD_EEOT_OT0_
FNA:1,364,_ZNSt3__117__compressed_pairIPNS_12basic_stringIcNS_11char_traitsIcEENS_9allocatorIcEEEENS4_IS6_EEEC1B8ne180100IDnNS_18__default_init_tagEEEOT_OT0_
FNA:1,52,_ZNSt3__117__compressed_pairIPNS_12basic_stringIcNS_11char_traitsIcEENS_9allocatorIcEEEENS4_IS6_EEEC1B8ne180100IDnS8_EEOT_OT0_
FNA:1,364,_ZNSt3__117__compressed_pairIPNS_12basic_stringIcNS_11char_traitsIcEENS_9allocatorIcEEEENS4_IS6_EEEC2B8ne180100IDnNS_18__default_init_tagEEEOT_OT0_
FNA:1,52,_ZNSt3__117__compressed_pairIPNS_12basic_stringIcNS_11char_traitsIcEENS_9allocatorIcEEEENS4_IS6_EEEC2B8ne180100IDnS8_EEOT_OT0_
FNA:1,145,_ZNSt3__117__compressed_pairIPNS_12basic_stringIcNS_11char_traitsIcEENS_9allocatorIcEEEENS_14default_deleteIS6_EEEC1B8ne180100INS_16__value_init_tagESC_EEOT_OT0_
FNA:1,0,_ZNSt3__117__compressed_pairIPNS_12basic_stringIcNS_11char_traitsIcEENS_9allocatorIcEEEENS_14default_deleteIS6_EEEC1B8ne180100IRS7_NS_16__value_init_tagEEEOT_OT0_
FNA:1,145,_ZNSt3__117__compressed_pairIPNS_12basic_stringIcNS_11char_traitsIcEENS_9allocatorIcEEEENS_14default_deleteIS6_EEEC2B8ne180100INS_16__value_init_tagESC_EEOT_OT0_
FNA:1,0,_ZNSt3__117__compressed_pairIPNS_12basic_stringIcNS_11char_traitsIcEENS_9allocatorIcEEEENS_14default_deleteIS6_EEEC2B8ne180100IRS7_NS_16__value_init_tagEEEOT_OT0_
FNA:1,286,_ZNSt3__117__compressed_pairIPNS_12basic_stringIcNS_11char_traitsIcEENS_9allocatorIcEEEERNS4_IS6_EEEC1B8ne180100IDnS9_EEOT_OT0_
FNA:1,286,_ZNSt3__117__compressed_pairIPNS_12basic_stringIcNS_11char_traitsIcEENS_9allocatorIcEEEERNS4_IS6_EEEC2B8ne180100IDnS9_EEOT_OT0_
FNA:1,1470,_ZNSt3__117__compressed_pairIPNS_18basic_stringstreamIcNS_11char_traitsIcEENS_9allocatorIcEEEENS_14default_deleteIS6_EEEC1B8ne180100IRS7_NS_16__value_init_tagEEEOT_OT0_
FNA:1,1470,_ZNSt3__117__compressed_pairIPNS_18basic_stringstreamIcNS_11char_traitsIcEENS_9allocatorIcEEEENS_14default_deleteIS6_EEEC2B8ne180100IRS7_NS_16__value_init_tagEEEOT_OT0_
FNA:1,0,_ZNSt3__117__compressed_pairIPNS_6vectorIN7testing8internal13edit_distance8EditTypeENS_9allocatorIS5_EEEENS6_IS8_EEEC1B8ne180100IDnNS_18__default_init_tagEEEOT_OT0_
FNA:1,0,_ZNSt3__117__compressed_pairIPNS_6vectorIN7testing8internal13edit_distance8EditTypeENS_9allocatorIS5_EEEENS6_IS8_EEEC2B8ne180100IDnNS_18__default_init_tagEEEOT_OT0_
FNA:1,0,_ZNSt3__117__compressed_pairIPNS_6vectorIdNS_9allocatorIdEEEENS2_IS4_EEEC1B8ne180100IDnNS_18__default_init_tagEEEOT_OT0_
FNA:1,0,_ZNSt3__117__compressed_pairIPNS_6vectorIdNS_9allocatorIdEEEENS2_IS4_EEEC2B8ne180100IDnNS_18__default_init_tagEEEOT_OT0_
FNA:1,26,_ZNSt3__117__compressed_pairIPPN7testing11EnvironmentENS_9allocatorIS3_EEEC1B8ne180100IDnNS_18__default_init_tagEEEOT_OT0_
FNA:1,26,_ZNSt3__117__compressed_pairIPPN7testing11EnvironmentENS_9allocatorIS3_EEEC2B8ne180100IDnNS_18__default_init_tagEEEOT_OT0_
FNA:1,0,_ZNSt3__117__compressed_pairIPPN7testing11EnvironmentERNS_9allocatorIS3_EEEC1B8ne180100IDnS7_EEOT_OT0_
FNA:1,0,_ZNSt3__117__compressed_pairIPPN7testing11EnvironmentERNS_9allocatorIS3_EEEC2B8ne180100IDnS7_EEOT_OT0_
FNA:1,26,_ZNSt3__117__compressed_pairIPPN7testing17TestEventListenerENS_9allocatorIS3_EEEC1B8ne180100IDnNS_18__default_init_tagEEEOT_OT0_
FNA:1,26,_ZNSt3__117__compressed_pairIPPN7testing17TestEventListenerENS_9allocatorIS3_EEEC2B8ne180100IDnNS_18__default_init_tagEEEOT_OT0_
FNA:1,26,_ZNSt3__117__compressed_pairIPPN7testing17TestEventListenerERNS_9allocatorIS3_EEEC1B8ne180100IDnS7_EEOT_OT0_
FNA:1,26,_ZNSt3__117__compressed_pairIPPN7testing17TestEventListenerERNS_9allocatorIS3_EEEC2B8ne180100IDnS7_EEOT_OT0_
FNA:1,26,_ZNSt3__117__compressed_pairIPPN7testing8TestInfoENS_9allocatorIS3_EEEC1B8ne180100IDnNS_18__default_init_tagEEEOT_OT0_
FNA:1,26,_ZNSt3__117__compressed_pairIPPN7testing8TestInfoENS_9allocatorIS3_EEEC2B8ne180100IDnNS_18__default_init_tagEEEOT_OT0_
FNA:1,156,_ZNSt3__117__compressed_pairIPPN7testing8TestInfoERNS_9allocatorIS3_EEEC1B8ne180100IDnS7_EEOT_OT0_
FNA:1,156,_ZNSt3__117__compressed_pairIPPN7testing8TestInfoERNS_9allocatorIS3_EEEC2B8ne180100IDnS7_EEOT_OT0_
FNA:1,26,_ZNSt3__117__compressed_pairIPPN7testing8internal30ParameterizedTestSuiteInfoBaseENS_9allocatorIS4_EEEC1B8ne180100IDnNS_18__default_init_tagEEEOT_OT0_
FNA:1,26,_ZNSt3__117__compressed_pairIPPN7testing8internal30ParameterizedTestSuiteInfoBaseENS_9allocatorIS4_EEEC2B8ne180100IDnNS_18__default_init_tagEEEOT_OT0_
FNA:1,26,_ZNSt3__117__compressed_pairIPPN7testing9TestSuiteENS_9allocatorIS3_EEEC1B8ne180100IDnNS_18__default_init_tagEEEOT_OT0_
FNA:1,26,_ZNSt3__117__compressed_pairIPPN7testing9TestSuiteENS_9allocatorIS3_EEEC2B8ne180100IDnNS_18__default_init_tagEEEOT_OT0_
FNA:1,26,_ZNSt3__117__compressed_pairIPPN7testing9TestSuiteERNS_9allocatorIS3_EEEC1B8ne180100IDnS7_EEOT_OT0_
FNA:1,26,_ZNSt3__117__compressed_pairIPPN7testing9TestSuiteERNS_9allocatorIS3_EEEC2B8ne180100IDnS7_EEOT_OT0_
FNA:1,130,_ZNSt3__117__compressed_pairIPPNS_16__hash_node_baseIPNS_11__hash_nodeINS_12basic_stringIcNS_11char_traitsIcEENS_9allocatorIcEEEEPvEEEENS_25__bucket_list_deallocatorINS6_ISD_EEEEEC1B8ne180100INS_16__value_init_tagESK_EEOT_OT0_
FNA:1,130,_ZNSt3__117__compressed_pairIPPNS_16__hash_node_baseIPNS_11__hash_nodeINS_12basic_stringIcNS_11char_traitsIcEENS_9allocatorIcEEEEPvEEEENS_25__bucket_list_deallocatorINS6_ISD_EEEEEC2B8ne180100INS_16__value_init_tagESK_EEOT_OT0_
FNA:1,0,_ZNSt3__117__compressed_pairIPPcNS_9allocatorIS1_EEEC1B8ne180100IDnNS_18__default_init_tagEEEOT_OT0_
FNA:1,0,_ZNSt3__117__compressed_pairIPPcNS_9allocatorIS1_EEEC2B8ne180100IDnNS_18__default_init_tagEEEOT_OT0_
FNA:1,0,_ZNSt3__117__compressed_pairIPPcRNS_9allocatorIS1_EEEC1B8ne180100IDnS5_EEOT_OT0_
FNA:1,0,_ZNSt3__117__compressed_pairIPPcRNS_9allocatorIS1_EEEC2B8ne180100IDnS5_EEOT_OT0_
FNA:1,0,_ZNSt3__117__compressed_pairIPdNS_9allocatorIdEEEC1B8ne180100IDnNS_18__default_init_tagEEEOT_OT0_
FNA:1,0,_ZNSt3__117__compressed_pairIPdNS_9allocatorIdEEEC1B8ne180100IDnS3_EEOT_OT0_
FNA:1,0,_ZNSt3__117__compressed_pairIPdNS_9allocatorIdEEEC2B8ne180100IDnNS_18__default_init_tagEEEOT_OT0_
FNA:1,0,_ZNSt3__117__compressed_pairIPdNS_9allocatorIdEEEC2B8ne180100IDnS3_EEOT_OT0_
FNA:1,52,_ZNSt3__117__compressed_pairIPiNS_9allocatorIiEEEC1B8ne180100IDnNS_18__default_init_tagEEEOT_OT0_
FNA:1,52,_ZNSt3__117__compressed_pairIPiNS_9allocatorIiEEEC2B8ne180100IDnNS_18__default_init_tagEEEOT_OT0_
FNA:1,182,_ZNSt3__117__compressed_pairIPiRNS_9allocatorIiEEEC1B8ne180100IDnS4_EEOT_OT0_
FNA:1,182,_ZNSt3__117__compressed_pairIPiRNS_9allocatorIiEEEC2B8ne180100IDnS4_EEOT_OT0_
FNA:1,0,_ZNSt3__117__compressed_pairIPmNS_9allocatorImEEEC1B8ne180100IDnNS_18__default_init_tagEEEOT_OT0_
FNA:1,0,_ZNSt3__117__compressed_pairIPmNS_9allocatorImEEEC2B8ne180100IDnNS_18__default_init_tagEEEOT_OT0_
FNA:1,0,_ZNSt3__117__compressed_pairIPmRNS_9allocatorImEEEC1B8ne180100IDnS4_EEOT_OT0_
FNA:1,0,_ZNSt3__117__compressed_pairIPmRNS_9allocatorImEEEC2B8ne180100IDnS4_EEOT_OT0_
FNA:1,130,_ZNSt3__117__compressed_pairIfNS_8equal_toINS_12basic_stringIcNS_11char_traitsIcEENS_9allocatorIcEEEEEEEC1B8ne180100IfNS_18__default_init_tagEEEOT_OT0_
FNA:1,130,_ZNSt3__117__compressed_pairIfNS_8equal_toINS_12basic_stringIcNS_11char_traitsIcEENS_9allocatorIcEEEEEEEC2B8ne180100IfNS_18__default_init_tagEEEOT_OT0_
FNA:1,26,_ZNSt3__117__compressed_pairImNS_19__map_value_compareINS_12basic_stringIcNS_11char_traitsIcEENS_9allocatorIcEEEENS_12__value_typeIS7_N7testing8internal34TypeParameterizedTestSuiteRegistry30TypeParameterizedTestSuiteInfoEEENS_4lessIS7_EELb1EEEEC1B8ne180100IiRKSG_EEOT_OT0_
FNA:1,26,_ZNSt3__117__compressed_pairImNS_19__map_value_compareINS_12basic_stringIcNS_11char_traitsIcEENS_9allocatorIcEEEENS_12__value_typeIS7_N7testing8internal34TypeParameterizedTestSuiteRegistry30TypeParameterizedTestSuiteInfoEEENS_4lessIS7_EELb1EEEEC2B8ne180100IiRKSG_EEOT_OT0_
FNA:1,0,_ZNSt3__117__compressed_pairImNS_19__map_value_compareINS_12basic_stringIcNS_11char_traitsIcEENS_9allocatorIcEEEENS_12__value_typeIS7_mEENS_4lessIS7_EELb1EEEEC1B8ne180100IiRKSC_EEOT_OT0_
FNA:1,0,_ZNSt3__117__compressed_pairImNS_19__map_value_compareINS_12basic_stringIcNS_11char_traitsIcEENS_9allocatorIcEEEENS_12__value_typeIS7_mEENS_4lessIS7_EELb1EEEEC2B8ne180100IiRKSC_EEOT_OT0_
FNA:1,130,_ZNSt3__117__compressed_pairImNS_4hashINS_12basic_stringIcNS_11char_traitsIcEENS_9allocatorIcEEEEEEEC1B8ne180100IiNS_18__default_init_tagEEEOT_OT0_
FNA:1,130,_ZNSt3__117__compressed_pairImNS_4hashINS_12basic_stringIcNS_11char_traitsIcEENS_9allocatorIcEEEEEEEC2B8ne180100IiNS_18__default_init_tagEEEOT_OT0_
FNA:1,26,_ZNSt3__117__compressed_pairImNS_4lessINS_12basic_stringIcNS_11char_traitsIcEENS_9allocatorIcEEEEEEEC1B8ne180100IiRKS8_EEOT_OT0_
FNA:1,26,_ZNSt3__117__compressed_pairImNS_4lessINS_12basic_stringIcNS_11char_traitsIcEENS_9allocatorIcEEEEEEEC2B8ne180100IiRKS8_EEOT_OT0_
FNA:1,0,_ZNSt3__117__compressed_pairImNS_9allocatorINS_11__list_nodeINS_4pairIcPKcEEPvEEEEEC1B8ne180100IiNS_18__default_init_tagEEEOT_OT0_
FNA:1,0,_ZNSt3__117__compressed_pairImNS_9allocatorINS_11__list_nodeINS_4pairIcPKcEEPvEEEEEC2B8ne180100IiNS_18__default_init_tagEEEOT_OT0_
FNA:1,130,_ZNSt3__117__compressed_pairImNS_9allocatorIPNS_16__hash_node_baseIPNS_11__hash_nodeINS_12basic_stringIcNS_11char_traitsIcEENS1_IcEEEEPvEEEEEEEC1B8ne180100IiNS_18__default_init_tagEEEOT_OT0_
FNA:1,130,_ZNSt3__117__compressed_pairImNS_9allocatorIPNS_16__hash_node_baseIPNS_11__hash_nodeINS_12basic_stringIcNS_11char_traitsIcEENS1_IcEEEEPvEEEEEEEC2B8ne180100IiNS_18__default_init_tagEEEOT_OT0_
FNL:2,129,130
FNA:2,4899,_ZNSt3__117__compressed_pairINS_12basic_stringIcNS_11char_traitsIcEENS_9allocatorIcEEE5__repES5_E5firstB8ne180100Ev
FNA:2,0,_ZNSt3__117__compressed_pairINS_15__tree_end_nodeIPNS_16__tree_node_baseIPvEEEENS_9allocatorINS_11__tree_nodeINS_12__value_typeINS_12basic_stringIcNS_11char_traitsIcEENS7_IcEEEEN7testing8internal12CodeLocationEEES3_EEEEE5firstB8ne180100Ev
FNA:2,52,_ZNSt3__117__compressed_pairINS_15__tree_end_nodeIPNS_16__tree_node_baseIPvEEEENS_9allocatorINS_11__tree_nodeINS_12__value_typeINS_12basic_stringIcNS_11char_traitsIcEENS7_IcEEEEN7testing8internal34TypeParameterizedTestSuiteRegistry30TypeParameterizedTestSuiteInfoEEES3_EEEEE5firstB8ne180100Ev
FNA:2,0,_ZNSt3__117__compressed_pairINS_15__tree_end_nodeIPNS_16__tree_node_baseIPvEEEENS_9allocatorINS_11__tree_nodeINS_12__value_typeINS_12basic_stringIcNS_11char_traitsIcEENS7_IcEEEEmEES3_EEEEE5firstB8ne180100Ev
FNA:2,26,_ZNSt3__117__compressed_pairINS_15__tree_end_nodeIPNS_16__tree_node_baseIPvEEEENS_9allocatorINS_11__tree_nodeINS_12basic_stringIcNS_11char_traitsIcEENS7_IcEEEES3_EEEEE5firstB8ne180100Ev
FNA:2,385,_ZNSt3__117__compressed_pairINS_16__hash_node_baseIPNS_11__hash_nodeINS_12basic_stringIcNS_11char_traitsIcEENS_9allocatorIcEEEEPvEEEENS6_ISA_EEE5firstB8ne180100Ev
FNA:2,0,_ZNSt3__117__compressed_pairIPKNS_12basic_stringIcNS_11char_traitsIcEENS_9allocatorIcEEEENS_14default_deleteIS7_EEE5firstB8ne180100Ev
FNA:2,0,_ZNSt3__117__compressed_pairIPN7testing12TestPropertyENS_9allocatorIS2_EEE5firstB8ne180100Ev
FNA:2,0,_ZNSt3__117__compressed_pairIPN7testing12TestPropertyERNS_9allocatorIS2_EEE5firstB8ne180100Ev
FNA:2,0,_ZNSt3__117__compressed_pairIPN7testing14TestPartResultENS_9allocatorIS2_EEE5firstB8ne180100Ev
FNA:2,0,_ZNSt3__117__compressed_pairIPN7testing14TestPartResultERNS_9allocatorIS2_EEE5firstB8ne180100Ev
FNA:2,0,_ZNSt3__117__compressed_pairIPN7testing8internal11ThreadLocalINS_6vectorINS2_9TraceInfoENS_9allocatorIS5_EEEEE18ValueHolderFactoryENS_14default_deleteISA_EEE5firstB8ne180100Ev
FNA:2,0,_ZNSt3__117__compressed_pairIPN7testing8internal11ThreadLocalIPNS1_31TestPartResultReporterInterfaceEE18ValueHolderFactoryENS_14default_deleteIS7_EEE5firstB8ne180100Ev
FNA:2,0,_ZNSt3__117__compressed_pairIPN7testing8internal13edit_distance8EditTypeENS_9allocatorIS4_EEE5firstB8ne180100Ev
FNA:2,0,_ZNSt3__117__compressed_pairIPN7testing8internal13edit_distance8EditTypeERNS_9allocatorIS4_EEE5firstB8ne180100Ev
FNA:2,50,_ZNSt3__117__compressed_pairIPN7testing8internal14GTestFlagSaverENS_14default_deleteIS3_EEE5firstB8ne180100Ev
FNA:2,0,_ZNSt3__117__compressed_pairIPN7testing8internal16DeathTestFactoryENS_14default_deleteIS3_EEE5firstB8ne180100Ev
FNA:2,52,_ZNSt3__117__compressed_pairIPN7testing8internal24InternalRunDeathTestFlagENS_14default_deleteIS3_EEE5firstB8ne180100Ev
FNA:2,0,_ZNSt3__117__compressed_pairIPN7testing8internal9TraceInfoENS_9allocatorIS3_EEE5firstB8ne180100Ev
FNA:2,0,_ZNSt3__117__compressed_pairIPN7testing8internal9TraceInfoERNS_9allocatorIS3_EEE5firstB8ne180100Ev
FNA:2,100,_ZNSt3__117__compressed_pairIPNS_11__hash_nodeINS_12basic_stringIcNS_11char_traitsIcEENS_9allocatorIcEEEEPvEENS_22__hash_node_destructorINS5_IS9_EEEEE5firstB8ne180100Ev
FNA:2,0,_ZNSt3__117__compressed_pairIPNS_11__tree_nodeINS_12__value_typeINS_12basic_stringIcNS_11char_traitsIcEENS_9allocatorIcEEEEN7testing8internal34TypeParameterizedTestSuiteRegistry30TypeParameterizedTestSuiteInfoEEEPvEENS_22__tree_node_destructorINS6_ISF_EEEEE5firstB8ne180100Ev
FNA:2,0,_ZNSt3__117__compressed_pairIPNS_11__tree_nodeINS_12__value_typeINS_12basic_stringIcNS_11char_traitsIcEENS_9allocatorIcEEEEmEEPvEENS_22__tree_node_destructorINS6_ISB_EEEEE5firstB8ne180100Ev
FNA:2,0,_ZNSt3__117__compressed_pairIPNS_11__tree_nodeINS_12basic_stringIcNS_11char_traitsIcEENS_9allocatorIcEEEEPvEENS_22__tree_node_destructorINS5_IS9_EEEEE5firstB8ne180100Ev
FNA:2,936,_ZNSt3__117__compressed_pairIPNS_12basic_stringIcNS_11char_traitsIcEENS_9allocatorIcEEEENS4_IS6_EEE5firstB8ne180100Ev
FNA:2,290,_ZNSt3__117__compressed_pairIPNS_12basic_stringIcNS_11char_traitsIcEENS_9allocatorIcEEEENS_14default_deleteIS6_EEE5firstB8ne180100Ev
FNA:2,572,_ZNSt3__117__compressed_pairIPNS_12basic_stringIcNS_11char_traitsIcEENS_9allocatorIcEEEERNS4_IS6_EEE5firstB8ne180100Ev
FNA:2,2940,_ZNSt3__117__compressed_pairIPNS_18basic_stringstreamIcNS_11char_traitsIcEENS_9allocatorIcEEEENS_14default_deleteIS6_EEE5firstB8ne180100Ev
FNA:2,0,_ZNSt3__117__compressed_pairIPNS_6vectorIN7testing8internal13edit_distance8EditTypeENS_9allocatorIS5_EEEENS6_IS8_EEE5firstB8ne180100Ev
FNA:2,0,_ZNSt3__117__compressed_pairIPNS_6vectorIdNS_9allocatorIdEEEENS2_IS4_EEE5firstB8ne180100Ev
FNA:2,0,_ZNSt3__117__compressed_pairIPPN7testing11EnvironmentENS_9allocatorIS3_EEE5firstB8ne180100Ev
FNA:2,0,_ZNSt3__117__compressed_pairIPPN7testing11EnvironmentERNS_9allocatorIS3_EEE5firstB8ne180100Ev
FNA:2,52,_ZNSt3__117__compressed_pairIPPN7testing17TestEventListenerENS_9allocatorIS3_EEE5firstB8ne180100Ev
FNA:2,52,_ZNSt3__117__compressed_pairIPPN7testing17TestEventListenerERNS_9allocatorIS3_EEE5firstB8ne180100Ev
FNA:2,806,_ZNSt3__117__compressed_pairIPPN7testing8TestInfoENS_9allocatorIS3_EEE5firstB8ne180100Ev
FNA:2,312,_ZNSt3__117__compressed_pairIPPN7testing8TestInfoERNS_9allocatorIS3_EEE5firstB8ne180100Ev
FNA:2,52,_ZNSt3__117__compressed_pairIPPN7testing9TestSuiteENS_9allocatorIS3_EEE5firstB8ne180100Ev
FNA:2,52,_ZNSt3__117__compressed_pairIPPN7testing9TestSuiteERNS_9allocatorIS3_EEE5firstB8ne180100Ev
FNA:2,414,_ZNSt3__117__compressed_pairIPPNS_16__hash_node_baseIPNS_11__hash_nodeINS_12basic_stringIcNS_11char_traitsIcEENS_9allocatorIcEEEEPvEEEENS_25__bucket_list_deallocatorINS6_ISD_EEEEE5firstB8ne180100Ev
FNA:2,0,_ZNSt3__117__compressed_pairIPPcNS_9allocatorIS1_EEE5firstB8ne180100Ev
FNA:2,0,_ZNSt3__117__compressed_pairIPPcRNS_9allocatorIS1_EEE5firstB8ne180100Ev
FNA:2,0,_ZNSt3__117__compressed_pairIPdNS_9allocatorIdEEE5firstB8ne180100Ev
FNA:2,858,_ZNSt3__117__compressed_pairIPiNS_9allocatorIiEEE5firstB8ne180100Ev
FNA:2,364,_ZNSt3__117__compressed_pairIPiRNS_9allocatorIiEEE5firstB8ne180100Ev
FNA:2,0,_ZNSt3__117__compressed_pairIPmNS_9allocatorImEEE5firstB8ne180100Ev
FNA:2,0,_ZNSt3__117__compressed_pairIPmRNS_9allocatorImEEE5firstB8ne180100Ev
FNA:2,102,_ZNSt3__117__compressed_pairIfNS_8equal_toINS_12basic_stringIcNS_11char_traitsIcEENS_9allocatorIcEEEEEEE5firstB8ne180100Ev
FNA:2,0,_ZNSt3__117__compressed_pairImNS_19__map_value_compareINS_12basic_stringIcNS_11char_traitsIcEENS_9allocatorIcEEEENS_12__value_typeIS7_N7testing8internal34TypeParameterizedTestSuiteRegistry30TypeParameterizedTestSuiteInfoEEENS_4lessIS7_EELb1EEEE5firstB8ne180100Ev
FNA:2,0,_ZNSt3__117__compressed_pairImNS_19__map_value_compareINS_12basic_stringIcNS_11char_traitsIcEENS_9allocatorIcEEEENS_12__value_typeIS7_mEENS_4lessIS7_EELb1EEEE5firstB8ne180100Ev
FNA:2,204,_ZNSt3__117__compressed_pairImNS_4hashINS_12basic_stringIcNS_11char_traitsIcEENS_9allocatorIcEEEEEEE5firstB8ne180100Ev
FNA:2,0,_ZNSt3__117__compressed_pairImNS_4lessINS_12basic_stringIcNS_11char_traitsIcEENS_9allocatorIcEEEEEEE5firstB8ne180100Ev
FNA:2,0,_ZNSt3__117__compressed_pairImNS_9allocatorINS_11__list_nodeINS_4pairIcPKcEEPvEEEEE5firstB8ne180100Ev
FNA:2,128,_ZNSt3__117__compressed_pairImNS_9allocatorIPNS_16__hash_node_baseIPNS_11__hash_nodeINS_12basic_stringIcNS_11char_traitsIcEENS1_IcEEEEPvEEEEEEE5firstB8ne180100Ev
FNL:3,133,134
FNA:3,0,_ZNKSt3__117__compressed_pairINS_12basic_stringIDiNS_11char_traitsIDiEENS_9allocatorIDiEEE5__repES5_E5firstB8ne180100Ev
FNA:3,0,_ZNKSt3__117__compressed_pairINS_12basic_stringIDsNS_11char_traitsIDsEENS_9allocatorIDsEEE5__repES5_E5firstB8ne180100Ev
FNA:3,112337,_ZNKSt3__117__compressed_pairINS_12basic_stringIcNS_11char_traitsIcEENS_9allocatorIcEEE5__repES5_E5firstB8ne180100Ev
FNA:3,0,_ZNKSt3__117__compressed_pairINS_12basic_stringIwNS_11char_traitsIwEENS_9allocatorIwEEE5__repES5_E5firstB8ne180100Ev
FNA:3,0,_ZNKSt3__117__compressed_pairINS_15__tree_end_nodeIPNS_16__tree_node_baseIPvEEEENS_9allocatorINS_11__tree_nodeINS_12__value_typeINS_12basic_stringIcNS_11char_traitsIcEENS7_IcEEEEN7testing8internal12CodeLocationEEES3_EEEEE5firstB8ne180100Ev
FNA:3,0,_ZNKSt3__117__compressed_pairINS_15__tree_end_nodeIPNS_16__tree_node_baseIPvEEEENS_9allocatorINS_11__tree_nodeINS_12__value_typeINS_12basic_stringIcNS_11char_traitsIcEENS7_IcEEEEN7testing8internal34TypeParameterizedTestSuiteRegistry30TypeParameterizedTestSuiteInfoEEES3_EEEEE5firstB8ne180100Ev
FNA:3,0,_ZNKSt3__117__compressed_pairINS_15__tree_end_nodeIPNS_16__tree_node_baseIPvEEEENS_9allocatorINS_11__tree_nodeINS_12__value_typeINS_12basic_stringIcNS_11char_traitsIcEENS7_IcEEEEmEES3_EEEEE5firstB8ne180100Ev
FNA:3,0,_ZNKSt3__117__compressed_pairINS_15__tree_end_nodeIPNS_16__tree_node_baseIPvEEEENS_9allocatorINS_11__tree_nodeINS_12basic_stringIcNS_11char_traitsIcEENS7_IcEEEES3_EEEEE5firstB8ne180100Ev
FNA:3,701,_ZNKSt3__117__compressed_pairIPKNS_12basic_stringIcNS_11char_traitsIcEENS_9allocatorIcEEEENS_14default_deleteIS7_EEE5firstB8ne180100Ev
FNA:3,0,_ZNKSt3__117__compressed_pairIPN7testing12TestPropertyENS_9allocatorIS2_EEE5firstB8ne180100Ev
FNA:3,0,_ZNKSt3__117__compressed_pairIPN7testing12TestPropertyERNS_9allocatorIS2_EEE5firstB8ne180100Ev
FNA:3,0,_ZNKSt3__117__compressed_pairIPN7testing14TestPartResultENS_9allocatorIS2_EEE5firstB8ne180100Ev
FNA:3,0,_ZNKSt3__117__compressed_pairIPN7testing14TestPartResultERNS_9allocatorIS2_EEE5firstB8ne180100Ev
FNA:3,0,_ZNKSt3__117__compressed_pairIPN7testing8internal11ThreadLocalINS_6vectorINS2_9TraceInfoENS_9allocatorIS5_EEEEE18ValueHolderFactoryENS_14default_deleteISA_EEE5firstB8ne180100Ev
FNA:3,0,_ZNKSt3__117__compressed_pairIPN7testing8internal11ThreadLocalIPNS1_31TestPartResultReporterInterfaceEE18ValueHolderFactoryENS_14default_deleteIS7_EEE5firstB8ne180100Ev
FNA:3,0,_ZNKSt3__117__compressed_pairIPN7testing8internal13edit_distance8EditTypeENS_9allocatorIS4_EEE5firstB8ne180100Ev
FNA:3,0,_ZNKSt3__117__compressed_pairIPN7testing8internal13edit_distance8EditTypeERNS_9allocatorIS4_EEE5firstB8ne180100Ev
FNA:3,0,_ZNKSt3__117__compressed_pairIPN7testing8internal16DeathTestFactoryENS_14default_deleteIS3_EEE5firstB8ne180100Ev
FNA:3,52,_ZNKSt3__117__compressed_pairIPN7testing8internal24InternalRunDeathTestFlagENS_14default_deleteIS3_EEE5firstB8ne180100Ev
FNA:3,0,_ZNKSt3__117__compressed_pairIPN7testing8internal9TraceInfoENS_9allocatorIS3_EEE5firstB8ne180100Ev
FNA:3,0,_ZNKSt3__117__compressed_pairIPN7testing8internal9TraceInfoERNS_9allocatorIS3_EEE5firstB8ne180100Ev
FNA:3,125,_ZNKSt3__117__compressed_pairIPNS_11__hash_nodeINS_12basic_stringIcNS_11char_traitsIcEENS_9allocatorIcEEEEPvEENS_22__hash_node_destructorINS5_IS9_EEEEE5firstB8ne180100Ev
FNA:3,0,_ZNKSt3__117__compressed_pairIPNS_11__tree_nodeINS_12__value_typeINS_12basic_stringIcNS_11char_traitsIcEENS_9allocatorIcEEEEN7testing8internal34TypeParameterizedTestSuiteRegistry30TypeParameterizedTestSuiteInfoEEEPvEENS_22__tree_node_destructorINS6_ISF_EEEEE5firstB8ne180100Ev
FNA:3,0,_ZNKSt3__117__compressed_pairIPNS_11__tree_nodeINS_12__value_typeINS_12basic_stringIcNS_11char_traitsIcEENS_9allocatorIcEEEEmEEPvEENS_22__tree_node_destructorINS6_ISB_EEEEE5firstB8ne180100Ev
FNA:3,0,_ZNKSt3__117__compressed_pairIPNS_11__tree_nodeINS_12basic_stringIcNS_11char_traitsIcEENS_9allocatorIcEEEEPvEENS_22__tree_node_destructorINS5_IS9_EEEEE5firstB8ne180100Ev
FNA:3,494,_ZNKSt3__117__compressed_pairIPNS_12basic_stringIcNS_11char_traitsIcEENS_9allocatorIcEEEENS4_IS6_EEE5firstB8ne180100Ev
FNA:3,0,_ZNKSt3__117__compressed_pairIPNS_12basic_stringIcNS_11char_traitsIcEENS_9allocatorIcEEEENS_14default_deleteIS6_EEE5firstB8ne180100Ev
FNA:3,103,_ZNKSt3__117__compressed_pairIPNS_12basic_stringIcNS_11char_traitsIcEENS_9allocatorIcEEEERNS4_IS6_EEE5firstB8ne180100Ev
FNA:3,15174,_ZNKSt3__117__compressed_pairIPNS_18basic_stringstreamIcNS_11char_traitsIcEENS_9allocatorIcEEEENS_14default_deleteIS6_EEE5firstB8ne180100Ev
FNA:3,0,_ZNKSt3__117__compressed_pairIPNS_6vectorIN7testing8internal13edit_distance8EditTypeENS_9allocatorIS5_EEEENS6_IS8_EEE5firstB8ne180100Ev
FNA:3,0,_ZNKSt3__117__compressed_pairIPNS_6vectorIdNS_9allocatorIdEEEENS2_IS4_EEE5firstB8ne180100Ev
FNA:3,0,_ZNKSt3__117__compressed_pairIPPN7testing11EnvironmentENS_9allocatorIS3_EEE5firstB8ne180100Ev
FNA:3,0,_ZNKSt3__117__compressed_pairIPPN7testing11EnvironmentERNS_9allocatorIS3_EEE5firstB8ne180100Ev
FNA:3,26,_ZNKSt3__117__compressed_pairIPPN7testing17TestEventListenerENS_9allocatorIS3_EEE5firstB8ne180100Ev
FNA:3,0,_ZNKSt3__117__compressed_pairIPPN7testing17TestEventListenerERNS_9allocatorIS3_EEE5firstB8ne180100Ev
FNA:3,156,_ZNKSt3__117__compressed_pairIPPN7testing8TestInfoENS_9allocatorIS3_EEE5firstB8ne180100Ev
FNA:3,130,_ZNKSt3__117__compressed_pairIPPN7testing8TestInfoERNS_9allocatorIS3_EEE5firstB8ne180100Ev
FNA:3,0,_ZNKSt3__117__compressed_pairIPPN7testing8internal30ParameterizedTestSuiteInfoBaseENS_9allocatorIS4_EEE5firstB8ne180100Ev
FNA:3,26,_ZNKSt3__117__compressed_pairIPPN7testing9TestSuiteENS_9allocatorIS3_EEE5firstB8ne180100Ev
FNA:3,0,_ZNKSt3__117__compressed_pairIPPN7testing9TestSuiteERNS_9allocatorIS3_EEE5firstB8ne180100Ev
FNA:3,750,_ZNKSt3__117__compressed_pairIPPNS_16__hash_node_baseIPNS_11__hash_nodeINS_12basic_stringIcNS_11char_traitsIcEENS_9allocatorIcEEEEPvEEEENS_25__bucket_list_deallocatorINS6_ISD_EEEEE5firstB8ne180100Ev
FNA:3,0,_ZNKSt3__117__compressed_pairIPPcNS_9allocatorIS1_EEE5firstB8ne180100Ev
FNA:3,0,_ZNKSt3__117__compressed_pairIPPcRNS_9allocatorIS1_EEE5firstB8ne180100Ev
FNA:3,0,_ZNKSt3__117__compressed_pairIPdNS_9allocatorIdEEE5firstB8ne180100Ev
FNA:3,182,_ZNKSt3__117__compressed_pairIPiNS_9allocatorIiEEE5firstB8ne180100Ev
FNA:3,130,_ZNKSt3__117__compressed_pairIPiRNS_9allocatorIiEEE5firstB8ne180100Ev
FNA:3,0,_ZNKSt3__117__compressed_pairIPmNS_9allocatorImEEE5firstB8ne180100Ev
FNA:3,0,_ZNKSt3__117__compressed_pairIPmRNS_9allocatorImEEE5firstB8ne180100Ev
FNA:3,0,_ZNKSt3__117__compressed_pairImNS_19__map_value_compareINS_12basic_stringIcNS_11char_traitsIcEENS_9allocatorIcEEEENS_12__value_typeIS7_mEENS_4lessIS7_EELb1EEEE5firstB8ne180100Ev
FNA:3,0,_ZNKSt3__117__compressed_pairImNS_9allocatorINS_11__list_nodeINS_4pairIcPKcEEPvEEEEE5firstB8ne180100Ev
FNA:3,2126,_ZNKSt3__117__compressed_pairImNS_9allocatorIPNS_16__hash_node_baseIPNS_11__hash_nodeINS_12basic_stringIcNS_11char_traitsIcEENS1_IcEEEEPvEEEEEEE5firstB8ne180100Ev
FNL:4,137,138
FNA:4,0,_ZNSt3__117__compressed_pairINS_12basic_stringIcNS_11char_traitsIcEENS_9allocatorIcEEE5__repES5_E6secondB8ne180100Ev
FNA:4,0,_ZNSt3__117__compressed_pairINS_15__tree_end_nodeIPNS_16__tree_node_baseIPvEEEENS_9allocatorINS_11__tree_nodeINS_12__value_typeINS_12basic_stringIcNS_11char_traitsIcEENS7_IcEEEEN7testing8internal34TypeParameterizedTestSuiteRegistry30TypeParameterizedTestSuiteInfoEEES3_EEEEE6secondB8ne180100Ev
FNA:4,0,_ZNSt3__117__compressed_pairINS_15__tree_end_nodeIPNS_16__tree_node_baseIPvEEEENS_9allocatorINS_11__tree_nodeINS_12__value_typeINS_12basic_stringIcNS_11char_traitsIcEENS7_IcEEEEmEES3_EEEEE6secondB8ne180100Ev
FNA:4,0,_ZNSt3__117__compressed_pairINS_15__tree_end_nodeIPNS_16__tree_node_baseIPvEEEENS_9allocatorINS_11__tree_nodeINS_12basic_stringIcNS_11char_traitsIcEENS7_IcEEEES3_EEEEE6secondB8ne180100Ev
FNA:4,207,_ZNSt3__117__compressed_pairINS_16__hash_node_baseIPNS_11__hash_nodeINS_12basic_stringIcNS_11char_traitsIcEENS_9allocatorIcEEEEPvEEEENS6_ISA_EEE6secondB8ne180100Ev
FNA:4,0,_ZNSt3__117__compressed_pairIPKNS_12basic_stringIcNS_11char_traitsIcEENS_9allocatorIcEEEENS_14default_deleteIS7_EEE6secondB8ne180100Ev
FNA:4,0,_ZNSt3__117__compressed_pairIPN7testing12TestPropertyENS_9allocatorIS2_EEE6secondB8ne180100Ev
FNA:4,0,_ZNSt3__117__compressed_pairIPN7testing12TestPropertyERNS_9allocatorIS2_EEE6secondB8ne180100Ev
FNA:4,0,_ZNSt3__117__compressed_pairIPN7testing14TestPartResultENS_9allocatorIS2_EEE6secondB8ne180100Ev
FNA:4,0,_ZNSt3__117__compressed_pairIPN7testing14TestPartResultERNS_9allocatorIS2_EEE6secondB8ne180100Ev
FNA:4,0,_ZNSt3__117__compressed_pairIPN7testing8internal11ThreadLocalINS_6vectorINS2_9TraceInfoENS_9allocatorIS5_EEEEE18ValueHolderFactoryENS_14default_deleteISA_EEE6secondB8ne180100Ev
FNA:4,0,_ZNSt3__117__compressed_pairIPN7testing8internal11ThreadLocalIPNS1_31TestPartResultReporterInterfaceEE18ValueHolderFactoryENS_14default_deleteIS7_EEE6secondB8ne180100Ev
FNA:4,0,_ZNSt3__117__compressed_pairIPN7testing8internal13edit_distance8EditTypeENS_9allocatorIS4_EEE6secondB8ne180100Ev
FNA:4,0,_ZNSt3__117__compressed_pairIPN7testing8internal13edit_distance8EditTypeERNS_9allocatorIS4_EEE6secondB8ne180100Ev
FNA:4,25,_ZNSt3__117__compressed_pairIPN7testing8internal14GTestFlagSaverENS_14default_deleteIS3_EEE6secondB8ne180100Ev
FNA:4,0,_ZNSt3__117__compressed_pairIPN7testing8internal16DeathTestFactoryENS_14default_deleteIS3_EEE6secondB8ne180100Ev
FNA:4,0,_ZNSt3__117__compressed_pairIPN7testing8internal24InternalRunDeathTestFlagENS_14default_deleteIS3_EEE6secondB8ne180100Ev
FNA:4,0,_ZNSt3__117__compressed_pairIPN7testing8internal9TraceInfoENS_9allocatorIS3_EEE6secondB8ne180100Ev
FNA:4,0,_ZNSt3__117__compressed_pairIPN7testing8internal9TraceInfoERNS_9allocatorIS3_EEE6secondB8ne180100Ev
FNA:4,25,_ZNSt3__117__compressed_pairIPNS_11__hash_nodeINS_12basic_stringIcNS_11char_traitsIcEENS_9allocatorIcEEEEPvEENS_22__hash_node_destructorINS5_IS9_EEEEE6secondB8ne180100Ev
FNA:4,0,_ZNSt3__117__compressed_pairIPNS_11__tree_nodeINS_12__value_typeINS_12basic_stringIcNS_11char_traitsIcEENS_9allocatorIcEEEEN7testing8internal34TypeParameterizedTestSuiteRegistry30TypeParameterizedTestSuiteInfoEEEPvEENS_22__tree_node_destructorINS6_ISF_EEEEE6secondB8ne180100Ev
FNA:4,0,_ZNSt3__117__compressed_pairIPNS_11__tree_nodeINS_12__value_typeINS_12basic_stringIcNS_11char_traitsIcEENS_9allocatorIcEEEEmEEPvEENS_22__tree_node_destructorINS6_ISB_EEEEE6secondB8ne180100Ev
FNA:4,0,_ZNSt3__117__compressed_pairIPNS_11__tree_nodeINS_12basic_stringIcNS_11char_traitsIcEENS_9allocatorIcEEEEPvEENS_22__tree_node_destructorINS5_IS9_EEEEE6secondB8ne180100Ev
FNA:4,1510,_ZNSt3__117__compressed_pairIPNS_12basic_stringIcNS_11char_traitsIcEENS_9allocatorIcEEEENS4_IS6_EEE6secondB8ne180100Ev
FNA:4,0,_ZNSt3__117__compressed_pairIPNS_12basic_stringIcNS_11char_traitsIcEENS_9allocatorIcEEEENS_14default_deleteIS6_EEE6secondB8ne180100Ev
FNA:4,517,_ZNSt3__117__compressed_pairIPNS_12basic_stringIcNS_11char_traitsIcEENS_9allocatorIcEEEERNS4_IS6_EEE6secondB8ne180100Ev
FNA:4,1470,_ZNSt3__117__compressed_pairIPNS_18basic_stringstreamIcNS_11char_traitsIcEENS_9allocatorIcEEEENS_14default_deleteIS6_EEE6secondB8ne180100Ev
FNA:4,0,_ZNSt3__117__compressed_pairIPNS_6vectorIN7testing8internal13edit_distance8EditTypeENS_9allocatorIS5_EEEENS6_IS8_EEE6secondB8ne180100Ev
FNA:4,0,_ZNSt3__117__compressed_pairIPNS_6vectorIdNS_9allocatorIdEEEENS2_IS4_EEE6secondB8ne180100Ev
FNA:4,0,_ZNSt3__117__compressed_pairIPPN7testing11EnvironmentENS_9allocatorIS3_EEE6secondB8ne180100Ev
FNA:4,0,_ZNSt3__117__compressed_pairIPPN7testing11EnvironmentERNS_9allocatorIS3_EEE6secondB8ne180100Ev
FNA:4,52,_ZNSt3__117__compressed_pairIPPN7testing17TestEventListenerENS_9allocatorIS3_EEE6secondB8ne180100Ev
FNA:4,26,_ZNSt3__117__compressed_pairIPPN7testing17TestEventListenerERNS_9allocatorIS3_EEE6secondB8ne180100Ev
FNA:4,806,_ZNSt3__117__compressed_pairIPPN7testing8TestInfoENS_9allocatorIS3_EEE6secondB8ne180100Ev
FNA:4,1092,_ZNSt3__117__compressed_pairIPPN7testing8TestInfoERNS_9allocatorIS3_EEE6secondB8ne180100Ev
FNA:4,0,_ZNSt3__117__compressed_pairIPPN7testing8internal30ParameterizedTestSuiteInfoBaseENS_9allocatorIS4_EEE6secondB8ne180100Ev
FNA:4,52,_ZNSt3__117__compressed_pairIPPN7testing9TestSuiteENS_9allocatorIS3_EEE6secondB8ne180100Ev
FNA:4,26,_ZNSt3__117__compressed_pairIPPN7testing9TestSuiteERNS_9allocatorIS3_EEE6secondB8ne180100Ev
FNA:4,205,_ZNSt3__117__compressed_pairIPPNS_16__hash_node_baseIPNS_11__hash_nodeINS_12basic_stringIcNS_11char_traitsIcEENS_9allocatorIcEEEEPvEEEENS_25__bucket_list_deallocatorINS6_ISD_EEEEE6secondB8ne180100Ev
FNA:4,0,_ZNSt3__117__compressed_pairIPPcNS_9allocatorIS1_EEE6secondB8ne180100Ev
FNA:4,0,_ZNSt3__117__compressed_pairIPPcRNS_9allocatorIS1_EEE6secondB8ne180100Ev
FNA:4,0,_ZNSt3__117__compressed_pairIPdNS_9allocatorIdEEE6secondB8ne180100Ev
FNA:4,858,_ZNSt3__117__compressed_pairIPiNS_9allocatorIiEEE6secondB8ne180100Ev
FNA:4,1118,_ZNSt3__117__compressed_pairIPiRNS_9allocatorIiEEE6secondB8ne180100Ev
FNA:4,0,_ZNSt3__117__compressed_pairIPmNS_9allocatorImEEE6secondB8ne180100Ev
FNA:4,0,_ZNSt3__117__compressed_pairIPmRNS_9allocatorImEEE6secondB8ne180100Ev
FNA:4,52,_ZNSt3__117__compressed_pairIfNS_8equal_toINS_12basic_stringIcNS_11char_traitsIcEENS_9allocatorIcEEEEEEE6secondB8ne180100Ev
FNA:4,0,_ZNSt3__117__compressed_pairImNS_19__map_value_compareINS_12basic_stringIcNS_11char_traitsIcEENS_9allocatorIcEEEENS_12__value_typeIS7_N7testing8internal34TypeParameterizedTestSuiteRegistry30TypeParameterizedTestSuiteInfoEEENS_4lessIS7_EELb1EEEE6secondB8ne180100Ev
FNA:4,0,_ZNSt3__117__compressed_pairImNS_19__map_value_compareINS_12basic_stringIcNS_11char_traitsIcEENS_9allocatorIcEEEENS_12__value_typeIS7_mEENS_4lessIS7_EELb1EEEE6secondB8ne180100Ev
FNA:4,77,_ZNSt3__117__compressed_pairImNS_4hashINS_12basic_stringIcNS_11char_traitsIcEENS_9allocatorIcEEEEEEE6secondB8ne180100Ev
FNA:4,0,_ZNSt3__117__compressed_pairImNS_4lessINS_12basic_stringIcNS_11char_traitsIcEENS_9allocatorIcEEEEEEE6secondB8ne180100Ev
FNA:4,0,_ZNSt3__117__compressed_pairImNS_9allocatorINS_11__list_nodeINS_4pairIcPKcEEPvEEEEE6secondB8ne180100Ev
FNA:4,102,_ZNSt3__117__compressed_pairImNS_9allocatorIPNS_16__hash_node_baseIPNS_11__hash_nodeINS_12basic_stringIcNS_11char_traitsIcEENS1_IcEEEEPvEEEEEEE6secondB8ne180100Ev
FNL:5,141,142
FNA:5,1300,_ZNKSt3__117__compressed_pairINS_12basic_stringIcNS_11char_traitsIcEENS_9allocatorIcEEE5__repES5_E6secondB8ne180100Ev
FNA:5,0,_ZNKSt3__117__compressed_pairIPN7testing12TestPropertyENS_9allocatorIS2_EEE6secondB8ne180100Ev
FNA:5,0,_ZNKSt3__117__compressed_pairIPN7testing14TestPartResultENS_9allocatorIS2_EEE6secondB8ne180100Ev
FNA:5,0,_ZNKSt3__117__compressed_pairIPN7testing8internal13edit_distance8EditTypeENS_9allocatorIS4_EEE6secondB8ne180100Ev
FNA:5,0,_ZNKSt3__117__compressed_pairIPN7testing8internal9TraceInfoENS_9allocatorIS3_EEE6secondB8ne180100Ev
FNA:5,364,_ZNKSt3__117__compressed_pairIPNS_12basic_stringIcNS_11char_traitsIcEENS_9allocatorIcEEEENS4_IS6_EEE6secondB8ne180100Ev
FNA:5,0,_ZNKSt3__117__compressed_pairIPNS_6vectorIN7testing8internal13edit_distance8EditTypeENS_9allocatorIS5_EEEENS6_IS8_EEE6secondB8ne180100Ev
FNA:5,0,_ZNKSt3__117__compressed_pairIPNS_6vectorIdNS_9allocatorIdEEEENS2_IS4_EEE6secondB8ne180100Ev
FNA:5,0,_ZNKSt3__117__compressed_pairIPPN7testing11EnvironmentENS_9allocatorIS3_EEE6secondB8ne180100Ev
FNA:5,26,_ZNKSt3__117__compressed_pairIPPN7testing17TestEventListenerENS_9allocatorIS3_EEE6secondB8ne180100Ev
FNA:5,156,_ZNKSt3__117__compressed_pairIPPN7testing8TestInfoENS_9allocatorIS3_EEE6secondB8ne180100Ev
FNA:5,26,_ZNKSt3__117__compressed_pairIPPN7testing9TestSuiteENS_9allocatorIS3_EEE6secondB8ne180100Ev
FNA:5,2126,_ZNKSt3__117__compressed_pairIPPNS_16__hash_node_baseIPNS_11__hash_nodeINS_12basic_stringIcNS_11char_traitsIcEENS_9allocatorIcEEEEPvEEEENS_25__bucket_list_deallocatorINS6_ISD_EEEEE6secondB8ne180100Ev
FNA:5,0,_ZNKSt3__117__compressed_pairIPPcNS_9allocatorIS1_EEE6secondB8ne180100Ev
FNA:5,0,_ZNKSt3__117__compressed_pairIPdNS_9allocatorIdEEE6secondB8ne180100Ev
FNA:5,182,_ZNKSt3__117__compressed_pairIPiNS_9allocatorIiEEE6secondB8ne180100Ev
FNA:5,0,_ZNKSt3__117__compressed_pairIPmNS_9allocatorImEEE6secondB8ne180100Ev
FNA:5,25,_ZNKSt3__117__compressed_pairIfNS_8equal_toINS_12basic_stringIcNS_11char_traitsIcEENS_9allocatorIcEEEEEEE6secondB8ne180100Ev
FNA:5,0,_ZNKSt3__117__compressed_pairImNS_19__map_value_compareINS_12basic_stringIcNS_11char_traitsIcEENS_9allocatorIcEEEENS_12__value_typeIS7_N7testing8internal12CodeLocationEEENS_4lessIS7_EELb1EEEE6secondB8ne180100Ev
FNA:5,2026,_ZNKSt3__117__compressed_pairImNS_4hashINS_12basic_stringIcNS_11char_traitsIcEENS_9allocatorIcEEEEEEE6secondB8ne180100Ev
FNA:5,0,_ZNKSt3__117__compressed_pairImNS_4lessINS_12basic_stringIcNS_11char_traitsIcEENS_9allocatorIcEEEEEEE6secondB8ne180100Ev
FNL:6,152,157
FNA:6,0,_ZNSt3__117__compressed_pairIPNS_12basic_stringIcNS_11char_traitsIcEENS_9allocatorIcEEEENS_14default_deleteIS6_EEE4swapB8ne180100ERSA_
FNL:7,49,49
FNA:7,4578,_ZNSt3__122__compressed_pair_elemINS_12basic_stringIcNS_11char_traitsIcEENS_9allocatorIcEEE5__repELi0ELb0EEC2B8ne180100ENS_18__default_init_tagE
FNA:7,0,_ZNSt3__122__compressed_pair_elemINS_12basic_stringIwNS_11char_traitsIwEENS_9allocatorIwEEE5__repELi0ELb0EEC2B8ne180100ENS_18__default_init_tagE
FNL:8,50,50
FNA:8,3148,_ZNSt3__122__compressed_pair_elemINS_12basic_stringIcNS_11char_traitsIcEENS_9allocatorIcEEE5__repELi0ELb0EEC2B8ne180100ENS_16__value_init_tagE
FNA:8,52,_ZNSt3__122__compressed_pair_elemINS_15__tree_end_nodeIPNS_16__tree_node_baseIPvEEEELi0ELb0EEC2B8ne180100ENS_16__value_init_tagE
FNA:8,130,_ZNSt3__122__compressed_pair_elemINS_16__hash_node_baseIPNS_11__hash_nodeINS_12basic_stringIcNS_11char_traitsIcEENS_9allocatorIcEEEEPvEEEELi0ELb0EEC2B8ne180100ENS_16__value_init_tagE
FNA:8,130,_ZNSt3__122__compressed_pair_elemINS_25__bucket_list_deallocatorINS_9allocatorIPNS_16__hash_node_baseIPNS_11__hash_nodeINS_12basic_stringIcNS_11char_traitsIcEENS2_IcEEEEPvEEEEEEEELi1ELb0EEC2B8ne180100ENS_16__value_init_tagE
FNA:8,26,_ZNSt3__122__compressed_pair_elemIPN7testing8internal24InternalRunDeathTestFlagELi0ELb0EEC2B8ne180100ENS_16__value_init_tagE
FNA:8,145,_ZNSt3__122__compressed_pair_elemIPNS_12basic_stringIcNS_11char_traitsIcEENS_9allocatorIcEEEELi0ELb0EEC2B8ne180100ENS_16__value_init_tagE
FNA:8,130,_ZNSt3__122__compressed_pair_elemIPPNS_16__hash_node_baseIPNS_11__hash_nodeINS_12basic_stringIcNS_11char_traitsIcEENS_9allocatorIcEEEEPvEEEELi0ELb0EEC2B8ne180100ENS_16__value_init_tagE
FNL:9,53,54
FNA:9,25,_ZNSt3__122__compressed_pair_elemINS_22__hash_node_destructorINS_9allocatorINS_11__hash_nodeINS_12basic_stringIcNS_11char_traitsIcEENS2_IcEEEEPvEEEEEELi1ELb0EEC2B8ne180100ISC_vEEOT_
FNA:9,0,_ZNSt3__122__compressed_pair_elemINS_22__tree_node_destructorINS_9allocatorINS_11__tree_nodeINS_12__value_typeINS_12basic_stringIcNS_11char_traitsIcEENS2_IcEEEEN7testing8internal34TypeParameterizedTestSuiteRegistry30TypeParameterizedTestSuiteInfoEEEPvEEEEEELi1ELb0EEC2B8ne180100ISI_vEEOT_
FNA:9,0,_ZNSt3__122__compressed_pair_elemINS_22__tree_node_destructorINS_9allocatorINS_11__tree_nodeINS_12__value_typeINS_12basic_stringIcNS_11char_traitsIcEENS2_IcEEEEmEEPvEEEEEELi1ELb0EEC2B8ne180100ISE_vEEOT_
FNA:9,0,_ZNSt3__122__compressed_pair_elemINS_22__tree_node_destructorINS_9allocatorINS_11__tree_nodeINS_12basic_stringIcNS_11char_traitsIcEENS2_IcEEEEPvEEEEEELi1ELb0EEC2B8ne180100ISC_vEEOT_
FNA:9,1326,_ZNSt3__122__compressed_pair_elemIPKNS_12basic_stringIcNS_11char_traitsIcEENS_9allocatorIcEEEELi0ELb0EEC2B8ne180100IRS8_vEEOT_
FNA:9,702,_ZNSt3__122__compressed_pair_elemIPN7testing12TestPropertyELi0ELb0EEC2B8ne180100IDnvEEOT_
FNA:9,702,_ZNSt3__122__compressed_pair_elemIPN7testing14TestPartResultELi0ELb0EEC2B8ne180100IDnvEEOT_
FNA:9,26,_ZNSt3__122__compressed_pair_elemIPN7testing8internal11ThreadLocalINS_6vectorINS2_9TraceInfoENS_9allocatorIS5_EEEEE18ValueHolderFactoryELi0ELb0EEC2B8ne180100IRSB_vEEOT_
FNA:9,26,_ZNSt3__122__compressed_pair_elemIPN7testing8internal11ThreadLocalIPNS1_31TestPartResultReporterInterfaceEE18ValueHolderFactoryELi0ELb0EEC2B8ne180100IRS8_vEEOT_
FNA:9,0,_ZNSt3__122__compressed_pair_elemIPN7testing8internal13edit_distance8EditTypeELi0ELb0EEC2B8ne180100IDnvEEOT_
FNA:9,25,_ZNSt3__122__compressed_pair_elemIPN7testing8internal14GTestFlagSaverELi0ELb0EEC2B8ne180100IRS4_vEEOT_
FNA:9,26,_ZNSt3__122__compressed_pair_elemIPN7testing8internal16DeathTestFactoryELi0ELb0EEC2B8ne180100IRS4_vEEOT_
FNA:9,0,_ZNSt3__122__compressed_pair_elemIPN7testing8internal9TraceInfoELi0ELb0EEC2B8ne180100IDnvEEOT_
FNA:9,25,_ZNSt3__122__compressed_pair_elemIPNS_11__hash_nodeINS_12basic_stringIcNS_11char_traitsIcEENS_9allocatorIcEEEEPvEELi0ELb0EEC2B8ne180100IRSA_vEEOT_
FNA:9,0,_ZNSt3__122__compressed_pair_elemIPNS_11__tree_nodeINS_12__value_typeINS_12basic_stringIcNS_11char_traitsIcEENS_9allocatorIcEEEEN7testing8internal34TypeParameterizedTestSuiteRegistry30TypeParameterizedTestSuiteInfoEEEPvEELi0ELb0EEC2B8ne180100IRSG_vEEOT_
FNA:9,0,_ZNSt3__122__compressed_pair_elemIPNS_11__tree_nodeINS_12__value_typeINS_12basic_stringIcNS_11char_traitsIcEENS_9allocatorIcEEEEmEEPvEELi0ELb0EEC2B8ne180100IRSC_vEEOT_
FNA:9,0,_ZNSt3__122__compressed_pair_elemIPNS_11__tree_nodeINS_12basic_stringIcNS_11char_traitsIcEENS_9allocatorIcEEEEPvEELi0ELb0EEC2B8ne180100IRSA_vEEOT_
FNA:9,702,_ZNSt3__122__compressed_pair_elemIPNS_12basic_stringIcNS_11char_traitsIcEENS_9allocatorIcEEEELi0ELb0EEC2B8ne180100IDnvEEOT_
FNA:9,0,_ZNSt3__122__compressed_pair_elemIPNS_12basic_stringIcNS_11char_traitsIcEENS_9allocatorIcEEEELi0ELb0EEC2B8ne180100IRS7_vEEOT_
FNA:9,1470,_ZNSt3__122__compressed_pair_elemIPNS_18basic_stringstreamIcNS_11char_traitsIcEENS_9allocatorIcEEEELi0ELb0EEC2B8ne180100IRS7_vEEOT_
FNA:9,0,_ZNSt3__122__compressed_pair_elemIPNS_6vectorIN7testing8internal13edit_distance8EditTypeENS_9allocatorIS5_EEEELi0ELb0EEC2B8ne180100IDnvEEOT_
FNA:9,0,_ZNSt3__122__compressed_pair_elemIPNS_6vectorIdNS_9allocatorIdEEEELi0ELb0EEC2B8ne180100IDnvEEOT_
FNA:9,26,_ZNSt3__122__compressed_pair_elemIPPN7testing11EnvironmentELi0ELb0EEC2B8ne180100IDnvEEOT_
FNA:9,52,_ZNSt3__122__compressed_pair_elemIPPN7testing17TestEventListenerELi0ELb0EEC2B8ne180100IDnvEEOT_
FNA:9,182,_ZNSt3__122__compressed_pair_elemIPPN7testing8TestInfoELi0ELb0EEC2B8ne180100IDnvEEOT_
FNA:9,26,_ZNSt3__122__compressed_pair_elemIPPN7testing8internal30ParameterizedTestSuiteInfoBaseELi0ELb0EEC2B8ne180100IDnvEEOT_
FNA:9,52,_ZNSt3__122__compressed_pair_elemIPPN7testing9TestSuiteELi0ELb0EEC2B8ne180100IDnvEEOT_
FNA:9,0,_ZNSt3__122__compressed_pair_elemIPPcLi0ELb0EEC2B8ne180100IDnvEEOT_
FNA:9,0,_ZNSt3__122__compressed_pair_elemIPdLi0ELb0EEC2B8ne180100IDnvEEOT_
FNA:9,234,_ZNSt3__122__compressed_pair_elemIPiLi0ELb0EEC2B8ne180100IDnvEEOT_
FNA:9,0,_ZNSt3__122__compressed_pair_elemIPmLi0ELb0EEC2B8ne180100IDnvEEOT_
FNA:9,0,_ZNSt3__122__compressed_pair_elemIRNS_9allocatorIN7testing12TestPropertyEEELi1ELb0EEC2B8ne180100IS5_vEEOT_
FNA:9,0,_ZNSt3__122__compressed_pair_elemIRNS_9allocatorIN7testing14TestPartResultEEELi1ELb0EEC2B8ne180100IS5_vEEOT_
FNA:9,0,_ZNSt3__122__compressed_pair_elemIRNS_9allocatorIN7testing8internal13edit_distance8EditTypeEEELi1ELb0EEC2B8ne180100IS7_vEEOT_
FNA:9,0,_ZNSt3__122__compressed_pair_elemIRNS_9allocatorIN7testing8internal9TraceInfoEEELi1ELb0EEC2B8ne180100IS6_vEEOT_
FNA:9,286,_ZNSt3__122__compressed_pair_elemIRNS_9allocatorINS_12basic_stringIcNS_11char_traitsIcEENS1_IcEEEEEELi1ELb0EEC2B8ne180100IS8_vEEOT_
FNA:9,0,_ZNSt3__122__compressed_pair_elemIRNS_9allocatorIPN7testing11EnvironmentEEELi1ELb0EEC2B8ne180100IS6_vEEOT_
FNA:9,26,_ZNSt3__122__compressed_pair_elemIRNS_9allocatorIPN7testing17TestEventListenerEEELi1ELb0EEC2B8ne180100IS6_vEEOT_
FNA:9,156,_ZNSt3__122__compressed_pair_elemIRNS_9allocatorIPN7testing8TestInfoEEELi1ELb0EEC2B8ne180100IS6_vEEOT_
FNA:9,26,_ZNSt3__122__compressed_pair_elemIRNS_9allocatorIPN7testing9TestSuiteEEELi1ELb0EEC2B8ne180100IS6_vEEOT_
FNA:9,0,_ZNSt3__122__compressed_pair_elemIRNS_9allocatorIPcEELi1ELb0EEC2B8ne180100IS4_vEEOT_
FNA:9,182,_ZNSt3__122__compressed_pair_elemIRNS_9allocatorIiEELi1ELb0EEC2B8ne180100IS3_vEEOT_
FNA:9,0,_ZNSt3__122__compressed_pair_elemIRNS_9allocatorImEELi1ELb0EEC2B8ne180100IS3_vEEOT_
FNA:9,130,_ZNSt3__122__compressed_pair_elemIfLi0ELb0EEC2B8ne180100IfvEEOT_
FNA:9,312,_ZNSt3__122__compressed_pair_elemImLi0ELb0EEC2B8ne180100IivEEOT_
FNL:10,63,63
FNA:10,4899,_ZNSt3__122__compressed_pair_elemINS_12basic_stringIcNS_11char_traitsIcEENS_9allocatorIcEEE5__repELi0ELb0EE5__getB8ne180100Ev
FNA:10,78,_ZNSt3__122__compressed_pair_elemINS_15__tree_end_nodeIPNS_16__tree_node_baseIPvEEEELi0ELb0EE5__getB8ne180100Ev
FNA:10,385,_ZNSt3__122__compressed_pair_elemINS_16__hash_node_baseIPNS_11__hash_nodeINS_12basic_stringIcNS_11char_traitsIcEENS_9allocatorIcEEEEPvEEEELi0ELb0EE5__getB8ne180100Ev
FNA:10,25,_ZNSt3__122__compressed_pair_elemINS_22__hash_node_destructorINS_9allocatorINS_11__hash_nodeINS_12basic_stringIcNS_11char_traitsIcEENS2_IcEEEEPvEEEEEELi1ELb0EE5__getB8ne180100Ev
FNA:10,0,_ZNSt3__122__compressed_pair_elemINS_22__tree_node_destructorINS_9allocatorINS_11__tree_nodeINS_12__value_typeINS_12basic_stringIcNS_11char_traitsIcEENS2_IcEEEEN7testing8internal34TypeParameterizedTestSuiteRegistry30TypeParameterizedTestSuiteInfoEEEPvEEEEEELi1ELb0EE5__getB8ne180100Ev
FNA:10,0,_ZNSt3__122__compressed_pair_elemINS_22__tree_node_destructorINS_9allocatorINS_11__tree_nodeINS_12__value_typeINS_12basic_stringIcNS_11char_traitsIcEENS2_IcEEEEmEEPvEEEEEELi1ELb0EE5__getB8ne180100Ev
FNA:10,0,_ZNSt3__122__compressed_pair_elemINS_22__tree_node_destructorINS_9allocatorINS_11__tree_nodeINS_12basic_stringIcNS_11char_traitsIcEENS2_IcEEEEPvEEEEEELi1ELb0EE5__getB8ne180100Ev
FNA:10,205,_ZNSt3__122__compressed_pair_elemINS_25__bucket_list_deallocatorINS_9allocatorIPNS_16__hash_node_baseIPNS_11__hash_nodeINS_12basic_stringIcNS_11char_traitsIcEENS2_IcEEEEPvEEEEEEEELi1ELb0EE5__getB8ne180100Ev
FNA:10,0,_ZNSt3__122__compressed_pair_elemIPKNS_12basic_stringIcNS_11char_traitsIcEENS_9allocatorIcEEEELi0ELb0EE5__getB8ne180100Ev
FNA:10,0,_ZNSt3__122__compressed_pair_elemIPN7testing12TestPropertyELi0ELb0EE5__getB8ne180100Ev
FNA:10,0,_ZNSt3__122__compressed_pair_elemIPN7testing14TestPartResultELi0ELb0EE5__getB8ne180100Ev
FNA:10,0,_ZNSt3__122__compressed_pair_elemIPN7testing8internal11ThreadLocalINS_6vectorINS2_9TraceInfoENS_9allocatorIS5_EEEEE18ValueHolderFactoryELi0ELb0EE5__getB8ne180100Ev
FNA:10,0,_ZNSt3__122__compressed_pair_elemIPN7testing8internal11ThreadLocalIPNS1_31TestPartResultReporterInterfaceEE18ValueHolderFactoryELi0ELb0EE5__getB8ne180100Ev
FNA:10,0,_ZNSt3__122__compressed_pair_elemIPN7testing8internal13edit_distance8EditTypeELi0ELb0EE5__getB8ne180100Ev
FNA:10,50,_ZNSt3__122__compressed_pair_elemIPN7testing8internal14GTestFlagSaverELi0ELb0EE5__getB8ne180100Ev
FNA:10,0,_ZNSt3__122__compressed_pair_elemIPN7testing8internal16DeathTestFactoryELi0ELb0EE5__getB8ne180100Ev
FNA:10,52,_ZNSt3__122__compressed_pair_elemIPN7testing8internal24InternalRunDeathTestFlagELi0ELb0EE5__getB8ne180100Ev
FNA:10,0,_ZNSt3__122__compressed_pair_elemIPN7testing8internal9TraceInfoELi0ELb0EE5__getB8ne180100Ev
FNA:10,100,_ZNSt3__122__compressed_pair_elemIPNS_11__hash_nodeINS_12basic_stringIcNS_11char_traitsIcEENS_9allocatorIcEEEEPvEELi0ELb0EE5__getB8ne180100Ev
FNA:10,0,_ZNSt3__122__compressed_pair_elemIPNS_11__tree_nodeINS_12__value_typeINS_12basic_stringIcNS_11char_traitsIcEENS_9allocatorIcEEEEN7testing8internal34TypeParameterizedTestSuiteRegistry30TypeParameterizedTestSuiteInfoEEEPvEELi0ELb0EE5__getB8ne180100Ev
FNA:10,0,_ZNSt3__122__compressed_pair_elemIPNS_11__tree_nodeINS_12__value_typeINS_12basic_stringIcNS_11char_traitsIcEENS_9allocatorIcEEEEmEEPvEELi0ELb0EE5__getB8ne180100Ev
FNA:10,0,_ZNSt3__122__compressed_pair_elemIPNS_11__tree_nodeINS_12basic_stringIcNS_11char_traitsIcEENS_9allocatorIcEEEEPvEELi0ELb0EE5__getB8ne180100Ev
FNA:10,1798,_ZNSt3__122__compressed_pair_elemIPNS_12basic_stringIcNS_11char_traitsIcEENS_9allocatorIcEEEELi0ELb0EE5__getB8ne180100Ev
FNA:10,2940,_ZNSt3__122__compressed_pair_elemIPNS_18basic_stringstreamIcNS_11char_traitsIcEENS_9allocatorIcEEEELi0ELb0EE5__getB8ne180100Ev
FNA:10,0,_ZNSt3__122__compressed_pair_elemIPNS_6vectorIN7testing8internal13edit_distance8EditTypeENS_9allocatorIS5_EEEELi0ELb0EE5__getB8ne180100Ev
FNA:10,0,_ZNSt3__122__compressed_pair_elemIPNS_6vectorIdNS_9allocatorIdEEEELi0ELb0EE5__getB8ne180100Ev
FNA:10,0,_ZNSt3__122__compressed_pair_elemIPPN7testing11EnvironmentELi0ELb0EE5__getB8ne180100Ev
FNA:10,104,_ZNSt3__122__compressed_pair_elemIPPN7testing17TestEventListenerELi0ELb0EE5__getB8ne180100Ev
FNA:10,1118,_ZNSt3__122__compressed_pair_elemIPPN7testing8TestInfoELi0ELb0EE5__getB8ne180100Ev
FNA:10,104,_ZNSt3__122__compressed_pair_elemIPPN7testing9TestSuiteELi0ELb0EE5__getB8ne180100Ev
FNA:10,414,_ZNSt3__122__compressed_pair_elemIPPNS_16__hash_node_baseIPNS_11__hash_nodeINS_12basic_stringIcNS_11char_traitsIcEENS_9allocatorIcEEEEPvEEEELi0ELb0EE5__getB8ne180100Ev
FNA:10,0,_ZNSt3__122__compressed_pair_elemIPPcLi0ELb0EE5__getB8ne180100Ev
FNA:10,0,_ZNSt3__122__compressed_pair_elemIPdLi0ELb0EE5__getB8ne180100Ev
FNA:10,1222,_ZNSt3__122__compressed_pair_elemIPiLi0ELb0EE5__getB8ne180100Ev
FNA:10,0,_ZNSt3__122__compressed_pair_elemIPmLi0ELb0EE5__getB8ne180100Ev
FNA:10,0,_ZNSt3__122__compressed_pair_elemIRNS_9allocatorIN7testing12TestPropertyEEELi1ELb0EE5__getB8ne180100Ev
FNA:10,0,_ZNSt3__122__compressed_pair_elemIRNS_9allocatorIN7testing14TestPartResultEEELi1ELb0EE5__getB8ne180100Ev
FNA:10,0,_ZNSt3__122__compressed_pair_elemIRNS_9allocatorIN7testing8internal13edit_distance8EditTypeEEELi1ELb0EE5__getB8ne180100Ev
FNA:10,0,_ZNSt3__122__compressed_pair_elemIRNS_9allocatorIN7testing8internal9TraceInfoEEELi1ELb0EE5__getB8ne180100Ev
FNA:10,517,_ZNSt3__122__compressed_pair_elemIRNS_9allocatorINS_12basic_stringIcNS_11char_traitsIcEENS1_IcEEEEEELi1ELb0EE5__getB8ne180100Ev
FNA:10,0,_ZNSt3__122__compressed_pair_elemIRNS_9allocatorIPN7testing11EnvironmentEEELi1ELb0EE5__getB8ne180100Ev
FNA:10,26,_ZNSt3__122__compressed_pair_elemIRNS_9allocatorIPN7testing17TestEventListenerEEELi1ELb0EE5__getB8ne180100Ev
FNA:10,1092,_ZNSt3__122__compressed_pair_elemIRNS_9allocatorIPN7testing8TestInfoEEELi1ELb0EE5__getB8ne180100Ev
FNA:10,26,_ZNSt3__122__compressed_pair_elemIRNS_9allocatorIPN7testing9TestSuiteEEELi1ELb0EE5__getB8ne180100Ev
FNA:10,0,_ZNSt3__122__compressed_pair_elemIRNS_9allocatorIPcEELi1ELb0EE5__getB8ne180100Ev
FNA:10,1118,_ZNSt3__122__compressed_pair_elemIRNS_9allocatorIiEELi1ELb0EE5__getB8ne180100Ev
FNA:10,0,_ZNSt3__122__compressed_pair_elemIRNS_9allocatorImEELi1ELb0EE5__getB8ne180100Ev
FNA:10,102,_ZNSt3__122__compressed_pair_elemIfLi0ELb0EE5__getB8ne180100Ev
FNA:10,332,_ZNSt3__122__compressed_pair_elemImLi0ELb0EE5__getB8ne180100Ev
FNL:11,64,64
FNA:11,0,_ZNKSt3__122__compressed_pair_elemINS_12basic_stringIDiNS_11char_traitsIDiEENS_9allocatorIDiEEE5__repELi0ELb0EE5__getB8ne180100Ev
FNA:11,0,_ZNKSt3__122__compressed_pair_elemINS_12basic_stringIDsNS_11char_traitsIDsEENS_9allocatorIDsEEE5__repELi0ELb0EE5__getB8ne180100Ev
FNA:11,112337,_ZNKSt3__122__compressed_pair_elemINS_12basic_stringIcNS_11char_traitsIcEENS_9allocatorIcEEE5__repELi0ELb0EE5__getB8ne180100Ev
FNA:11,0,_ZNKSt3__122__compressed_pair_elemINS_12basic_stringIwNS_11char_traitsIwEENS_9allocatorIwEEE5__repELi0ELb0EE5__getB8ne180100Ev
FNA:11,0,_ZNKSt3__122__compressed_pair_elemINS_15__tree_end_nodeIPNS_16__tree_node_baseIPvEEEELi0ELb0EE5__getB8ne180100Ev
FNA:11,2126,_ZNKSt3__122__compressed_pair_elemINS_25__bucket_list_deallocatorINS_9allocatorIPNS_16__hash_node_baseIPNS_11__hash_nodeINS_12basic_stringIcNS_11char_traitsIcEENS2_IcEEEEPvEEEEEEEELi1ELb0EE5__getB8ne180100Ev
FNA:11,701,_ZNKSt3__122__compressed_pair_elemIPKNS_12basic_stringIcNS_11char_traitsIcEENS_9allocatorIcEEEELi0ELb0EE5__getB8ne180100Ev
FNA:11,0,_ZNKSt3__122__compressed_pair_elemIPN7testing12TestPropertyELi0ELb0EE5__getB8ne180100Ev
FNA:11,0,_ZNKSt3__122__compressed_pair_elemIPN7testing14TestPartResultELi0ELb0EE5__getB8ne180100Ev
FNA:11,0,_ZNKSt3__122__compressed_pair_elemIPN7testing8internal11ThreadLocalINS_6vectorINS2_9TraceInfoENS_9allocatorIS5_EEEEE18ValueHolderFactoryELi0ELb0EE5__getB8ne180100Ev
FNA:11,0,_ZNKSt3__122__compressed_pair_elemIPN7testing8internal11ThreadLocalIPNS1_31TestPartResultReporterInterfaceEE18ValueHolderFactoryELi0ELb0EE5__getB8ne180100Ev
FNA:11,0,_ZNKSt3__122__compressed_pair_elemIPN7testing8internal13edit_distance8EditTypeELi0ELb0EE5__getB8ne180100Ev
FNA:11,0,_ZNKSt3__122__compressed_pair_elemIPN7testing8internal16DeathTestFactoryELi0ELb0EE5__getB8ne180100Ev
FNA:11,52,_ZNKSt3__122__compressed_pair_elemIPN7testing8internal24InternalRunDeathTestFlagELi0ELb0EE5__getB8ne180100Ev
FNA:11,0,_ZNKSt3__122__compressed_pair_elemIPN7testing8internal9TraceInfoELi0ELb0EE5__getB8ne180100Ev
FNA:11,125,_ZNKSt3__122__compressed_pair_elemIPNS_11__hash_nodeINS_12basic_stringIcNS_11char_traitsIcEENS_9allocatorIcEEEEPvEELi0ELb0EE5__getB8ne180100Ev
FNA:11,0,_ZNKSt3__122__compressed_pair_elemIPNS_11__tree_nodeINS_12__value_typeINS_12basic_stringIcNS_11char_traitsIcEENS_9allocatorIcEEEEN7testing8internal34TypeParameterizedTestSuiteRegistry30TypeParameterizedTestSuiteInfoEEEPvEELi0ELb0EE5__getB8ne180100Ev
FNA:11,0,_ZNKSt3__122__compressed_pair_elemIPNS_11__tree_nodeINS_12__value_typeINS_12basic_stringIcNS_11char_traitsIcEENS_9allocatorIcEEEEmEEPvEELi0ELb0EE5__getB8ne180100Ev
FNA:11,0,_ZNKSt3__122__compressed_pair_elemIPNS_11__tree_nodeINS_12basic_stringIcNS_11char_traitsIcEENS_9allocatorIcEEEEPvEELi0ELb0EE5__getB8ne180100Ev
FNA:11,597,_ZNKSt3__122__compressed_pair_elemIPNS_12basic_stringIcNS_11char_traitsIcEENS_9allocatorIcEEEELi0ELb0EE5__getB8ne180100Ev
FNA:11,15174,_ZNKSt3__122__compressed_pair_elemIPNS_18basic_stringstreamIcNS_11char_traitsIcEENS_9allocatorIcEEEELi0ELb0EE5__getB8ne180100Ev
FNA:11,0,_ZNKSt3__122__compressed_pair_elemIPNS_6vectorIN7testing8internal13edit_distance8EditTypeENS_9allocatorIS5_EEEELi0ELb0EE5__getB8ne180100Ev
FNA:11,0,_ZNKSt3__122__compressed_pair_elemIPNS_6vectorIdNS_9allocatorIdEEEELi0ELb0EE5__getB8ne180100Ev
FNA:11,0,_ZNKSt3__122__compressed_pair_elemIPPN7testing11EnvironmentELi0ELb0EE5__getB8ne180100Ev
FNA:11,26,_ZNKSt3__122__compressed_pair_elemIPPN7testing17TestEventListenerELi0ELb0EE5__getB8ne180100Ev
FNA:11,286,_ZNKSt3__122__compressed_pair_elemIPPN7testing8TestInfoELi0ELb0EE5__getB8ne180100Ev
FNA:11,0,_ZNKSt3__122__compressed_pair_elemIPPN7testing8internal30ParameterizedTestSuiteInfoBaseELi0ELb0EE5__getB8ne180100Ev
FNA:11,26,_ZNKSt3__122__compressed_pair_elemIPPN7testing9TestSuiteELi0ELb0EE5__getB8ne180100Ev
FNA:11,750,_ZNKSt3__122__compressed_pair_elemIPPNS_16__hash_node_baseIPNS_11__hash_nodeINS_12basic_stringIcNS_11char_traitsIcEENS_9allocatorIcEEEEPvEEEELi0ELb0EE5__getB8ne180100Ev
FNA:11,0,_ZNKSt3__122__compressed_pair_elemIPPcLi0ELb0EE5__getB8ne180100Ev
FNA:11,0,_ZNKSt3__122__compressed_pair_elemIPdLi0ELb0EE5__getB8ne180100Ev
FNA:11,312,_ZNKSt3__122__compressed_pair_elemIPiLi0ELb0EE5__getB8ne180100Ev
FNA:11,0,_ZNKSt3__122__compressed_pair_elemIPmLi0ELb0EE5__getB8ne180100Ev
FNA:11,2126,_ZNKSt3__122__compressed_pair_elemImLi0ELb0EE5__getB8ne180100Ev
FNL:12,78,78
FNA:12,130,_ZNSt3__122__compressed_pair_elemINS_4hashINS_12basic_stringIcNS_11char_traitsIcEENS_9allocatorIcEEEEEELi1ELb1EEC2B8ne180100ENS_18__default_init_tagE
FNA:12,130,_ZNSt3__122__compressed_pair_elemINS_8equal_toINS_12basic_stringIcNS_11char_traitsIcEENS_9allocatorIcEEEEEELi1ELb1EEC2B8ne180100ENS_18__default_init_tagE
FNA:12,702,_ZNSt3__122__compressed_pair_elemINS_9allocatorIN7testing12TestPropertyEEELi1ELb1EEC2B8ne180100ENS_18__default_init_tagE
FNA:12,702,_ZNSt3__122__compressed_pair_elemINS_9allocatorIN7testing14TestPartResultEEELi1ELb1EEC2B8ne180100ENS_18__default_init_tagE
FNA:12,0,_ZNSt3__122__compressed_pair_elemINS_9allocatorIN7testing8internal13edit_distance8EditTypeEEELi1ELb1EEC2B8ne180100ENS_18__default_init_tagE
FNA:12,0,_ZNSt3__122__compressed_pair_elemINS_9allocatorIN7testing8internal9TraceInfoEEELi1ELb1EEC2B8ne180100ENS_18__default_init_tagE
FNA:12,0,_ZNSt3__122__compressed_pair_elemINS_9allocatorINS_11__list_nodeINS_4pairIcPKcEEPvEEEELi1ELb1EEC2B8ne180100ENS_18__default_init_tagE
FNA:12,364,_ZNSt3__122__compressed_pair_elemINS_9allocatorINS_12basic_stringIcNS_11char_traitsIcEENS1_IcEEEEEELi1ELb1EEC2B8ne180100ENS_18__default_init_tagE
FNA:12,0,_ZNSt3__122__compressed_pair_elemINS_9allocatorINS_6vectorIN7testing8internal13edit_distance8EditTypeENS1_IS6_EEEEEELi1ELb1EEC2B8ne180100ENS_18__default_init_tagE
FNA:12,0,_ZNSt3__122__compressed_pair_elemINS_9allocatorINS_6vectorIdNS1_IdEEEEEELi1ELb1EEC2B8ne180100ENS_18__default_init_tagE
FNA:12,26,_ZNSt3__122__compressed_pair_elemINS_9allocatorIPN7testing11EnvironmentEEELi1ELb1EEC2B8ne180100ENS_18__default_init_tagE
FNA:12,26,_ZNSt3__122__compressed_pair_elemINS_9allocatorIPN7testing17TestEventListenerEEELi1ELb1EEC2B8ne180100ENS_18__default_init_tagE
FNA:12,26,_ZNSt3__122__compressed_pair_elemINS_9allocatorIPN7testing8TestInfoEEELi1ELb1EEC2B8ne180100ENS_18__default_init_tagE
FNA:12,26,_ZNSt3__122__compressed_pair_elemINS_9allocatorIPN7testing8internal30ParameterizedTestSuiteInfoBaseEEELi1ELb1EEC2B8ne180100ENS_18__default_init_tagE
FNA:12,26,_ZNSt3__122__compressed_pair_elemINS_9allocatorIPN7testing9TestSuiteEEELi1ELb1EEC2B8ne180100ENS_18__default_init_tagE
FNA:12,130,_ZNSt3__122__compressed_pair_elemINS_9allocatorIPNS_16__hash_node_baseIPNS_11__hash_nodeINS_12basic_stringIcNS_11char_traitsIcEENS1_IcEEEEPvEEEEEELi1ELb1EEC2B8ne180100ENS_18__default_init_tagE
FNA:12,0,_ZNSt3__122__compressed_pair_elemINS_9allocatorIPcEELi1ELb1EEC2B8ne180100ENS_18__default_init_tagE
FNA:12,7076,_ZNSt3__122__compressed_pair_elemINS_9allocatorIcEELi1ELb1EEC2B8ne180100ENS_18__default_init_tagE
FNA:12,0,_ZNSt3__122__compressed_pair_elemINS_9allocatorIdEELi1ELb1EEC2B8ne180100ENS_18__default_init_tagE
FNA:12,52,_ZNSt3__122__compressed_pair_elemINS_9allocatorIiEELi1ELb1EEC2B8ne180100ENS_18__default_init_tagE
FNA:12,0,_ZNSt3__122__compressed_pair_elemINS_9allocatorImEELi1ELb1EEC2B8ne180100ENS_18__default_init_tagE
FNA:12,0,_ZNSt3__122__compressed_pair_elemINS_9allocatorIwEELi1ELb1EEC2B8ne180100ENS_18__default_init_tagE
FNL:13,79,79
FNA:13,1326,_ZNSt3__122__compressed_pair_elemINS_14default_deleteIKNS_12basic_stringIcNS_11char_traitsIcEENS_9allocatorIcEEEEEELi1ELb1EEC2B8ne180100ENS_16__value_init_tagE
FNA:13,26,_ZNSt3__122__compressed_pair_elemINS_14default_deleteIN7testing8internal11ThreadLocalINS_6vectorINS3_9TraceInfoENS_9allocatorIS6_EEEEE18ValueHolderFactoryEEELi1ELb1EEC2B8ne180100ENS_16__value_init_tagE
FNA:13,26,_ZNSt3__122__compressed_pair_elemINS_14default_deleteIN7testing8internal11ThreadLocalIPNS2_31TestPartResultReporterInterfaceEE18ValueHolderFactoryEEELi1ELb1EEC2B8ne180100ENS_16__value_init_tagE
FNA:13,25,_ZNSt3__122__compressed_pair_elemINS_14default_deleteIN7testing8internal14GTestFlagSaverEEELi1ELb1EEC2B8ne180100ENS_16__value_init_tagE
FNA:13,26,_ZNSt3__122__compressed_pair_elemINS_14default_deleteIN7testing8internal16DeathTestFactoryEEELi1ELb1EEC2B8ne180100ENS_16__value_init_tagE
FNA:13,26,_ZNSt3__122__compressed_pair_elemINS_14default_deleteIN7testing8internal24InternalRunDeathTestFlagEEELi1ELb1EEC2B8ne180100ENS_16__value_init_tagE
FNA:13,145,_ZNSt3__122__compressed_pair_elemINS_14default_deleteINS_12basic_stringIcNS_11char_traitsIcEENS_9allocatorIcEEEEEELi1ELb1EEC2B8ne180100ENS_16__value_init_tagE
FNA:13,1470,_ZNSt3__122__compressed_pair_elemINS_14default_deleteINS_18basic_stringstreamIcNS_11char_traitsIcEENS_9allocatorIcEEEEEELi1ELb1EEC2B8ne180100ENS_16__value_init_tagE
FNA:13,130,_ZNSt3__122__compressed_pair_elemINS_9allocatorINS_11__hash_nodeINS_12basic_stringIcNS_11char_traitsIcEENS1_IcEEEEPvEEEELi1ELb1EEC2B8ne180100ENS_16__value_init_tagE
FNA:13,26,_ZNSt3__122__compressed_pair_elemINS_9allocatorINS_11__tree_nodeINS_12__value_typeINS_12basic_stringIcNS_11char_traitsIcEENS1_IcEEEEN7testing8internal34TypeParameterizedTestSuiteRegistry30TypeParameterizedTestSuiteInfoEEEPvEEEELi1ELb1EEC2B8ne180100ENS_16__value_init_tagE
FNA:13,0,_ZNSt3__122__compressed_pair_elemINS_9allocatorINS_11__tree_nodeINS_12__value_typeINS_12basic_stringIcNS_11char_traitsIcEENS1_IcEEEEmEEPvEEEELi1ELb1EEC2B8ne180100ENS_16__value_init_tagE
FNA:13,26,_ZNSt3__122__compressed_pair_elemINS_9allocatorINS_11__tree_nodeINS_12basic_stringIcNS_11char_traitsIcEENS1_IcEEEEPvEEEELi1ELb1EEC2B8ne180100ENS_16__value_init_tagE
FNL:14,82,83
FNA:14,26,_ZNSt3__122__compressed_pair_elemINS_19__map_value_compareINS_12basic_stringIcNS_11char_traitsIcEENS_9allocatorIcEEEENS_12__value_typeIS7_N7testing8internal34TypeParameterizedTestSuiteRegistry30TypeParameterizedTestSuiteInfoEEENS_4lessIS7_EELb1EEELi1ELb1EEC2B8ne180100IRKSG_vEEOT_
FNA:14,0,_ZNSt3__122__compressed_pair_elemINS_19__map_value_compareINS_12basic_stringIcNS_11char_traitsIcEENS_9allocatorIcEEEENS_12__value_typeIS7_mEENS_4lessIS7_EELb1EEELi1ELb1EEC2B8ne180100IRKSC_vEEOT_
FNA:14,26,_ZNSt3__122__compressed_pair_elemINS_4lessINS_12basic_stringIcNS_11char_traitsIcEENS_9allocatorIcEEEEEELi1ELb1EEC2B8ne180100IRKS8_vEEOT_
FNA:14,0,_ZNSt3__122__compressed_pair_elemINS_9allocatorIN7testing8internal13edit_distance8EditTypeEEELi1ELb1EEC2B8ne180100IS6_vEEOT_
FNA:14,52,_ZNSt3__122__compressed_pair_elemINS_9allocatorINS_12basic_stringIcNS_11char_traitsIcEENS1_IcEEEEEELi1ELb1EEC2B8ne180100IS7_vEEOT_
FNA:14,650,_ZNSt3__122__compressed_pair_elemINS_9allocatorIcEELi1ELb1EEC2B8ne180100IRKS2_vEEOT_
FNA:14,0,_ZNSt3__122__compressed_pair_elemINS_9allocatorIdEELi1ELb1EEC2B8ne180100IS2_vEEOT_
FNL:15,92,92
FNA:15,0,_ZNSt3__122__compressed_pair_elemINS_14default_deleteIKNS_12basic_stringIcNS_11char_traitsIcEENS_9allocatorIcEEEEEELi1ELb1EE5__getB8ne180100Ev
FNA:15,0,_ZNSt3__122__compressed_pair_elemINS_14default_deleteIN7testing8internal11ThreadLocalINS_6vectorINS3_9TraceInfoENS_9allocatorIS6_EEEEE18ValueHolderFactoryEEELi1ELb1EE5__getB8ne180100Ev
FNA:15,0,_ZNSt3__122__compressed_pair_elemINS_14default_deleteIN7testing8internal11ThreadLocalIPNS2_31TestPartResultReporterInterfaceEE18ValueHolderFactoryEEELi1ELb1EE5__getB8ne180100Ev
FNA:15,25,_ZNSt3__122__compressed_pair_elemINS_14default_deleteIN7testing8internal14GTestFlagSaverEEELi1ELb1EE5__getB8ne180100Ev
FNA:15,0,_ZNSt3__122__compressed_pair_elemINS_14default_deleteIN7testing8internal16DeathTestFactoryEEELi1ELb1EE5__getB8ne180100Ev
FNA:15,0,_ZNSt3__122__compressed_pair_elemINS_14default_deleteIN7testing8internal24InternalRunDeathTestFlagEEELi1ELb1EE5__getB8ne180100Ev
FNA:15,0,_ZNSt3__122__compressed_pair_elemINS_14default_deleteINS_12basic_stringIcNS_11char_traitsIcEENS_9allocatorIcEEEEEELi1ELb1EE5__getB8ne180100Ev
FNA:15,1470,_ZNSt3__122__compressed_pair_elemINS_14default_deleteINS_18basic_stringstreamIcNS_11char_traitsIcEENS_9allocatorIcEEEEEELi1ELb1EE5__getB8ne180100Ev
FNA:15,0,_ZNSt3__122__compressed_pair_elemINS_19__map_value_compareINS_12basic_stringIcNS_11char_traitsIcEENS_9allocatorIcEEEENS_12__value_typeIS7_N7testing8internal34TypeParameterizedTestSuiteRegistry30TypeParameterizedTestSuiteInfoEEENS_4lessIS7_EELb1EEELi1ELb1EE5__getB8ne180100Ev
FNA:15,0,_ZNSt3__122__compressed_pair_elemINS_19__map_value_compareINS_12basic_stringIcNS_11char_traitsIcEENS_9allocatorIcEEEENS_12__value_typeIS7_mEENS_4lessIS7_EELb1EEELi1ELb1EE5__getB8ne180100Ev
FNA:15,77,_ZNSt3__122__compressed_pair_elemINS_4hashINS_12basic_stringIcNS_11char_traitsIcEENS_9allocatorIcEEEEEELi1ELb1EE5__getB8ne180100Ev
FNA:15,0,_ZNSt3__122__compressed_pair_elemINS_4lessINS_12basic_stringIcNS_11char_traitsIcEENS_9allocatorIcEEEEEELi1ELb1EE5__getB8ne180100Ev
FNA:15,52,_ZNSt3__122__compressed_pair_elemINS_8equal_toINS_12basic_stringIcNS_11char_traitsIcEENS_9allocatorIcEEEEEELi1ELb1EE5__getB8ne180100Ev
FNA:15,0,_ZNSt3__122__compressed_pair_elemINS_9allocatorIN7testing12TestPropertyEEELi1ELb1EE5__getB8ne180100Ev
FNA:15,0,_ZNSt3__122__compressed_pair_elemINS_9allocatorIN7testing14TestPartResultEEELi1ELb1EE5__getB8ne180100Ev
FNA:15,0,_ZNSt3__122__compressed_pair_elemINS_9allocatorIN7testing8internal13edit_distance8EditTypeEEELi1ELb1EE5__getB8ne180100Ev
FNA:15,0,_ZNSt3__122__compressed_pair_elemINS_9allocatorIN7testing8internal9TraceInfoEEELi1ELb1EE5__getB8ne180100Ev
FNA:15,207,_ZNSt3__122__compressed_pair_elemINS_9allocatorINS_11__hash_nodeINS_12basic_stringIcNS_11char_traitsIcEENS1_IcEEEEPvEEEELi1ELb1EE5__getB8ne180100Ev
FNA:15,0,_ZNSt3__122__compressed_pair_elemINS_9allocatorINS_11__list_nodeINS_4pairIcPKcEEPvEEEELi1ELb1EE5__getB8ne180100Ev
FNA:15,0,_ZNSt3__122__compressed_pair_elemINS_9allocatorINS_11__tree_nodeINS_12__value_typeINS_12basic_stringIcNS_11char_traitsIcEENS1_IcEEEEN7testing8internal34TypeParameterizedTestSuiteRegistry30TypeParameterizedTestSuiteInfoEEEPvEEEELi1ELb1EE5__getB8ne180100Ev
FNA:15,0,_ZNSt3__122__compressed_pair_elemINS_9allocatorINS_11__tree_nodeINS_12__value_typeINS_12basic_stringIcNS_11char_traitsIcEENS1_IcEEEEmEEPvEEEELi1ELb1EE5__getB8ne180100Ev
FNA:15,0,_ZNSt3__122__compressed_pair_elemINS_9allocatorINS_11__tree_nodeINS_12basic_stringIcNS_11char_traitsIcEENS1_IcEEEEPvEEEELi1ELb1EE5__getB8ne180100Ev
FNA:15,1510,_ZNSt3__122__compressed_pair_elemINS_9allocatorINS_12basic_stringIcNS_11char_traitsIcEENS1_IcEEEEEELi1ELb1EE5__getB8ne180100Ev
FNA:15,0,_ZNSt3__122__compressed_pair_elemINS_9allocatorINS_6vectorIN7testing8internal13edit_distance8EditTypeENS1_IS6_EEEEEELi1ELb1EE5__getB8ne180100Ev
FNA:15,0,_ZNSt3__122__compressed_pair_elemINS_9allocatorINS_6vectorIdNS1_IdEEEEEELi1ELb1EE5__getB8ne180100Ev
FNA:15,0,_ZNSt3__122__compressed_pair_elemINS_9allocatorIPN7testing11EnvironmentEEELi1ELb1EE5__getB8ne180100Ev
FNA:15,52,_ZNSt3__122__compressed_pair_elemINS_9allocatorIPN7testing17TestEventListenerEEELi1ELb1EE5__getB8ne180100Ev
FNA:15,806,_ZNSt3__122__compressed_pair_elemINS_9allocatorIPN7testing8TestInfoEEELi1ELb1EE5__getB8ne180100Ev
FNA:15,0,_ZNSt3__122__compressed_pair_elemINS_9allocatorIPN7testing8internal30ParameterizedTestSuiteInfoBaseEEELi1ELb1EE5__getB8ne180100Ev
FNA:15,52,_ZNSt3__122__compressed_pair_elemINS_9allocatorIPN7testing9TestSuiteEEELi1ELb1EE5__getB8ne180100Ev
FNA:15,102,_ZNSt3__122__compressed_pair_elemINS_9allocatorIPNS_16__hash_node_baseIPNS_11__hash_nodeINS_12basic_stringIcNS_11char_traitsIcEENS1_IcEEEEPvEEEEEELi1ELb1EE5__getB8ne180100Ev
FNA:15,0,_ZNSt3__122__compressed_pair_elemINS_9allocatorIPcEELi1ELb1EE5__getB8ne180100Ev
FNA:15,0,_ZNSt3__122__compressed_pair_elemINS_9allocatorIcEELi1ELb1EE5__getB8ne180100Ev
FNA:15,0,_ZNSt3__122__compressed_pair_elemINS_9allocatorIdEELi1ELb1EE5__getB8ne180100Ev
FNA:15,858,_ZNSt3__122__compressed_pair_elemINS_9allocatorIiEELi1ELb1EE5__getB8ne180100Ev
FNA:15,0,_ZNSt3__122__compressed_pair_elemINS_9allocatorImEELi1ELb1EE5__getB8ne180100Ev
FNL:16,93,93
FNA:16,0,_ZNKSt3__122__compressed_pair_elemINS_19__map_value_compareINS_12basic_stringIcNS_11char_traitsIcEENS_9allocatorIcEEEENS_12__value_typeIS7_N7testing8internal12CodeLocationEEENS_4lessIS7_EELb1EEELi1ELb1EE5__getB8ne180100Ev
FNA:16,2026,_ZNKSt3__122__compressed_pair_elemINS_4hashINS_12basic_stringIcNS_11char_traitsIcEENS_9allocatorIcEEEEEELi1ELb1EE5__getB8ne180100Ev
FNA:16,0,_ZNKSt3__122__compressed_pair_elemINS_4lessINS_12basic_stringIcNS_11char_traitsIcEENS_9allocatorIcEEEEEELi1ELb1EE5__getB8ne180100Ev
FNA:16,25,_ZNKSt3__122__compressed_pair_elemINS_8equal_toINS_12basic_stringIcNS_11char_traitsIcEENS_9allocatorIcEEEEEELi1ELb1EE5__getB8ne180100Ev
FNA:16,0,_ZNKSt3__122__compressed_pair_elemINS_9allocatorIN7testing12TestPropertyEEELi1ELb1EE5__getB8ne180100Ev
FNA:16,0,_ZNKSt3__122__compressed_pair_elemINS_9allocatorIN7testing14TestPartResultEEELi1ELb1EE5__getB8ne180100Ev
FNA:16,0,_ZNKSt3__122__compressed_pair_elemINS_9allocatorIN7testing8internal13edit_distance8EditTypeEEELi1ELb1EE5__getB8ne180100Ev
FNA:16,0,_ZNKSt3__122__compressed_pair_elemINS_9allocatorIN7testing8internal9TraceInfoEEELi1ELb1EE5__getB8ne180100Ev
FNA:16,364,_ZNKSt3__122__compressed_pair_elemINS_9allocatorINS_12basic_stringIcNS_11char_traitsIcEENS1_IcEEEEEELi1ELb1EE5__getB8ne180100Ev
FNA:16,0,_ZNKSt3__122__compressed_pair_elemINS_9allocatorINS_6vectorIN7testing8internal13edit_distance8EditTypeENS1_IS6_EEEEEELi1ELb1EE5__getB8ne180100Ev
FNA:16,0,_ZNKSt3__122__compressed_pair_elemINS_9allocatorINS_6vectorIdNS1_IdEEEEEELi1ELb1EE5__getB8ne180100Ev
FNA:16,0,_ZNKSt3__122__compressed_pair_elemINS_9allocatorIPN7testing11EnvironmentEEELi1ELb1EE5__getB8ne180100Ev
FNA:16,26,_ZNKSt3__122__compressed_pair_elemINS_9allocatorIPN7testing17TestEventListenerEEELi1ELb1EE5__getB8ne180100Ev
FNA:16,156,_ZNKSt3__122__compressed_pair_elemINS_9allocatorIPN7testing8TestInfoEEELi1ELb1EE5__getB8ne180100Ev
FNA:16,26,_ZNKSt3__122__compressed_pair_elemINS_9allocatorIPN7testing9TestSuiteEEELi1ELb1EE5__getB8ne180100Ev
FNA:16,0,_ZNKSt3__122__compressed_pair_elemINS_9allocatorIPcEELi1ELb1EE5__getB8ne180100Ev
FNA:16,1300,_ZNKSt3__122__compressed_pair_elemINS_9allocatorIcEELi1ELb1EE5__getB8ne180100Ev
FNA:16,0,_ZNKSt3__122__compressed_pair_elemINS_9allocatorIdEELi1ELb1EE5__getB8ne180100Ev
FNA:16,182,_ZNKSt3__122__compressed_pair_elemINS_9allocatorIiEELi1ELb1EE5__getB8ne180100Ev
FNA:16,0,_ZNKSt3__122__compressed_pair_elemINS_9allocatorImEELi1ELb1EE5__getB8ne180100Ev
FNF:17
FNH:16
DA:49,4578
DA:50,3761
DA:53,6745
DA:54,6745
DA:63,16707
DA:64,134638
DA:78,9416
DA:79,3252
DA:82,754
DA:83,754
DA:92,5211
DA:93,4105
DA:114,364
DA:115,364
DA:118,28142
DA:119,28142
DA:129,13698
DA:130,13698
DA:133,132512
DA:134,132512
DA:137,8220
DA:138,8220
DA:141,6231
DA:142,6231
DA:152,0
DA:155,0
DA:156,0
DA:157,0
LF:28
LH:24
end_of_record
TN:
SF:/Library/Developer/CommandLineTools/SDKs/MacOSX15.1.sdk/usr/include/c++/v1/__memory/construct_at.h
FNL:0,47,52
FNA:0,25,_ZNSt3__114__construct_atB8ne180100INS_11__hash_nodeINS_12basic_stringIcNS_11char_traitsIcEENS_9allocatorIcEEEEPvEEJDnRmEPS9_EEPT_SD_DpOT0_
FNA:0,0,_ZNSt3__114__construct_atB8ne180100INS_11__list_nodeINS_4pairIcPKcEEPvEEJRPNS_16__list_node_baseIS5_S6_EESB_EPS7_EEPT_SE_DpOT0_
FNL:1,65,68
FNA:1,25,_ZNSt3__112__destroy_atB8ne180100INS_11__hash_nodeINS_12basic_stringIcNS_11char_traitsIcEENS_9allocatorIcEEEEPvEELi0EEEvPT_
FNA:1,0,_ZNSt3__112__destroy_atB8ne180100INS_11__list_nodeINS_4pairIcPKcEEPvEELi0EEEvPT_
FNA:1,25,_ZNSt3__112__destroy_atB8ne180100INS_12basic_stringIcNS_11char_traitsIcEENS_9allocatorIcEEEELi0EEEvPT_
FNA:1,0,_ZNSt3__112__destroy_atB8ne180100INS_4pairIKNS_12basic_stringIcNS_11char_traitsIcEENS_9allocatorIcEEEEN7testing8internal34TypeParameterizedTestSuiteRegistry30TypeParameterizedTestSuiteInfoEEELi0EEEvPT_
FNA:1,0,_ZNSt3__112__destroy_atB8ne180100INS_4pairIKNS_12basic_stringIcNS_11char_traitsIcEENS_9allocatorIcEEEEmEELi0EEEvPT_
FNA:1,0,_ZNSt3__112__destroy_atB8ne180100INS_4pairIcPKcEELi0EEEvPT_
FNF:2
FNH:2
DA:47,25
DA:51,25
DA:52,25
DA:65,50
DA:67,50
DA:68,50
LF:6
LH:6
end_of_record
TN:
SF:/Library/Developer/CommandLineTools/SDKs/MacOSX15.1.sdk/usr/include/c++/v1/__memory/pointer_traits.h
FNL:0,161,162
FNA:0,0,_ZNSt3__114pointer_traitsIPKDiE10pointer_toB8ne180100ERS1_
FNA:0,0,_ZNSt3__114pointer_traitsIPKDsE10pointer_toB8ne180100ERS1_
FNA:0,0,_ZNSt3__114pointer_traitsIPKNS_12__value_typeINS_12basic_stringIcNS_11char_traitsIcEENS_9allocatorIcEEEEN7testing8internal12CodeLocationEEEE10pointer_toB8ne180100ERSC_
FNA:0,0,_ZNSt3__114pointer_traitsIPKNS_4pairIKNS_12basic_stringIcNS_11char_traitsIcEENS_9allocatorIcEEEEN7testing8internal12CodeLocationEEEE10pointer_toB8ne180100ERSD_
FNA:0,0,_ZNSt3__114pointer_traitsIPKNS_4pairIcPKcEEE10pointer_toB8ne180100ERS5_
FNA:0,0,_ZNSt3__114pointer_traitsIPKPN7testing9TestSuiteEE10pointer_toB8ne180100ERS4_
FNA:0,16578,_ZNSt3__114pointer_traitsIPKcE10pointer_toB8ne180100ERS1_
FNA:0,0,_ZNSt3__114pointer_traitsIPKwE10pointer_toB8ne180100ERS1_
FNA:0,0,_ZNSt3__114pointer_traitsIPNS_12__value_typeINS_12basic_stringIcNS_11char_traitsIcEENS_9allocatorIcEEEEN7testing8internal34TypeParameterizedTestSuiteRegistry30TypeParameterizedTestSuiteInfoEEEE10pointer_toB8ne180100ERSC_
FNA:0,0,_ZNSt3__114pointer_traitsIPNS_12__value_typeINS_12basic_stringIcNS_11char_traitsIcEENS_9allocatorIcEEEEmEEE10pointer_toB8ne180100ERS8_
FNA:0,78,_ZNSt3__114pointer_traitsIPNS_15__tree_end_nodeIPNS_16__tree_node_baseIPvEEEEE10pointer_toB8ne180100ERS6_
FNA:0,150,_ZNSt3__114pointer_traitsIPNS_16__hash_node_baseIPNS_11__hash_nodeINS_12basic_stringIcNS_11char_traitsIcEENS_9allocatorIcEEEEPvEEEEE10pointer_toB8ne180100ERSC_
FNA:0,0,_ZNSt3__114pointer_traitsIPNS_16__list_node_baseINS_4pairIcPKcEEPvEEE10pointer_toB8ne180100ERS7_
FNA:0,0,_ZNSt3__114pointer_traitsIPNS_4pairIKNS_12basic_stringIcNS_11char_traitsIcEENS_9allocatorIcEEEEN7testing8internal34TypeParameterizedTestSuiteRegistry30TypeParameterizedTestSuiteInfoEEEE10pointer_toB8ne180100ERSD_
FNA:0,0,_ZNSt3__114pointer_traitsIPNS_4pairIKNS_12basic_stringIcNS_11char_traitsIcEENS_9allocatorIcEEEEmEEE10pointer_toB8ne180100ERS9_
FNA:0,650,_ZNSt3__114pointer_traitsIPcE10pointer_toB8ne180100ERc
FNL:1,180,182
FNA:1,0,_ZNSt3__112__to_addressB8ne180100IKDiEEPT_S3_
FNA:1,0,_ZNSt3__112__to_addressB8ne180100IKDsEEPT_S3_
FNA:1,0,_ZNSt3__112__to_addressB8ne180100IKNS_12basic_stringIcNS_11char_traitsIcEENS_9allocatorIcEEEEEEPT_S9_
FNA:1,0,_ZNSt3__112__to_addressB8ne180100IKPKcEEPT_S5_
FNA:1,33602,_ZNSt3__112__to_addressB8ne180100IKcEEPT_S3_
FNA:1,0,_ZNSt3__112__to_addressB8ne180100IKwEEPT_S3_
FNA:1,0,_ZNSt3__112__to_addressB8ne180100IN7testing12TestPropertyEEEPT_S4_
FNA:1,0,_ZNSt3__112__to_addressB8ne180100IN7testing14TestPartResultEEEPT_S4_
FNA:1,0,_ZNSt3__112__to_addressB8ne180100IN7testing8internal13edit_distance8EditTypeEEEPT_S6_
FNA:1,0,_ZNSt3__112__to_addressB8ne180100IN7testing8internal9TraceInfoEEEPT_S5_
FNA:1,1581,_ZNSt3__112__to_addressB8ne180100INS_12basic_stringIcNS_11char_traitsIcEENS_9allocatorIcEEEEEEPT_S8_
FNA:1,0,_ZNSt3__112__to_addressB8ne180100INS_6vectorIN7testing8internal13edit_distance8EditTypeENS_9allocatorIS5_EEEEEEPT_SA_
FNA:1,0,_ZNSt3__112__to_addressB8ne180100INS_6vectorIdNS_9allocatorIdEEEEEEPT_S6_
FNA:1,0,_ZNSt3__112__to_addressB8ne180100IPN7testing11EnvironmentEEEPT_S5_
FNA:1,26,_ZNSt3__112__to_addressB8ne180100IPN7testing17TestEventListenerEEEPT_S5_
FNA:1,1456,_ZNSt3__112__to_addressB8ne180100IPN7testing8TestInfoEEEPT_S5_
FNA:1,0,_ZNSt3__112__to_addressB8ne180100IPN7testing8internal30ParameterizedTestSuiteInfoBaseEEEPT_S6_
FNA:1,26,_ZNSt3__112__to_addressB8ne180100IPN7testing9TestSuiteEEEPT_S5_
FNA:1,0,_ZNSt3__112__to_addressB8ne180100IPcEEPT_S3_
FNA:1,3260,_ZNSt3__112__to_addressB8ne180100IcEEPT_S2_
FNA:1,0,_ZNSt3__112__to_addressB8ne180100IdEEPT_S2_
FNA:1,1482,_ZNSt3__112__to_addressB8ne180100IiEEPT_S2_
FNA:1,0,_ZNSt3__112__to_addressB8ne180100ImEEPT_S2_
FNL:2,207,208
FNA:2,0,_ZNSt3__112__to_addressB8ne180100INS_11__wrap_iterIPKNS_12basic_stringIcNS_11char_traitsIcEENS_9allocatorIcEEEEEEvEEu7__decayIDTclsr19__to_address_helperIT_EE6__callclsr3stdE7declvalIRKSB_EEEEESD_
FNA:2,468,_ZNSt3__112__to_addressB8ne180100INS_11__wrap_iterIPNS_12basic_stringIcNS_11char_traitsIcEENS_9allocatorIcEEEEEEvEEu7__decayIDTclsr19__to_address_helperIT_EE6__callclsr3stdE7declvalIRKSA_EEEEESC_
FNA:2,0,_ZNSt3__112__to_addressB8ne180100INS_16reverse_iteratorINS1_IPN7testing12TestPropertyEEEEEvEEu7__decayIDTclsr19__to_address_helperIT_EE6__callclsr3stdE7declvalIRKS7_EEEEES9_
FNA:2,0,_ZNSt3__112__to_addressB8ne180100INS_16reverse_iteratorINS1_IPN7testing14TestPartResultEEEEEvEEu7__decayIDTclsr19__to_address_helperIT_EE6__callclsr3stdE7declvalIRKS7_EEEEES9_
FNA:2,0,_ZNSt3__112__to_addressB8ne180100INS_16reverse_iteratorINS1_IPN7testing8internal9TraceInfoEEEEEvEEu7__decayIDTclsr19__to_address_helperIT_EE6__callclsr3stdE7declvalIRKS8_EEEEESA_
FNA:2,0,_ZNSt3__112__to_addressB8ne180100INS_16reverse_iteratorINS1_IPNS_12basic_stringIcNS_11char_traitsIcEENS_9allocatorIcEEEEEEEEvEEu7__decayIDTclsr19__to_address_helperIT_EE6__callclsr3stdE7declvalIRKSB_EEEEESD_
FNA:2,0,_ZNSt3__112__to_addressB8ne180100INS_16reverse_iteratorIPN7testing12TestPropertyEEEvEEu7__decayIDTclsr19__to_address_helperIT_EE6__callclsr3stdE7declvalIRKS6_EEEEES8_
FNA:2,0,_ZNSt3__112__to_addressB8ne180100INS_16reverse_iteratorIPN7testing14TestPartResultEEEvEEu7__decayIDTclsr19__to_address_helperIT_EE6__callclsr3stdE7declvalIRKS6_EEEEES8_
FNA:2,0,_ZNSt3__112__to_addressB8ne180100INS_16reverse_iteratorIPN7testing8internal9TraceInfoEEEvEEu7__decayIDTclsr19__to_address_helperIT_EE6__callclsr3stdE7declvalIRKS7_EEEEES9_
FNA:2,128,_ZNSt3__112__to_addressB8ne180100INS_16reverse_iteratorIPNS_12basic_stringIcNS_11char_traitsIcEENS_9allocatorIcEEEEEEvEEu7__decayIDTclsr19__to_address_helperIT_EE6__callclsr3stdE7declvalIRKSA_EEEEESC_
FNL:3,215,216
FNA:3,0,_ZNSt3__119__to_address_helperINS_16reverse_iteratorINS1_IPN7testing12TestPropertyEEEEEvE6__callB8ne180100ERKS6_
FNA:3,0,_ZNSt3__119__to_address_helperINS_16reverse_iteratorINS1_IPN7testing14TestPartResultEEEEEvE6__callB8ne180100ERKS6_
FNA:3,0,_ZNSt3__119__to_address_helperINS_16reverse_iteratorINS1_IPN7testing8internal9TraceInfoEEEEEvE6__callB8ne180100ERKS7_
FNA:3,0,_ZNSt3__119__to_address_helperINS_16reverse_iteratorINS1_IPNS_12basic_stringIcNS_11char_traitsIcEENS_9allocatorIcEEEEEEEEvE6__callB8ne180100ERKSA_
FNA:3,0,_ZNSt3__119__to_address_helperINS_16reverse_iteratorIPN7testing12TestPropertyEEEvE6__callB8ne180100ERKS5_
FNA:3,0,_ZNSt3__119__to_address_helperINS_16reverse_iteratorIPN7testing14TestPartResultEEEvE6__callB8ne180100ERKS5_
FNA:3,0,_ZNSt3__119__to_address_helperINS_16reverse_iteratorIPN7testing8internal9TraceInfoEEEvE6__callB8ne180100ERKS6_
FNA:3,128,_ZNSt3__119__to_address_helperINS_16reverse_iteratorIPNS_12basic_stringIcNS_11char_traitsIcEENS_9allocatorIcEEEEEEvE6__callB8ne180100ERKS9_
FNL:4,225,226
FNA:4,0,_ZNSt3__119__to_address_helperINS_11__wrap_iterIPKNS_12basic_stringIcNS_11char_traitsIcEENS_9allocatorIcEEEEEEvE6__callB8ne180100ERKSA_
FNA:4,468,_ZNSt3__119__to_address_helperINS_11__wrap_iterIPNS_12basic_stringIcNS_11char_traitsIcEENS_9allocatorIcEEEEEEvE6__callB8ne180100ERKS9_
FNF:5
FNH:5
DA:161,17456
DA:162,17456
DA:180,41433
DA:182,41433
DA:207,596
DA:208,596
DA:215,128
DA:216,128
DA:225,468
DA:226,468
LF:10
LH:10
end_of_record
TN:
SF:/Library/Developer/CommandLineTools/SDKs/MacOSX15.1.sdk/usr/include/c++/v1/__memory/swap_allocator.h
FNL:0,38,38
FNA:0,104,_ZNSt3__116__swap_allocatorB8ne180100INS_9allocatorINS_12basic_stringIcNS_11char_traitsIcEENS1_IcEEEEEEEEvRT_S9_NS_17integral_constantIbLb0EEE
FNA:0,0,_ZNSt3__116__swap_allocatorB8ne180100INS_9allocatorIcEEEEvRT_S4_NS_17integral_constantIbLb0EEE
FNL:1,41,50
FNA:1,0,_ZNSt3__116__swap_allocatorB8ne180100INS_9allocatorIcEEEEvRT_S4_
FNF:2
FNH:1
DA:38,104
DA:41,0
DA:48,0
DA:49,0
DA:50,0
LF:5
LH:1
end_of_record
TN:
SF:/Library/Developer/CommandLineTools/SDKs/MacOSX15.1.sdk/usr/include/c++/v1/__memory/uninitialized_algorithms.h
FNL:0,517,520
FNA:0,0,_ZNSt3__119__allocator_destroyB8ne180100INS_9allocatorIN7testing12TestPropertyEEENS_16reverse_iteratorINS5_IPS3_EEEES8_EEvRT_T0_T1_
FNA:0,0,_ZNSt3__119__allocator_destroyB8ne180100INS_9allocatorIN7testing14TestPartResultEEENS_16reverse_iteratorINS5_IPS3_EEEES8_EEvRT_T0_T1_
FNA:0,0,_ZNSt3__119__allocator_destroyB8ne180100INS_9allocatorIN7testing8internal9TraceInfoEEENS_16reverse_iteratorINS6_IPS4_EEEES9_EEvRT_T0_T1_
FNA:0,0,_ZNSt3__119__allocator_destroyB8ne180100INS_9allocatorINS_12basic_stringIcNS_11char_traitsIcEENS1_IcEEEEEENS_16reverse_iteratorINS8_IPS6_EEEESB_EEvRT_T0_T1_
FNA:0,0,_ZNSt3__119__allocator_destroyB8ne180100INS_9allocatorINS_12basic_stringIcNS_11char_traitsIcEENS1_IcEEEEEENS_16reverse_iteratorIPS6_EESA_EEvRT_T0_T1_
FNL:1,526,527
FNA:1,0,_ZNSt3__129_AllocatorDestroyRangeReverseINS_9allocatorIN7testing12TestPropertyEEENS_16reverse_iteratorIPS3_EEEC1B8ne180100ERS4_RS7_SA_
FNA:1,0,_ZNSt3__129_AllocatorDestroyRangeReverseINS_9allocatorIN7testing12TestPropertyEEENS_16reverse_iteratorIPS3_EEEC2B8ne180100ERS4_RS7_SA_
FNA:1,0,_ZNSt3__129_AllocatorDestroyRangeReverseINS_9allocatorIN7testing14TestPartResultEEENS_16reverse_iteratorIPS3_EEEC1B8ne180100ERS4_RS7_SA_
FNA:1,0,_ZNSt3__129_AllocatorDestroyRangeReverseINS_9allocatorIN7testing14TestPartResultEEENS_16reverse_iteratorIPS3_EEEC2B8ne180100ERS4_RS7_SA_
FNA:1,0,_ZNSt3__129_AllocatorDestroyRangeReverseINS_9allocatorIN7testing8internal9TraceInfoEEENS_16reverse_iteratorIPS4_EEEC1B8ne180100ERS5_RS8_SB_
FNA:1,0,_ZNSt3__129_AllocatorDestroyRangeReverseINS_9allocatorIN7testing8internal9TraceInfoEEENS_16reverse_iteratorIPS4_EEEC2B8ne180100ERS5_RS8_SB_
FNA:1,286,_ZNSt3__129_AllocatorDestroyRangeReverseINS_9allocatorINS_12basic_stringIcNS_11char_traitsIcEENS1_IcEEEEEENS_16reverse_iteratorIPS6_EEEC1B8ne180100ERS7_RSA_SD_
FNA:1,286,_ZNSt3__129_AllocatorDestroyRangeReverseINS_9allocatorINS_12basic_stringIcNS_11char_traitsIcEENS1_IcEEEEEENS_16reverse_iteratorIPS6_EEEC2B8ne180100ERS7_RSA_SD_
FNA:1,26,_ZNSt3__129_AllocatorDestroyRangeReverseINS_9allocatorINS_12basic_stringIcNS_11char_traitsIcEENS1_IcEEEEEEPS6_EC1B8ne180100ERS7_RS8_SB_
FNA:1,26,_ZNSt3__129_AllocatorDestroyRangeReverseINS_9allocatorINS_12basic_stringIcNS_11char_traitsIcEENS1_IcEEEEEEPS6_EC2B8ne180100ERS7_RS8_SB_
FNL:2,529,531
FNA:2,0,_ZNKSt3__129_AllocatorDestroyRangeReverseINS_9allocatorIN7testing12TestPropertyEEENS_16reverse_iteratorIPS3_EEEclB8ne180100Ev
FNA:2,0,_ZNKSt3__129_AllocatorDestroyRangeReverseINS_9allocatorIN7testing14TestPartResultEEENS_16reverse_iteratorIPS3_EEEclB8ne180100Ev
FNA:2,0,_ZNKSt3__129_AllocatorDestroyRangeReverseINS_9allocatorIN7testing8internal9TraceInfoEEENS_16reverse_iteratorIPS4_EEEclB8ne180100Ev
FNA:2,0,_ZNKSt3__129_AllocatorDestroyRangeReverseINS_9allocatorINS_12basic_stringIcNS_11char_traitsIcEENS1_IcEEEEEENS_16reverse_iteratorIPS6_EEEclB8ne180100Ev
FNA:2,0,_ZNKSt3__129_AllocatorDestroyRangeReverseINS_9allocatorINS_12basic_stringIcNS_11char_traitsIcEENS1_IcEEEEEEPS6_EclB8ne180100Ev
FNL:3,545,556
FNA:3,0,_ZNSt3__135__uninitialized_allocator_copy_implB8ne180100INS_9allocatorINS_12basic_stringIcNS_11char_traitsIcEENS1_IcEEEEEEPKPKcSB_PS6_EET2_RT_T0_T1_SD_
FNA:3,0,_ZNSt3__135__uninitialized_allocator_copy_implB8ne180100INS_9allocatorINS_12basic_stringIcNS_11char_traitsIcEENS1_IcEEEEEEPKS6_S9_PS6_EET2_RT_T0_T1_SB_
FNA:3,26,_ZNSt3__135__uninitialized_allocator_copy_implB8ne180100INS_9allocatorINS_12basic_stringIcNS_11char_traitsIcEENS1_IcEEEEEEPS6_S8_S8_EET2_RT_T0_T1_S9_
FNL:4,574,584
FNA:4,0,_ZNSt3__135__uninitialized_allocator_copy_implB8ne180100INS_9allocatorIN7testing8internal13edit_distance8EditTypeEEES5_S5_S5_LPv0EEEPT2_RT_PT0_SD_S9_
FNA:4,0,_ZNSt3__135__uninitialized_allocator_copy_implB8ne180100INS_9allocatorIdEEdddLPv0EEEPT2_RT_PT0_S9_S5_
FNL:5,590,594
FNA:5,0,_ZNSt3__130__uninitialized_allocator_copyB8ne180100INS_9allocatorIN7testing8internal13edit_distance8EditTypeEEEPS5_S7_S7_EET2_RT_T0_T1_S8_
FNA:5,0,_ZNSt3__130__uninitialized_allocator_copyB8ne180100INS_9allocatorINS_12basic_stringIcNS_11char_traitsIcEENS1_IcEEEEEENS_11__wrap_iterIPKS6_EESB_PS6_EET2_RT_T0_T1_SD_
FNA:5,0,_ZNSt3__130__uninitialized_allocator_copyB8ne180100INS_9allocatorINS_12basic_stringIcNS_11char_traitsIcEENS1_IcEEEEEEPKPKcSB_PS6_EET2_RT_T0_T1_SD_
FNA:5,26,_ZNSt3__130__uninitialized_allocator_copyB8ne180100INS_9allocatorINS_12basic_stringIcNS_11char_traitsIcEENS1_IcEEEEEEPS6_S8_S8_EET2_RT_T0_T1_S9_
FNA:5,0,_ZNSt3__130__uninitialized_allocator_copyB8ne180100INS_9allocatorIdEEPdS3_S3_EET2_RT_T0_T1_S4_
FNL:6,604,621
FNA:6,0,_ZNSt3__142__uninitialized_allocator_move_if_noexceptB8ne180100INS_9allocatorIN7testing12TestPropertyEEENS_16reverse_iteratorIPS3_EES7_S7_EET2_RT_T0_T1_S8_
FNA:6,0,_ZNSt3__142__uninitialized_allocator_move_if_noexceptB8ne180100INS_9allocatorIN7testing14TestPartResultEEENS_16reverse_iteratorIPS3_EES7_S7_EET2_RT_T0_T1_S8_
FNA:6,0,_ZNSt3__142__uninitialized_allocator_move_if_noexceptB8ne180100INS_9allocatorIN7testing8internal9TraceInfoEEENS_16reverse_iteratorIPS4_EES8_S8_EET2_RT_T0_T1_S9_
FNA:6,286,_ZNSt3__142__uninitialized_allocator_move_if_noexceptB8ne180100INS_9allocatorINS_12basic_stringIcNS_11char_traitsIcEENS1_IcEEEEEENS_16reverse_iteratorIPS6_EESA_SA_EET2_RT_T0_T1_SB_
FNA:6,0,_ZNSt3__142__uninitialized_allocator_move_if_noexceptB8ne180100INS_9allocatorINS_12basic_stringIcNS_11char_traitsIcEENS1_IcEEEEEEPS6_S8_S8_EET2_RT_T0_T1_S9_
FNL:7,638,647
FNA:7,0,_ZNSt3__142__uninitialized_allocator_move_if_noexceptB8ne180100INS_9allocatorIN7testing8internal13edit_distance8EditTypeEEENS_16reverse_iteratorIPS5_EES9_S5_vEET1_RT_T0_SD_SA_
FNA:7,0,_ZNSt3__142__uninitialized_allocator_move_if_noexceptB8ne180100INS_9allocatorIPN7testing11EnvironmentEEENS_16reverse_iteratorIPS4_EES8_S4_vEET1_RT_T0_SC_S9_
FNA:7,26,_ZNSt3__142__uninitialized_allocator_move_if_noexceptB8ne180100INS_9allocatorIPN7testing17TestEventListenerEEENS_16reverse_iteratorIPS4_EES8_S4_vEET1_RT_T0_SC_S9_
FNA:7,156,_ZNSt3__142__uninitialized_allocator_move_if_noexceptB8ne180100INS_9allocatorIPN7testing8TestInfoEEENS_16reverse_iteratorIPS4_EES8_S4_vEET1_RT_T0_SC_S9_
FNA:7,26,_ZNSt3__142__uninitialized_allocator_move_if_noexceptB8ne180100INS_9allocatorIPN7testing9TestSuiteEEENS_16reverse_iteratorIPS4_EES8_S4_vEET1_RT_T0_SC_S9_
FNA:7,0,_ZNSt3__142__uninitialized_allocator_move_if_noexceptB8ne180100INS_9allocatorIPN7testing9TestSuiteEEEPS4_S6_S4_vEET1_RT_T0_SA_S7_
FNA:7,0,_ZNSt3__142__uninitialized_allocator_move_if_noexceptB8ne180100INS_9allocatorIPcEENS_16reverse_iteratorIPS2_EES6_S2_vEET1_RT_T0_SA_S7_
FNA:7,0,_ZNSt3__142__uninitialized_allocator_move_if_noexceptB8ne180100INS_9allocatorIPcEEPS2_S4_S2_vEET1_RT_T0_S8_S5_
FNA:7,182,_ZNSt3__142__uninitialized_allocator_move_if_noexceptB8ne180100INS_9allocatorIiEENS_16reverse_iteratorIPiEES5_ivEET1_RT_T0_S9_S6_
FNA:7,0,_ZNSt3__142__uninitialized_allocator_move_if_noexceptB8ne180100INS_9allocatorImEENS_16reverse_iteratorIPmEES5_mvEET1_RT_T0_S9_S6_
FNF:8
FNH:5
DA:517,0
DA:518,0
DA:519,0
DA:520,0
DA:526,624
DA:527,624
DA:529,0
DA:530,0
DA:531,0
DA:545,26
DA:546,26
DA:548,26
DA:549,103
DA:550,77
DA:551,77
DA:552,77
DA:554,26
DA:555,26
DA:556,26
DA:574,0
DA:584,0
DA:590,26
DA:591,26
DA:592,26
DA:593,26
DA:594,26
DA:604,286
DA:607,286
DA:609,286
DA:610,414
DA:612,128
DA:616,128
DA:617,128
DA:619,286
DA:620,286
DA:621,286
DA:638,390
DA:647,390
LF:38
LH:29
end_of_record
TN:
SF:/Library/Developer/CommandLineTools/SDKs/MacOSX15.1.sdk/usr/include/c++/v1/__memory/unique_ptr.h
FNL:0,167,167
FNA:0,26,_ZNSt3__110unique_ptrIN7testing8internal24InternalRunDeathTestFlagENS_14default_deleteIS3_EEEC1B8ne180100ILb1EvEEv
FNA:0,26,_ZNSt3__110unique_ptrIN7testing8internal24InternalRunDeathTestFlagENS_14default_deleteIS3_EEEC2B8ne180100ILb1EvEEv
FNA:0,145,_ZNSt3__110unique_ptrINS_12basic_stringIcNS_11char_traitsIcEENS_9allocatorIcEEEENS_14default_deleteIS6_EEEC1B8ne180100ILb1EvEEv
FNA:0,145,_ZNSt3__110unique_ptrINS_12basic_stringIcNS_11char_traitsIcEENS_9allocatorIcEEEENS_14default_deleteIS6_EEEC2B8ne180100ILb1EvEEv
FNL:1,174,175
FNA:1,1326,_ZNSt3__110unique_ptrIKNS_12basic_stringIcNS_11char_traitsIcEENS_9allocatorIcEEEENS_14default_deleteIS7_EEEC1B8ne180100ILb1EvEEPS7_
FNA:1,1326,_ZNSt3__110unique_ptrIKNS_12basic_stringIcNS_11char_traitsIcEENS_9allocatorIcEEEENS_14default_deleteIS7_EEEC2B8ne180100ILb1EvEEPS7_
FNA:1,26,_ZNSt3__110unique_ptrIN7testing8internal11ThreadLocalINS_6vectorINS2_9TraceInfoENS_9allocatorIS5_EEEEE18ValueHolderFactoryENS_14default_deleteISA_EEEC1B8ne180100ILb1EvEEPSA_
FNA:1,26,_ZNSt3__110unique_ptrIN7testing8internal11ThreadLocalINS_6vectorINS2_9TraceInfoENS_9allocatorIS5_EEEEE18ValueHolderFactoryENS_14default_deleteISA_EEEC2B8ne180100ILb1EvEEPSA_
FNA:1,26,_ZNSt3__110unique_ptrIN7testing8internal11ThreadLocalIPNS1_31TestPartResultReporterInterfaceEE18ValueHolderFactoryENS_14default_deleteIS7_EEEC1B8ne180100ILb1EvEEPS7_
FNA:1,26,_ZNSt3__110unique_ptrIN7testing8internal11ThreadLocalIPNS1_31TestPartResultReporterInterfaceEE18ValueHolderFactoryENS_14default_deleteIS7_EEEC2B8ne180100ILb1EvEEPS7_
FNA:1,25,_ZNSt3__110unique_ptrIN7testing8internal14GTestFlagSaverENS_14default_deleteIS3_EEEC1B8ne180100ILb1EvEEPS3_
FNA:1,25,_ZNSt3__110unique_ptrIN7testing8internal14GTestFlagSaverENS_14default_deleteIS3_EEEC2B8ne180100ILb1EvEEPS3_
FNA:1,26,_ZNSt3__110unique_ptrIN7testing8internal16DeathTestFactoryENS_14default_deleteIS3_EEEC1B8ne180100ILb1EvEEPS3_
FNA:1,26,_ZNSt3__110unique_ptrIN7testing8internal16DeathTestFactoryENS_14default_deleteIS3_EEEC2B8ne180100ILb1EvEEPS3_
FNA:1,0,_ZNSt3__110unique_ptrINS_12basic_stringIcNS_11char_traitsIcEENS_9allocatorIcEEEENS_14default_deleteIS6_EEEC1B8ne180100ILb1EvEEPS6_
FNA:1,0,_ZNSt3__110unique_ptrINS_12basic_stringIcNS_11char_traitsIcEENS_9allocatorIcEEEENS_14default_deleteIS6_EEEC2B8ne180100ILb1EvEEPS6_
FNA:1,1470,_ZNSt3__110unique_ptrINS_18basic_stringstreamIcNS_11char_traitsIcEENS_9allocatorIcEEEENS_14default_deleteIS6_EEEC1B8ne180100ILb1EvEEPS6_
FNA:1,1470,_ZNSt3__110unique_ptrINS_18basic_stringstreamIcNS_11char_traitsIcEENS_9allocatorIcEEEENS_14default_deleteIS6_EEEC2B8ne180100ILb1EvEEPS6_
FNL:2,182,185
FNA:2,25,_ZNSt3__110unique_ptrINS_11__hash_nodeINS_12basic_stringIcNS_11char_traitsIcEENS_9allocatorIcEEEEPvEENS_22__hash_node_destructorINS5_IS9_EEEEEC1B8ne180100ILb1EvEEPS9_NS_16__dependent_typeINS_27__unique_ptr_deleter_sfinaeISC_EEXT_EE20__good_rval_ref_typeE
FNA:2,25,_ZNSt3__110unique_ptrINS_11__hash_nodeINS_12basic_stringIcNS_11char_traitsIcEENS_9allocatorIcEEEEPvEENS_22__hash_node_destructorINS5_IS9_EEEEEC2B8ne180100ILb1EvEEPS9_NS_16__dependent_typeINS_27__unique_ptr_deleter_sfinaeISC_EEXT_EE20__good_rval_ref_typeE
FNA:2,0,_ZNSt3__110unique_ptrINS_11__tree_nodeINS_12__value_typeINS_12basic_stringIcNS_11char_traitsIcEENS_9allocatorIcEEEEN7testing8internal34TypeParameterizedTestSuiteRegistry30TypeParameterizedTestSuiteInfoEEEPvEENS_22__tree_node_destructorINS6_ISF_EEEEEC1B8ne180100ILb1EvEEPSF_NS_16__dependent_typeINS_27__unique_ptr_deleter_sfinaeISI_EEXT_EE20__good_rval_ref_typeE
FNA:2,0,_ZNSt3__110unique_ptrINS_11__tree_nodeINS_12__value_typeINS_12basic_stringIcNS_11char_traitsIcEENS_9allocatorIcEEEEN7testing8internal34TypeParameterizedTestSuiteRegistry30TypeParameterizedTestSuiteInfoEEEPvEENS_22__tree_node_destructorINS6_ISF_EEEEEC2B8ne180100ILb1EvEEPSF_NS_16__dependent_typeINS_27__unique_ptr_deleter_sfinaeISI_EEXT_EE20__good_rval_ref_typeE
FNA:2,0,_ZNSt3__110unique_ptrINS_11__tree_nodeINS_12__value_typeINS_12basic_stringIcNS_11char_traitsIcEENS_9allocatorIcEEEEmEEPvEENS_22__tree_node_destructorINS6_ISB_EEEEEC1B8ne180100ILb1EvEEPSB_NS_16__dependent_typeINS_27__unique_ptr_deleter_sfinaeISE_EEXT_EE20__good_rval_ref_typeE
FNA:2,0,_ZNSt3__110unique_ptrINS_11__tree_nodeINS_12__value_typeINS_12basic_stringIcNS_11char_traitsIcEENS_9allocatorIcEEEEmEEPvEENS_22__tree_node_destructorINS6_ISB_EEEEEC2B8ne180100ILb1EvEEPSB_NS_16__dependent_typeINS_27__unique_ptr_deleter_sfinaeISE_EEXT_EE20__good_rval_ref_typeE
FNA:2,0,_ZNSt3__110unique_ptrINS_11__tree_nodeINS_12basic_stringIcNS_11char_traitsIcEENS_9allocatorIcEEEEPvEENS_22__tree_node_destructorINS5_IS9_EEEEEC1B8ne180100ILb1EvEEPS9_NS_16__dependent_typeINS_27__unique_ptr_deleter_sfinaeISC_EEXT_EE20__good_rval_ref_typeE
FNA:2,0,_ZNSt3__110unique_ptrINS_11__tree_nodeINS_12basic_stringIcNS_11char_traitsIcEENS_9allocatorIcEEEEPvEENS_22__tree_node_destructorINS5_IS9_EEEEEC2B8ne180100ILb1EvEEPS9_NS_16__dependent_typeINS_27__unique_ptr_deleter_sfinaeISC_EEXT_EE20__good_rval_ref_typeE
FNL:3,236,236
FNA:3,0,_ZNSt3__110unique_ptrIKNS_12basic_stringIcNS_11char_traitsIcEENS_9allocatorIcEEEENS_14default_deleteIS7_EEED1B8ne180100Ev
FNA:3,0,_ZNSt3__110unique_ptrIKNS_12basic_stringIcNS_11char_traitsIcEENS_9allocatorIcEEEENS_14default_deleteIS7_EEED2B8ne180100Ev
FNA:3,0,_ZNSt3__110unique_ptrIN7testing8internal11ThreadLocalINS_6vectorINS2_9TraceInfoENS_9allocatorIS5_EEEEE18ValueHolderFactoryENS_14default_deleteISA_EEED1B8ne180100Ev
FNA:3,0,_ZNSt3__110unique_ptrIN7testing8internal11ThreadLocalINS_6vectorINS2_9TraceInfoENS_9allocatorIS5_EEEEE18ValueHolderFactoryENS_14default_deleteISA_EEED2B8ne180100Ev
FNA:3,0,_ZNSt3__110unique_ptrIN7testing8internal11ThreadLocalIPNS1_31TestPartResultReporterInterfaceEE18ValueHolderFactoryENS_14default_deleteIS7_EEED1B8ne180100Ev
FNA:3,0,_ZNSt3__110unique_ptrIN7testing8internal11ThreadLocalIPNS1_31TestPartResultReporterInterfaceEE18ValueHolderFactoryENS_14default_deleteIS7_EEED2B8ne180100Ev
FNA:3,25,_ZNSt3__110unique_ptrIN7testing8internal14GTestFlagSaverENS_14default_deleteIS3_EEED1B8ne180100Ev
FNA:3,25,_ZNSt3__110unique_ptrIN7testing8internal14GTestFlagSaverENS_14default_deleteIS3_EEED2B8ne180100Ev
FNA:3,0,_ZNSt3__110unique_ptrIN7testing8internal16DeathTestFactoryENS_14default_deleteIS3_EEED1B8ne180100Ev
FNA:3,0,_ZNSt3__110unique_ptrIN7testing8internal16DeathTestFactoryENS_14default_deleteIS3_EEED2B8ne180100Ev
FNA:3,0,_ZNSt3__110unique_ptrIN7testing8internal24InternalRunDeathTestFlagENS_14default_deleteIS3_EEED1B8ne180100Ev
FNA:3,0,_ZNSt3__110unique_ptrIN7testing8internal24InternalRunDeathTestFlagENS_14default_deleteIS3_EEED2B8ne180100Ev
FNA:3,25,_ZNSt3__110unique_ptrINS_11__hash_nodeINS_12basic_stringIcNS_11char_traitsIcEENS_9allocatorIcEEEEPvEENS_22__hash_node_destructorINS5_IS9_EEEEED1B8ne180100Ev
FNA:3,25,_ZNSt3__110unique_ptrINS_11__hash_nodeINS_12basic_stringIcNS_11char_traitsIcEENS_9allocatorIcEEEEPvEENS_22__hash_node_destructorINS5_IS9_EEEEED2B8ne180100Ev
FNA:3,0,_ZNSt3__110unique_ptrINS_11__tree_nodeINS_12__value_typeINS_12basic_stringIcNS_11char_traitsIcEENS_9allocatorIcEEEEN7testing8internal34TypeParameterizedTestSuiteRegistry30TypeParameterizedTestSuiteInfoEEEPvEENS_22__tree_node_destructorINS6_ISF_EEEEED1B8ne180100Ev
FNA:3,0,_ZNSt3__110unique_ptrINS_11__tree_nodeINS_12__value_typeINS_12basic_stringIcNS_11char_traitsIcEENS_9allocatorIcEEEEN7testing8internal34TypeParameterizedTestSuiteRegistry30TypeParameterizedTestSuiteInfoEEEPvEENS_22__tree_node_destructorINS6_ISF_EEEEED2B8ne180100Ev
FNA:3,0,_ZNSt3__110unique_ptrINS_11__tree_nodeINS_12__value_typeINS_12basic_stringIcNS_11char_traitsIcEENS_9allocatorIcEEEEmEEPvEENS_22__tree_node_destructorINS6_ISB_EEEEED1B8ne180100Ev
FNA:3,0,_ZNSt3__110unique_ptrINS_11__tree_nodeINS_12__value_typeINS_12basic_stringIcNS_11char_traitsIcEENS_9allocatorIcEEEEmEEPvEENS_22__tree_node_destructorINS6_ISB_EEEEED2B8ne180100Ev
FNA:3,0,_ZNSt3__110unique_ptrINS_11__tree_nodeINS_12basic_stringIcNS_11char_traitsIcEENS_9allocatorIcEEEEPvEENS_22__tree_node_destructorINS5_IS9_EEEEED1B8ne180100Ev
FNA:3,0,_ZNSt3__110unique_ptrINS_11__tree_nodeINS_12basic_stringIcNS_11char_traitsIcEENS_9allocatorIcEEEEPvEENS_22__tree_node_destructorINS5_IS9_EEEEED2B8ne180100Ev
FNA:3,145,_ZNSt3__110unique_ptrINS_12basic_stringIcNS_11char_traitsIcEENS_9allocatorIcEEEENS_14default_deleteIS6_EEED1B8ne180100Ev
FNA:3,145,_ZNSt3__110unique_ptrINS_12basic_stringIcNS_11char_traitsIcEENS_9allocatorIcEEEENS_14default_deleteIS6_EEED2B8ne180100Ev
FNA:3,1470,_ZNSt3__110unique_ptrINS_18basic_stringstreamIcNS_11char_traitsIcEENS_9allocatorIcEEEENS_14default_deleteIS6_EEED1B8ne180100Ev
FNA:3,1470,_ZNSt3__110unique_ptrINS_18basic_stringstreamIcNS_11char_traitsIcEENS_9allocatorIcEEEENS_14default_deleteIS6_EEED2B8ne180100Ev
FNL:4,243,244
FNA:4,25,_ZNKSt3__110unique_ptrINS_11__hash_nodeINS_12basic_stringIcNS_11char_traitsIcEENS_9allocatorIcEEEEPvEENS_22__hash_node_destructorINS5_IS9_EEEEEdeB8ne180100Ev
FNA:4,0,_ZNKSt3__110unique_ptrINS_12basic_stringIcNS_11char_traitsIcEENS_9allocatorIcEEEENS_14default_deleteIS6_EEEdeB8ne180100Ev
FNA:4,13704,_ZNKSt3__110unique_ptrINS_18basic_stringstreamIcNS_11char_traitsIcEENS_9allocatorIcEEEENS_14default_deleteIS6_EEEdeB8ne180100Ev
FNL:5,246,246
FNA:5,0,_ZNKSt3__110unique_ptrIKNS_12basic_stringIcNS_11char_traitsIcEENS_9allocatorIcEEEENS_14default_deleteIS7_EEEptB8ne180100Ev
FNA:5,0,_ZNKSt3__110unique_ptrIN7testing8internal11ThreadLocalINS_6vectorINS2_9TraceInfoENS_9allocatorIS5_EEEEE18ValueHolderFactoryENS_14default_deleteISA_EEEptB8ne180100Ev
FNA:5,0,_ZNKSt3__110unique_ptrIN7testing8internal11ThreadLocalIPNS1_31TestPartResultReporterInterfaceEE18ValueHolderFactoryENS_14default_deleteIS7_EEEptB8ne180100Ev
FNA:5,75,_ZNKSt3__110unique_ptrINS_11__hash_nodeINS_12basic_stringIcNS_11char_traitsIcEENS_9allocatorIcEEEEPvEENS_22__hash_node_destructorINS5_IS9_EEEEEptB8ne180100Ev
FNA:5,0,_ZNKSt3__110unique_ptrINS_11__tree_nodeINS_12__value_typeINS_12basic_stringIcNS_11char_traitsIcEENS_9allocatorIcEEEEN7testing8internal34TypeParameterizedTestSuiteRegistry30TypeParameterizedTestSuiteInfoEEEPvEENS_22__tree_node_destructorINS6_ISF_EEEEEptB8ne180100Ev
FNA:5,0,_ZNKSt3__110unique_ptrINS_11__tree_nodeINS_12__value_typeINS_12basic_stringIcNS_11char_traitsIcEENS_9allocatorIcEEEEmEEPvEENS_22__tree_node_destructorINS6_ISB_EEEEEptB8ne180100Ev
FNA:5,0,_ZNKSt3__110unique_ptrINS_11__tree_nodeINS_12basic_stringIcNS_11char_traitsIcEENS_9allocatorIcEEEEPvEENS_22__tree_node_destructorINS5_IS9_EEEEEptB8ne180100Ev
FNA:5,0,_ZNKSt3__110unique_ptrINS_12basic_stringIcNS_11char_traitsIcEENS_9allocatorIcEEEENS_14default_deleteIS6_EEEptB8ne180100Ev
FNL:6,247,247
FNA:6,701,_ZNKSt3__110unique_ptrIKNS_12basic_stringIcNS_11char_traitsIcEENS_9allocatorIcEEEENS_14default_deleteIS7_EEE3getB8ne180100Ev
FNA:6,0,_ZNKSt3__110unique_ptrIN7testing8internal16DeathTestFactoryENS_14default_deleteIS3_EEE3getB8ne180100Ev
FNA:6,52,_ZNKSt3__110unique_ptrIN7testing8internal24InternalRunDeathTestFlagENS_14default_deleteIS3_EEE3getB8ne180100Ev
FNA:6,25,_ZNKSt3__110unique_ptrINS_11__hash_nodeINS_12basic_stringIcNS_11char_traitsIcEENS_9allocatorIcEEEEPvEENS_22__hash_node_destructorINS5_IS9_EEEEE3getB8ne180100Ev
FNA:6,0,_ZNKSt3__110unique_ptrINS_11__tree_nodeINS_12__value_typeINS_12basic_stringIcNS_11char_traitsIcEENS_9allocatorIcEEEEN7testing8internal34TypeParameterizedTestSuiteRegistry30TypeParameterizedTestSuiteInfoEEEPvEENS_22__tree_node_destructorINS6_ISF_EEEEE3getB8ne180100Ev
FNA:6,0,_ZNKSt3__110unique_ptrINS_11__tree_nodeINS_12__value_typeINS_12basic_stringIcNS_11char_traitsIcEENS_9allocatorIcEEEEmEEPvEENS_22__tree_node_destructorINS6_ISB_EEEEE3getB8ne180100Ev
FNA:6,0,_ZNKSt3__110unique_ptrINS_11__tree_nodeINS_12basic_stringIcNS_11char_traitsIcEENS_9allocatorIcEEEEPvEENS_22__tree_node_destructorINS5_IS9_EEEEE3getB8ne180100Ev
FNA:6,0,_ZNKSt3__110unique_ptrINS_12basic_stringIcNS_11char_traitsIcEENS_9allocatorIcEEEENS_14default_deleteIS6_EEE3getB8ne180100Ev
FNA:6,1470,_ZNKSt3__110unique_ptrINS_18basic_stringstreamIcNS_11char_traitsIcEENS_9allocatorIcEEEENS_14default_deleteIS6_EEE3getB8ne180100Ev
FNL:7,248,248
FNA:7,25,_ZNSt3__110unique_ptrINS_11__hash_nodeINS_12basic_stringIcNS_11char_traitsIcEENS_9allocatorIcEEEEPvEENS_22__hash_node_destructorINS5_IS9_EEEEE11get_deleterB8ne180100Ev
FNA:7,0,_ZNSt3__110unique_ptrINS_11__tree_nodeINS_12__value_typeINS_12basic_stringIcNS_11char_traitsIcEENS_9allocatorIcEEEEN7testing8internal34TypeParameterizedTestSuiteRegistry30TypeParameterizedTestSuiteInfoEEEPvEENS_22__tree_node_destructorINS6_ISF_EEEEE11get_deleterB8ne180100Ev
FNA:7,0,_ZNSt3__110unique_ptrINS_11__tree_nodeINS_12__value_typeINS_12basic_stringIcNS_11char_traitsIcEENS_9allocatorIcEEEEmEEPvEENS_22__tree_node_destructorINS6_ISB_EEEEE11get_deleterB8ne180100Ev
FNA:7,0,_ZNSt3__110unique_ptrINS_11__tree_nodeINS_12basic_stringIcNS_11char_traitsIcEENS_9allocatorIcEEEEPvEENS_22__tree_node_destructorINS5_IS9_EEEEE11get_deleterB8ne180100Ev
FNL:8,256,259
FNA:8,25,_ZNSt3__110unique_ptrINS_11__hash_nodeINS_12basic_stringIcNS_11char_traitsIcEENS_9allocatorIcEEEEPvEENS_22__hash_node_destructorINS5_IS9_EEEEE7releaseB8ne180100Ev
FNA:8,0,_ZNSt3__110unique_ptrINS_11__tree_nodeINS_12__value_typeINS_12basic_stringIcNS_11char_traitsIcEENS_9allocatorIcEEEEN7testing8internal34TypeParameterizedTestSuiteRegistry30TypeParameterizedTestSuiteInfoEEEPvEENS_22__tree_node_destructorINS6_ISF_EEEEE7releaseB8ne180100Ev
FNA:8,0,_ZNSt3__110unique_ptrINS_11__tree_nodeINS_12__value_typeINS_12basic_stringIcNS_11char_traitsIcEENS_9allocatorIcEEEEmEEPvEENS_22__tree_node_destructorINS6_ISB_EEEEE7releaseB8ne180100Ev
FNA:8,0,_ZNSt3__110unique_ptrINS_11__tree_nodeINS_12basic_stringIcNS_11char_traitsIcEENS_9allocatorIcEEEEPvEENS_22__tree_node_destructorINS5_IS9_EEEEE7releaseB8ne180100Ev
FNL:9,262,267
FNA:9,0,_ZNSt3__110unique_ptrIKNS_12basic_stringIcNS_11char_traitsIcEENS_9allocatorIcEEEENS_14default_deleteIS7_EEE5resetB8ne180100EPS7_
FNA:9,0,_ZNSt3__110unique_ptrIN7testing8internal11ThreadLocalINS_6vectorINS2_9TraceInfoENS_9allocatorIS5_EEEEE18ValueHolderFactoryENS_14default_deleteISA_EEE5resetB8ne180100EPSA_
FNA:9,0,_ZNSt3__110unique_ptrIN7testing8internal11ThreadLocalIPNS1_31TestPartResultReporterInterfaceEE18ValueHolderFactoryENS_14default_deleteIS7_EEE5resetB8ne180100EPS7_
FNA:9,25,_ZNSt3__110unique_ptrIN7testing8internal14GTestFlagSaverENS_14default_deleteIS3_EEE5resetB8ne180100EPS3_
FNA:9,0,_ZNSt3__110unique_ptrIN7testing8internal16DeathTestFactoryENS_14default_deleteIS3_EEE5resetB8ne180100EPS3_
FNA:9,26,_ZNSt3__110unique_ptrIN7testing8internal24InternalRunDeathTestFlagENS_14default_deleteIS3_EEE5resetB8ne180100EPS3_
FNA:9,25,_ZNSt3__110unique_ptrINS_11__hash_nodeINS_12basic_stringIcNS_11char_traitsIcEENS_9allocatorIcEEEEPvEENS_22__hash_node_destructorINS5_IS9_EEEEE5resetB8ne180100EPS9_
FNA:9,0,_ZNSt3__110unique_ptrINS_11__tree_nodeINS_12__value_typeINS_12basic_stringIcNS_11char_traitsIcEENS_9allocatorIcEEEEN7testing8internal34TypeParameterizedTestSuiteRegistry30TypeParameterizedTestSuiteInfoEEEPvEENS_22__tree_node_destructorINS6_ISF_EEEEE5resetB8ne180100EPSF_
FNA:9,0,_ZNSt3__110unique_ptrINS_11__tree_nodeINS_12__value_typeINS_12basic_stringIcNS_11char_traitsIcEENS_9allocatorIcEEEEmEEPvEENS_22__tree_node_destructorINS6_ISB_EEEEE5resetB8ne180100EPSB_
FNA:9,0,_ZNSt3__110unique_ptrINS_11__tree_nodeINS_12basic_stringIcNS_11char_traitsIcEENS_9allocatorIcEEEEPvEENS_22__tree_node_destructorINS5_IS9_EEEEE5resetB8ne180100EPS9_
FNA:9,145,_ZNSt3__110unique_ptrINS_12basic_stringIcNS_11char_traitsIcEENS_9allocatorIcEEEENS_14default_deleteIS6_EEE5resetB8ne180100EPS6_
FNA:9,1470,_ZNSt3__110unique_ptrINS_18basic_stringstreamIcNS_11char_traitsIcEENS_9allocatorIcEEEENS_14default_deleteIS6_EEE5resetB8ne180100EPS6_
FNL:10,269,269
FNA:10,0,_ZNSt3__110unique_ptrINS_12basic_stringIcNS_11char_traitsIcEENS_9allocatorIcEEEENS_14default_deleteIS6_EEE4swapB8ne180100ERS9_
FNL:11,329,329
FNA:11,130,_ZNSt3__110unique_ptrIA_PNS_16__hash_node_baseIPNS_11__hash_nodeINS_12basic_stringIcNS_11char_traitsIcEENS_9allocatorIcEEEEPvEEEENS_25__bucket_list_deallocatorINS6_ISD_EEEEEC1B8ne180100ILb1EvEEv
FNA:11,130,_ZNSt3__110unique_ptrIA_PNS_16__hash_node_baseIPNS_11__hash_nodeINS_12basic_stringIcNS_11char_traitsIcEENS_9allocatorIcEEEEPvEEEENS_25__bucket_list_deallocatorINS6_ISD_EEEEEC2B8ne180100ILb1EvEEv
FNL:12,406,406
FNA:12,130,_ZNSt3__110unique_ptrIA_PNS_16__hash_node_baseIPNS_11__hash_nodeINS_12basic_stringIcNS_11char_traitsIcEENS_9allocatorIcEEEEPvEEEENS_25__bucket_list_deallocatorINS6_ISD_EEEEED1B8ne180100Ev
FNA:12,130,_ZNSt3__110unique_ptrIA_PNS_16__hash_node_baseIPNS_11__hash_nodeINS_12basic_stringIcNS_11char_traitsIcEENS_9allocatorIcEEEEPvEEEENS_25__bucket_list_deallocatorINS6_ISD_EEEEED2B8ne180100Ev
FNL:13,413,414
FNA:13,750,_ZNKSt3__110unique_ptrIA_PNS_16__hash_node_baseIPNS_11__hash_nodeINS_12basic_stringIcNS_11char_traitsIcEENS_9allocatorIcEEEEPvEEEENS_25__bucket_list_deallocatorINS6_ISD_EEEEEixB8ne180100Em
FNL:14,418,418
FNA:14,180,_ZNSt3__110unique_ptrIA_PNS_16__hash_node_baseIPNS_11__hash_nodeINS_12basic_stringIcNS_11char_traitsIcEENS_9allocatorIcEEEEPvEEEENS_25__bucket_list_deallocatorINS6_ISD_EEEEE11get_deleterB8ne180100Ev
FNL:15,420,421
FNA:15,2126,_ZNKSt3__110unique_ptrIA_PNS_16__hash_node_baseIPNS_11__hash_nodeINS_12basic_stringIcNS_11char_traitsIcEENS_9allocatorIcEEEEPvEEEENS_25__bucket_list_deallocatorINS6_ISD_EEEEE11get_deleterB8ne180100Ev
FNL:16,427,430
FNA:16,26,_ZNSt3__110unique_ptrIA_PNS_16__hash_node_baseIPNS_11__hash_nodeINS_12basic_stringIcNS_11char_traitsIcEENS_9allocatorIcEEEEPvEEEENS_25__bucket_list_deallocatorINS6_ISD_EEEEE7releaseB8ne180100Ev
FNL:17,434,439
FNA:17,51,_ZNSt3__110unique_ptrIA_PNS_16__hash_node_baseIPNS_11__hash_nodeINS_12basic_stringIcNS_11char_traitsIcEENS_9allocatorIcEEEEPvEEEENS_25__bucket_list_deallocatorINS6_ISD_EEEEE5resetB8ne180100IPSD_Li0EEEvT_
FNL:18,441,446
FNA:18,130,_ZNSt3__110unique_ptrIA_PNS_16__hash_node_baseIPNS_11__hash_nodeINS_12basic_stringIcNS_11char_traitsIcEENS_9allocatorIcEEEEPvEEEENS_25__bucket_list_deallocatorINS6_ISD_EEEEE5resetB8ne180100EDn
FNL:19,453,455
FNA:19,0,_ZNSt3__14swapB8ne180100INS_12basic_stringIcNS_11char_traitsIcEENS_9allocatorIcEEEENS_14default_deleteIS6_EELi0EEEvRNS_10unique_ptrIT_T0_EESD_
FNL:20,63,67
FNA:20,0,_ZNKSt3__114default_deleteIKNS_12basic_stringIcNS_11char_traitsIcEENS_9allocatorIcEEEEEclB8ne180100EPS7_
FNA:20,0,_ZNKSt3__114default_deleteIN7testing8internal11ThreadLocalINS_6vectorINS2_9TraceInfoENS_9allocatorIS5_EEEEE18ValueHolderFactoryEEclB8ne180100EPSA_
FNA:20,0,_ZNKSt3__114default_deleteIN7testing8internal11ThreadLocalIPNS1_31TestPartResultReporterInterfaceEE18ValueHolderFactoryEEclB8ne180100EPS7_
FNA:20,25,_ZNKSt3__114default_deleteIN7testing8internal14GTestFlagSaverEEclB8ne180100EPS3_
FNA:20,0,_ZNKSt3__114default_deleteIN7testing8internal16DeathTestFactoryEEclB8ne180100EPS3_
FNA:20,0,_ZNKSt3__114default_deleteIN7testing8internal24InternalRunDeathTestFlagEEclB8ne180100EPS3_
FNA:20,0,_ZNKSt3__114default_deleteINS_12basic_stringIcNS_11char_traitsIcEENS_9allocatorIcEEEEEclB8ne180100EPS6_
FNA:20,1470,_ZNKSt3__114default_deleteINS_18basic_stringstreamIcNS_11char_traitsIcEENS_9allocatorIcEEEEEclB8ne180100EPS6_
FNF:21
FNH:19
DA:63,1495
DA:66,1495
DA:67,1495
DA:167,342
DA:174,5798
DA:175,5798
DA:182,50
DA:183,50
DA:185,50
DA:236,3330
DA:243,13729
DA:244,13729
DA:246,75
DA:247,2248
DA:248,25
DA:256,25
DA:257,25
DA:258,25
DA:259,25
DA:262,1691
DA:263,1691
DA:264,1691
DA:265,1691
DA:266,1495
DA:267,1691
DA:269,0
DA:329,260
DA:406,260
DA:413,750
DA:414,750
DA:418,180
DA:420,2126
DA:421,2126
DA:427,26
DA:428,26
DA:429,26
DA:430,26
DA:434,51
DA:435,51
DA:436,51
DA:437,51
DA:438,0
DA:439,51
DA:441,130
DA:442,130
DA:443,130
DA:444,130
DA:445,25
DA:446,130
DA:453,0
DA:454,0
DA:455,0
LF:52
LH:47
end_of_record
TN:
SF:/Library/Developer/CommandLineTools/SDKs/MacOSX15.1.sdk/usr/include/c++/v1/__split_buffer
FNL:0,104,104
FNA:0,0,_ZNSt3__114__split_bufferIN7testing12TestPropertyERNS_9allocatorIS2_EEE7__allocB8ne180100Ev
FNA:0,0,_ZNSt3__114__split_bufferIN7testing14TestPartResultERNS_9allocatorIS2_EEE7__allocB8ne180100Ev
FNA:0,0,_ZNSt3__114__split_bufferIN7testing8internal13edit_distance8EditTypeERNS_9allocatorIS4_EEE7__allocB8ne180100Ev
FNA:0,0,_ZNSt3__114__split_bufferIN7testing8internal9TraceInfoERNS_9allocatorIS3_EEE7__allocB8ne180100Ev
FNA:0,517,_ZNSt3__114__split_bufferINS_12basic_stringIcNS_11char_traitsIcEENS_9allocatorIcEEEERNS4_IS6_EEE7__allocB8ne180100Ev
FNA:0,0,_ZNSt3__114__split_bufferIPN7testing11EnvironmentERNS_9allocatorIS3_EEE7__allocB8ne180100Ev
FNA:0,26,_ZNSt3__114__split_bufferIPN7testing17TestEventListenerERNS_9allocatorIS3_EEE7__allocB8ne180100Ev
FNA:0,1092,_ZNSt3__114__split_bufferIPN7testing8TestInfoERNS_9allocatorIS3_EEE7__allocB8ne180100Ev
FNA:0,26,_ZNSt3__114__split_bufferIPN7testing9TestSuiteERNS_9allocatorIS3_EEE7__allocB8ne180100Ev
FNA:0,0,_ZNSt3__114__split_bufferIPcRNS_9allocatorIS1_EEE7__allocB8ne180100Ev
FNA:0,1118,_ZNSt3__114__split_bufferIiRNS_9allocatorIiEEE7__allocB8ne180100Ev
FNA:0,0,_ZNSt3__114__split_bufferImRNS_9allocatorImEEE7__allocB8ne180100Ev
FNL:1,109,109
FNA:1,0,_ZNSt3__114__split_bufferIN7testing12TestPropertyERNS_9allocatorIS2_EEE9__end_capB8ne180100Ev
FNA:1,0,_ZNSt3__114__split_bufferIN7testing14TestPartResultERNS_9allocatorIS2_EEE9__end_capB8ne180100Ev
FNA:1,0,_ZNSt3__114__split_bufferIN7testing8internal13edit_distance8EditTypeERNS_9allocatorIS4_EEE9__end_capB8ne180100Ev
FNA:1,0,_ZNSt3__114__split_bufferIN7testing8internal9TraceInfoERNS_9allocatorIS3_EEE9__end_capB8ne180100Ev
FNA:1,572,_ZNSt3__114__split_bufferINS_12basic_stringIcNS_11char_traitsIcEENS_9allocatorIcEEEERNS4_IS6_EEE9__end_capB8ne180100Ev
FNA:1,0,_ZNSt3__114__split_bufferIPN7testing11EnvironmentERNS_9allocatorIS3_EEE9__end_capB8ne180100Ev
FNA:1,52,_ZNSt3__114__split_bufferIPN7testing17TestEventListenerERNS_9allocatorIS3_EEE9__end_capB8ne180100Ev
FNA:1,312,_ZNSt3__114__split_bufferIPN7testing8TestInfoERNS_9allocatorIS3_EEE9__end_capB8ne180100Ev
FNA:1,52,_ZNSt3__114__split_bufferIPN7testing9TestSuiteERNS_9allocatorIS3_EEE9__end_capB8ne180100Ev
FNA:1,0,_ZNSt3__114__split_bufferIPcRNS_9allocatorIS1_EEE9__end_capB8ne180100Ev
FNA:1,364,_ZNSt3__114__split_bufferIiRNS_9allocatorIiEEE9__end_capB8ne180100Ev
FNA:1,0,_ZNSt3__114__split_bufferImRNS_9allocatorImEEE9__end_capB8ne180100Ev
FNL:2,110,111
FNA:2,0,_ZNKSt3__114__split_bufferIN7testing12TestPropertyERNS_9allocatorIS2_EEE9__end_capB8ne180100Ev
FNA:2,0,_ZNKSt3__114__split_bufferIN7testing14TestPartResultERNS_9allocatorIS2_EEE9__end_capB8ne180100Ev
FNA:2,0,_ZNKSt3__114__split_bufferIN7testing8internal13edit_distance8EditTypeERNS_9allocatorIS4_EEE9__end_capB8ne180100Ev
FNA:2,0,_ZNKSt3__114__split_bufferIN7testing8internal9TraceInfoERNS_9allocatorIS3_EEE9__end_capB8ne180100Ev
FNA:2,103,_ZNKSt3__114__split_bufferINS_12basic_stringIcNS_11char_traitsIcEENS_9allocatorIcEEEERNS4_IS6_EEE9__end_capB8ne180100Ev
FNA:2,0,_ZNKSt3__114__split_bufferIPN7testing11EnvironmentERNS_9allocatorIS3_EEE9__end_capB8ne180100Ev
FNA:2,0,_ZNKSt3__114__split_bufferIPN7testing17TestEventListenerERNS_9allocatorIS3_EEE9__end_capB8ne180100Ev
FNA:2,130,_ZNKSt3__114__split_bufferIPN7testing8TestInfoERNS_9allocatorIS3_EEE9__end_capB8ne180100Ev
FNA:2,0,_ZNKSt3__114__split_bufferIPN7testing9TestSuiteERNS_9allocatorIS3_EEE9__end_capB8ne180100Ev
FNA:2,0,_ZNKSt3__114__split_bufferIPcRNS_9allocatorIS1_EEE9__end_capB8ne180100Ev
FNA:2,130,_ZNKSt3__114__split_bufferIiRNS_9allocatorIiEEE9__end_capB8ne180100Ev
FNA:2,0,_ZNKSt3__114__split_bufferImRNS_9allocatorImEEE9__end_capB8ne180100Ev
FNL:3,120,120
FNA:3,0,_ZNSt3__114__split_bufferIN7testing12TestPropertyERNS_9allocatorIS2_EEE5clearB8ne180100Ev
FNA:3,0,_ZNSt3__114__split_bufferIN7testing14TestPartResultERNS_9allocatorIS2_EEE5clearB8ne180100Ev
FNA:3,0,_ZNSt3__114__split_bufferIN7testing8internal13edit_distance8EditTypeERNS_9allocatorIS4_EEE5clearB8ne180100Ev
FNA:3,0,_ZNSt3__114__split_bufferIN7testing8internal9TraceInfoERNS_9allocatorIS3_EEE5clearB8ne180100Ev
FNA:3,286,_ZNSt3__114__split_bufferINS_12basic_stringIcNS_11char_traitsIcEENS_9allocatorIcEEEERNS4_IS6_EEE5clearB8ne180100Ev
FNA:3,0,_ZNSt3__114__split_bufferIPN7testing11EnvironmentERNS_9allocatorIS3_EEE5clearB8ne180100Ev
FNA:3,26,_ZNSt3__114__split_bufferIPN7testing17TestEventListenerERNS_9allocatorIS3_EEE5clearB8ne180100Ev
FNA:3,156,_ZNSt3__114__split_bufferIPN7testing8TestInfoERNS_9allocatorIS3_EEE5clearB8ne180100Ev
FNA:3,26,_ZNSt3__114__split_bufferIPN7testing9TestSuiteERNS_9allocatorIS3_EEE5clearB8ne180100Ev
FNA:3,0,_ZNSt3__114__split_bufferIPcRNS_9allocatorIS1_EEE5clearB8ne180100Ev
FNA:3,182,_ZNSt3__114__split_bufferIiRNS_9allocatorIiEEE5clearB8ne180100Ev
FNA:3,0,_ZNSt3__114__split_bufferImRNS_9allocatorImEEE5clearB8ne180100Ev
FNL:4,128,129
FNA:4,0,_ZNKSt3__114__split_bufferIN7testing12TestPropertyERNS_9allocatorIS2_EEE8capacityB8ne180100Ev
FNA:4,0,_ZNKSt3__114__split_bufferIN7testing14TestPartResultERNS_9allocatorIS2_EEE8capacityB8ne180100Ev
FNA:4,0,_ZNKSt3__114__split_bufferIN7testing8internal13edit_distance8EditTypeERNS_9allocatorIS4_EEE8capacityB8ne180100Ev
FNA:4,0,_ZNKSt3__114__split_bufferIN7testing8internal9TraceInfoERNS_9allocatorIS3_EEE8capacityB8ne180100Ev
FNA:4,103,_ZNKSt3__114__split_bufferINS_12basic_stringIcNS_11char_traitsIcEENS_9allocatorIcEEEERNS4_IS6_EEE8capacityB8ne180100Ev
FNA:4,0,_ZNKSt3__114__split_bufferIPN7testing11EnvironmentERNS_9allocatorIS3_EEE8capacityB8ne180100Ev
FNA:4,0,_ZNKSt3__114__split_bufferIPN7testing17TestEventListenerERNS_9allocatorIS3_EEE8capacityB8ne180100Ev
FNA:4,130,_ZNKSt3__114__split_bufferIPN7testing8TestInfoERNS_9allocatorIS3_EEE8capacityB8ne180100Ev
FNA:4,0,_ZNKSt3__114__split_bufferIPN7testing9TestSuiteERNS_9allocatorIS3_EEE8capacityB8ne180100Ev
FNA:4,0,_ZNKSt3__114__split_bufferIPcRNS_9allocatorIS1_EEE8capacityB8ne180100Ev
FNA:4,130,_ZNKSt3__114__split_bufferIiRNS_9allocatorIiEEE8capacityB8ne180100Ev
FNA:4,0,_ZNKSt3__114__split_bufferImRNS_9allocatorImEEE8capacityB8ne180100Ev
FNL:5,183,185
FNA:5,0,_ZNSt3__114__split_bufferIN7testing12TestPropertyERNS_9allocatorIS2_EEE17__destruct_at_endB8ne180100EPS2_
FNA:5,0,_ZNSt3__114__split_bufferIN7testing14TestPartResultERNS_9allocatorIS2_EEE17__destruct_at_endB8ne180100EPS2_
FNA:5,0,_ZNSt3__114__split_bufferIN7testing8internal13edit_distance8EditTypeERNS_9allocatorIS4_EEE17__destruct_at_endB8ne180100EPS4_
FNA:5,0,_ZNSt3__114__split_bufferIN7testing8internal9TraceInfoERNS_9allocatorIS3_EEE17__destruct_at_endB8ne180100EPS3_
FNA:5,286,_ZNSt3__114__split_bufferINS_12basic_stringIcNS_11char_traitsIcEENS_9allocatorIcEEEERNS4_IS6_EEE17__destruct_at_endB8ne180100EPS6_
FNA:5,0,_ZNSt3__114__split_bufferIPN7testing11EnvironmentERNS_9allocatorIS3_EEE17__destruct_at_endB8ne180100EPS3_
FNA:5,26,_ZNSt3__114__split_bufferIPN7testing17TestEventListenerERNS_9allocatorIS3_EEE17__destruct_at_endB8ne180100EPS3_
FNA:5,156,_ZNSt3__114__split_bufferIPN7testing8TestInfoERNS_9allocatorIS3_EEE17__destruct_at_endB8ne180100EPS3_
FNA:5,26,_ZNSt3__114__split_bufferIPN7testing9TestSuiteERNS_9allocatorIS3_EEE17__destruct_at_endB8ne180100EPS3_
FNA:5,0,_ZNSt3__114__split_bufferIPcRNS_9allocatorIS1_EEE17__destruct_at_endB8ne180100EPS1_
FNA:5,182,_ZNSt3__114__split_bufferIiRNS_9allocatorIiEEE17__destruct_at_endB8ne180100EPi
FNA:5,0,_ZNSt3__114__split_bufferImRNS_9allocatorImEEE17__destruct_at_endB8ne180100EPm
FNL:6,204,208
FNA:6,0,_ZNSt3__114__split_bufferINS_12basic_stringIcNS_11char_traitsIcEENS_9allocatorIcEEEERNS4_IS6_EEE21_ConstructTransactionC1B8ne180100EPPS6_m
FNA:6,0,_ZNSt3__114__split_bufferINS_12basic_stringIcNS_11char_traitsIcEENS_9allocatorIcEEEERNS4_IS6_EEE21_ConstructTransactionC2B8ne180100EPPS6_m
FNA:6,0,_ZNSt3__114__split_bufferIPN7testing9TestSuiteERNS_9allocatorIS3_EEE21_ConstructTransactionC1B8ne180100EPPS3_m
FNA:6,0,_ZNSt3__114__split_bufferIPN7testing9TestSuiteERNS_9allocatorIS3_EEE21_ConstructTransactionC2B8ne180100EPPS3_m
FNA:6,0,_ZNSt3__114__split_bufferIPcRNS_9allocatorIS1_EEE21_ConstructTransactionC1B8ne180100EPPS1_m
FNA:6,0,_ZNSt3__114__split_bufferIPcRNS_9allocatorIS1_EEE21_ConstructTransactionC2B8ne180100EPPS1_m
FNL:7,210,210
FNA:7,0,_ZNSt3__114__split_bufferINS_12basic_stringIcNS_11char_traitsIcEENS_9allocatorIcEEEERNS4_IS6_EEE21_ConstructTransactionD1B8ne180100Ev
FNA:7,0,_ZNSt3__114__split_bufferINS_12basic_stringIcNS_11char_traitsIcEENS_9allocatorIcEEEERNS4_IS6_EEE21_ConstructTransactionD2B8ne180100Ev
FNA:7,0,_ZNSt3__114__split_bufferIPN7testing9TestSuiteERNS_9allocatorIS3_EEE21_ConstructTransactionD1B8ne180100Ev
FNA:7,0,_ZNSt3__114__split_bufferIPN7testing9TestSuiteERNS_9allocatorIS3_EEE21_ConstructTransactionD2B8ne180100Ev
FNA:7,0,_ZNSt3__114__split_bufferIPcRNS_9allocatorIS1_EEE21_ConstructTransactionD1B8ne180100Ev
FNA:7,0,_ZNSt3__114__split_bufferIPcRNS_9allocatorIS1_EEE21_ConstructTransactionD2B8ne180100Ev
FNL:8,296,298
FNA:8,0,_ZNSt3__114__split_bufferINS_12basic_stringIcNS_11char_traitsIcEENS_9allocatorIcEEEERNS4_IS6_EEE18__construct_at_endINS_13move_iteratorIPS6_EELi0EEEvT_SE_
FNA:8,0,_ZNSt3__114__split_bufferIPN7testing9TestSuiteERNS_9allocatorIS3_EEE18__construct_at_endINS_13move_iteratorIPS3_EELi0EEEvT_SC_
FNA:8,0,_ZNSt3__114__split_bufferIPcRNS_9allocatorIS1_EEE18__construct_at_endINS_13move_iteratorIPS1_EELi0EEEvT_SA_
FNL:9,303,308
FNA:9,0,_ZNSt3__114__split_bufferINS_12basic_stringIcNS_11char_traitsIcEENS_9allocatorIcEEEERNS4_IS6_EEE28__construct_at_end_with_sizeINS_13move_iteratorIPS6_EEEEvT_m
FNA:9,0,_ZNSt3__114__split_bufferIPN7testing9TestSuiteERNS_9allocatorIS3_EEE28__construct_at_end_with_sizeINS_13move_iteratorIPS3_EEEEvT_m
FNA:9,0,_ZNSt3__114__split_bufferIPcRNS_9allocatorIS1_EEE28__construct_at_end_with_sizeINS_13move_iteratorIPS1_EEEEvT_m
FNL:10,325,328
FNA:10,0,_ZNSt3__114__split_bufferIN7testing12TestPropertyERNS_9allocatorIS2_EEE17__destruct_at_endB8ne180100EPS2_NS_17integral_constantIbLb0EEE
FNA:10,0,_ZNSt3__114__split_bufferIN7testing14TestPartResultERNS_9allocatorIS2_EEE17__destruct_at_endB8ne180100EPS2_NS_17integral_constantIbLb0EEE
FNA:10,0,_ZNSt3__114__split_bufferIN7testing8internal13edit_distance8EditTypeERNS_9allocatorIS4_EEE17__destruct_at_endB8ne180100EPS4_NS_17integral_constantIbLb0EEE
FNA:10,0,_ZNSt3__114__split_bufferIN7testing8internal9TraceInfoERNS_9allocatorIS3_EEE17__destruct_at_endB8ne180100EPS3_NS_17integral_constantIbLb0EEE
FNA:10,286,_ZNSt3__114__split_bufferINS_12basic_stringIcNS_11char_traitsIcEENS_9allocatorIcEEEERNS4_IS6_EEE17__destruct_at_endB8ne180100EPS6_NS_17integral_constantIbLb0EEE
FNA:10,0,_ZNSt3__114__split_bufferIPN7testing11EnvironmentERNS_9allocatorIS3_EEE17__destruct_at_endB8ne180100EPS3_NS_17integral_constantIbLb0EEE
FNA:10,26,_ZNSt3__114__split_bufferIPN7testing17TestEventListenerERNS_9allocatorIS3_EEE17__destruct_at_endB8ne180100EPS3_NS_17integral_constantIbLb0EEE
FNA:10,156,_ZNSt3__114__split_bufferIPN7testing8TestInfoERNS_9allocatorIS3_EEE17__destruct_at_endB8ne180100EPS3_NS_17integral_constantIbLb0EEE
FNA:10,26,_ZNSt3__114__split_bufferIPN7testing9TestSuiteERNS_9allocatorIS3_EEE17__destruct_at_endB8ne180100EPS3_NS_17integral_constantIbLb0EEE
FNA:10,0,_ZNSt3__114__split_bufferIPcRNS_9allocatorIS1_EEE17__destruct_at_endB8ne180100EPS1_NS_17integral_constantIbLb0EEE
FNA:10,182,_ZNSt3__114__split_bufferIiRNS_9allocatorIiEEE17__destruct_at_endB8ne180100EPiNS_17integral_constantIbLb0EEE
FNA:10,0,_ZNSt3__114__split_bufferImRNS_9allocatorImEEE17__destruct_at_endB8ne180100EPmNS_17integral_constantIbLb0EEE
FNL:11,338,349
FNA:11,0,_ZNSt3__114__split_bufferIN7testing12TestPropertyERNS_9allocatorIS2_EEEC1EmmS5_
FNA:11,0,_ZNSt3__114__split_bufferIN7testing12TestPropertyERNS_9allocatorIS2_EEEC2EmmS5_
FNA:11,0,_ZNSt3__114__split_bufferIN7testing14TestPartResultERNS_9allocatorIS2_EEEC1EmmS5_
FNA:11,0,_ZNSt3__114__split_bufferIN7testing14TestPartResultERNS_9allocatorIS2_EEEC2EmmS5_
FNA:11,0,_ZNSt3__114__split_bufferIN7testing8internal13edit_distance8EditTypeERNS_9allocatorIS4_EEEC1EmmS7_
FNA:11,0,_ZNSt3__114__split_bufferIN7testing8internal13edit_distance8EditTypeERNS_9allocatorIS4_EEEC2EmmS7_
FNA:11,0,_ZNSt3__114__split_bufferIN7testing8internal9TraceInfoERNS_9allocatorIS3_EEEC1EmmS6_
FNA:11,0,_ZNSt3__114__split_bufferIN7testing8internal9TraceInfoERNS_9allocatorIS3_EEEC2EmmS6_
FNA:11,286,_ZNSt3__114__split_bufferINS_12basic_stringIcNS_11char_traitsIcEENS_9allocatorIcEEEERNS4_IS6_EEEC1EmmS8_
FNA:11,286,_ZNSt3__114__split_bufferINS_12basic_stringIcNS_11char_traitsIcEENS_9allocatorIcEEEERNS4_IS6_EEEC2EmmS8_
FNA:11,0,_ZNSt3__114__split_bufferIPN7testing11EnvironmentERNS_9allocatorIS3_EEEC1EmmS6_
FNA:11,0,_ZNSt3__114__split_bufferIPN7testing11EnvironmentERNS_9allocatorIS3_EEEC2EmmS6_
FNA:11,26,_ZNSt3__114__split_bufferIPN7testing17TestEventListenerERNS_9allocatorIS3_EEEC1EmmS6_
FNA:11,26,_ZNSt3__114__split_bufferIPN7testing17TestEventListenerERNS_9allocatorIS3_EEEC2EmmS6_
FNA:11,156,_ZNSt3__114__split_bufferIPN7testing8TestInfoERNS_9allocatorIS3_EEEC1EmmS6_
FNA:11,156,_ZNSt3__114__split_bufferIPN7testing8TestInfoERNS_9allocatorIS3_EEEC2EmmS6_
FNA:11,26,_ZNSt3__114__split_bufferIPN7testing9TestSuiteERNS_9allocatorIS3_EEEC1EmmS6_
FNA:11,26,_ZNSt3__114__split_bufferIPN7testing9TestSuiteERNS_9allocatorIS3_EEEC2EmmS6_
FNA:11,0,_ZNSt3__114__split_bufferIPcRNS_9allocatorIS1_EEEC1EmmS4_
FNA:11,0,_ZNSt3__114__split_bufferIPcRNS_9allocatorIS1_EEEC2EmmS4_
FNA:11,182,_ZNSt3__114__split_bufferIiRNS_9allocatorIiEEEC1EmmS3_
FNA:11,182,_ZNSt3__114__split_bufferIiRNS_9allocatorIiEEEC2EmmS3_
FNA:11,0,_ZNSt3__114__split_bufferImRNS_9allocatorImEEEC1EmmS3_
FNA:11,0,_ZNSt3__114__split_bufferImRNS_9allocatorImEEEC2EmmS3_
FNL:12,352,356
FNA:12,0,_ZNSt3__114__split_bufferIN7testing12TestPropertyERNS_9allocatorIS2_EEED1Ev
FNA:12,0,_ZNSt3__114__split_bufferIN7testing12TestPropertyERNS_9allocatorIS2_EEED2Ev
FNA:12,0,_ZNSt3__114__split_bufferIN7testing14TestPartResultERNS_9allocatorIS2_EEED1Ev
FNA:12,0,_ZNSt3__114__split_bufferIN7testing14TestPartResultERNS_9allocatorIS2_EEED2Ev
FNA:12,0,_ZNSt3__114__split_bufferIN7testing8internal13edit_distance8EditTypeERNS_9allocatorIS4_EEED1Ev
FNA:12,0,_ZNSt3__114__split_bufferIN7testing8internal13edit_distance8EditTypeERNS_9allocatorIS4_EEED2Ev
FNA:12,0,_ZNSt3__114__split_bufferIN7testing8internal9TraceInfoERNS_9allocatorIS3_EEED1Ev
FNA:12,0,_ZNSt3__114__split_bufferIN7testing8internal9TraceInfoERNS_9allocatorIS3_EEED2Ev
FNA:12,286,_ZNSt3__114__split_bufferINS_12basic_stringIcNS_11char_traitsIcEENS_9allocatorIcEEEERNS4_IS6_EEED1Ev
FNA:12,286,_ZNSt3__114__split_bufferINS_12basic_stringIcNS_11char_traitsIcEENS_9allocatorIcEEEERNS4_IS6_EEED2Ev
FNA:12,0,_ZNSt3__114__split_bufferIPN7testing11EnvironmentERNS_9allocatorIS3_EEED1Ev
FNA:12,0,_ZNSt3__114__split_bufferIPN7testing11EnvironmentERNS_9allocatorIS3_EEED2Ev
FNA:12,26,_ZNSt3__114__split_bufferIPN7testing17TestEventListenerERNS_9allocatorIS3_EEED1Ev
FNA:12,26,_ZNSt3__114__split_bufferIPN7testing17TestEventListenerERNS_9allocatorIS3_EEED2Ev
FNA:12,156,_ZNSt3__114__split_bufferIPN7testing8TestInfoERNS_9allocatorIS3_EEED1Ev
FNA:12,156,_ZNSt3__114__split_bufferIPN7testing8TestInfoERNS_9allocatorIS3_EEED2Ev
FNA:12,26,_ZNSt3__114__split_bufferIPN7testing9TestSuiteERNS_9allocatorIS3_EEED1Ev
FNA:12,26,_ZNSt3__114__split_bufferIPN7testing9TestSuiteERNS_9allocatorIS3_EEED2Ev
FNA:12,0,_ZNSt3__114__split_bufferIPcRNS_9allocatorIS1_EEED1Ev
FNA:12,0,_ZNSt3__114__split_bufferIPcRNS_9allocatorIS1_EEED2Ev
FNA:12,182,_ZNSt3__114__split_bufferIiRNS_9allocatorIiEEED1Ev
FNA:12,182,_ZNSt3__114__split_bufferIiRNS_9allocatorIiEEED2Ev
FNA:12,0,_ZNSt3__114__split_bufferImRNS_9allocatorImEEED1Ev
FNA:12,0,_ZNSt3__114__split_bufferImRNS_9allocatorImEEED2Ev
FNL:13,499,518
FNA:13,0,_ZNSt3__114__split_bufferIPN7testing9TestSuiteERNS_9allocatorIS3_EEE9push_backB8ne180100ERKS3_
FNL:14,521,540
FNA:14,0,_ZNSt3__114__split_bufferINS_12basic_stringIcNS_11char_traitsIcEENS_9allocatorIcEEEERNS4_IS6_EEE9push_backEOS6_
FNA:14,0,_ZNSt3__114__split_bufferIPcRNS_9allocatorIS1_EEE9push_backEOS1_
FNF:15
FNH:9
DA:104,2779
DA:109,1352
DA:110,363
DA:111,363
DA:120,676
DA:128,363
DA:129,363
DA:183,676
DA:184,676
DA:185,676
DA:204,0
DA:206,0
DA:207,0
DA:208,0
DA:210,0
DA:296,0
DA:297,0
DA:298,0
DA:303,0
DA:304,0
DA:305,0
DA:306,0
DA:307,0
DA:308,0
DA:325,676
DA:326,2416
DA:327,1740
DA:328,676
DA:338,1352
DA:339,1352
DA:340,676
DA:341,0
DA:342,0
DA:343,676
DA:344,676
DA:345,676
DA:347,676
DA:348,676
DA:349,1352
DA:352,1352
DA:353,676
DA:354,676
DA:355,363
DA:356,1352
DA:499,0
DA:500,0
DA:501,0
DA:502,0
DA:503,0
DA:504,0
DA:505,0
DA:506,0
DA:507,0
DA:508,0
DA:509,0
DA:510,0
DA:511,0
DA:512,0
DA:513,0
DA:514,0
DA:515,0
DA:516,0
DA:517,0
DA:518,0
DA:521,0
DA:522,0
DA:523,0
DA:524,0
DA:525,0
DA:526,0
DA:527,0
DA:528,0
DA:529,0
DA:530,0
DA:531,0
DA:532,0
DA:533,0
DA:534,0
DA:535,0
DA:536,0
DA:537,0
DA:538,0
DA:539,0
DA:540,0
LF:84
LH:28
end_of_record
TN:
SF:/Library/Developer/CommandLineTools/SDKs/MacOSX15.1.sdk/usr/include/c++/v1/__string/char_traits.h
FNL:0,189,191
FNA:0,0,_ZNSt3__111char_traitsIcE6assignB8ne180100ERcRKc
FNL:1,204,222
FNA:1,25,_ZNSt3__111char_traitsIcE7compareB8ne180100EPKcS3_m
FNL:2,226,227
FNA:2,5904,_ZNSt3__111char_traitsIcE6lengthB8ne180100EPKc
FNL:3,231,235
FNA:3,0,_ZNSt3__111char_traitsIcE4findB8ne180100EPKcmRS2_
FNL:4,243,247
FNA:4,1300,_ZNSt3__111char_traitsIcE4copyB8ne180100EPcPKcm
FNL:5,251,253
FNA:5,650,_ZNSt3__111char_traitsIcE6assignB8ne180100EPcmc
FNL:6,265,266
FNA:6,11984,_ZNSt3__111char_traitsIcE11eq_int_typeB8ne180100Eii
FNL:7,268,268
FNA:7,13454,_ZNSt3__111char_traitsIcE3eofB8ne180100Ev
FNL:8,297,301
FNA:8,0,_ZNSt3__111char_traitsIwE7compareB8ne180100EPKwS3_m
FNL:9,303,304
FNA:9,0,_ZNSt3__111char_traitsIwE6lengthB8ne180100EPKw
FNL:10,308,312
FNA:10,0,_ZNSt3__111char_traitsIwE4findB8ne180100EPKwmRS2_
FNL:11,446,447
FNA:11,0,_ZNSt3__111char_traitsIDsE2eqB8ne180100EDsDs
FNL:12,504,508
FNA:12,0,_ZNSt3__111char_traitsIDsE6lengthB8ne180100EPKDs
FNL:13,536,537
FNA:13,0,_ZNSt3__111char_traitsIDiE2eqB8ne180100EDiDi
FNL:14,592,596
FNA:14,0,_ZNSt3__111char_traitsIDiE6lengthB8ne180100EPKDi
FNL:15,624,659
FNA:15,0,_ZNSt3__118__search_substringB8ne180100IcNS_11char_traitsIcEEEEPKT_S5_S5_S5_S5_
FNA:15,0,_ZNSt3__118__search_substringB8ne180100IwNS_11char_traitsIwEEEEPKT_S5_S5_S5_S5_
FNL:16,663,675
FNA:16,0,_ZNSt3__110__str_findB8ne180100IcmNS_11char_traitsIcEELm18446744073709551615EEET0_PKT_S3_S6_S3_S3_
FNA:16,0,_ZNSt3__110__str_findB8ne180100IwmNS_11char_traitsIwEELm18446744073709551615EEET0_PKT_S3_S6_S3_S3_
FNL:17,792,794
FNA:17,2051,_ZNSt3__116__do_string_hashB8ne180100IPKcEEmT_S3_
FNF:18
FNH:7
DA:189,0
DA:190,0
DA:191,0
DA:204,25
DA:222,25
DA:226,5904
DA:227,5904
DA:231,0
DA:232,0
DA:233,0
DA:234,0
DA:235,0
DA:243,1300
DA:246,1300
DA:247,1300
DA:251,650
DA:252,650
DA:253,650
DA:265,11984
DA:266,11984
DA:268,13454
DA:297,0
DA:298,0
DA:299,0
DA:300,0
DA:301,0
DA:303,0
DA:304,0
DA:308,0
DA:309,0
DA:310,0
DA:311,0
DA:312,0
DA:446,0
DA:447,0
DA:504,0
DA:505,0
DA:506,0
DA:507,0
DA:508,0
DA:536,0
DA:537,0
DA:592,0
DA:593,0
DA:594,0
DA:595,0
DA:596,0
DA:624,0
DA:628,0
DA:629,0
DA:630,0
DA:632,0
DA:633,0
DA:634,0
DA:637,0
DA:638,0
DA:639,0
DA:641,0
DA:642,0
DA:645,0
DA:646,0
DA:647,0
DA:654,0
DA:655,0
DA:657,0
DA:659,0
DA:663,0
DA:664,0
DA:665,0
DA:667,0
DA:668,0
DA:670,0
DA:672,0
DA:673,0
DA:674,0
DA:675,0
DA:792,2051
DA:794,2051
LF:78
LH:15
end_of_record
TN:
SF:/Library/Developer/CommandLineTools/SDKs/MacOSX15.1.sdk/usr/include/c++/v1/__string/constexpr_c_functions.h
FNL:0,116,136
FNA:0,0,_ZNSt3__118__constexpr_memchrB8ne180100IKccEEPT_S3_T0_m
FNL:1,195,214
FNA:1,0,_ZNSt3__119__constexpr_memmoveB8ne180100IN7testing8internal13edit_distance8EditTypeES4_Li0EEEPT_S6_PT0_NS_15__element_countE
FNA:1,0,_ZNSt3__119__constexpr_memmoveB8ne180100IPN7testing17TestEventListenerES3_Li0EEEPT_S5_PT0_NS_15__element_countE
FNA:1,0,_ZNSt3__119__constexpr_memmoveB8ne180100IPN7testing9TestSuiteES3_Li0EEEPT_S5_PT0_NS_15__element_countE
FNA:1,0,_ZNSt3__119__constexpr_memmoveB8ne180100IPcS1_Li0EEEPT_S3_PT0_NS_15__element_countE
FNA:1,1300,_ZNSt3__119__constexpr_memmoveB8ne180100IcKcLi0EEEPT_S3_PT0_NS_15__element_countE
FNA:1,2,_ZNSt3__119__constexpr_memmoveB8ne180100IccLi0EEEPT_S2_PT0_NS_15__element_countE
FNA:1,0,_ZNSt3__119__constexpr_memmoveB8ne180100IddLi0EEEPT_S2_PT0_NS_15__element_countE
FNL:2,38,49
FNA:2,5904,_ZNSt3__118__constexpr_strlenB8ne180100EPKc
FNF:3
FNH:2
DA:38,5904
DA:49,5904
DA:116,0
DA:134,0
DA:135,0
DA:136,0
DA:195,1302
DA:196,1302
DA:211,1302
DA:212,1302
DA:213,1302
DA:214,1302
LF:12
LH:8
end_of_record
TN:
SF:/Library/Developer/CommandLineTools/SDKs/MacOSX15.1.sdk/usr/include/c++/v1/__tree
FNL:0,1000,1000
FNA:0,0,_ZNSt3__16__treeINS_12__value_typeINS_12basic_stringIcNS_11char_traitsIcEENS_9allocatorIcEEEEN7testing8internal12CodeLocationEEENS_19__map_value_compareIS7_SB_NS_4lessIS7_EELb1EEENS5_ISB_EEE5beginB8ne180100Ev
FNA:0,26,_ZNSt3__16__treeINS_12__value_typeINS_12basic_stringIcNS_11char_traitsIcEENS_9allocatorIcEEEEN7testing8internal34TypeParameterizedTestSuiteRegistry30TypeParameterizedTestSuiteInfoEEENS_19__map_value_compareIS7_SC_NS_4lessIS7_EELb1EEENS5_ISC_EEE5beginB8ne180100Ev
FNL:1,1002,1002
FNA:1,0,_ZNSt3__16__treeINS_12__value_typeINS_12basic_stringIcNS_11char_traitsIcEENS_9allocatorIcEEEEN7testing8internal12CodeLocationEEENS_19__map_value_compareIS7_SB_NS_4lessIS7_EELb1EEENS5_ISB_EEE3endB8ne180100Ev
FNA:1,26,_ZNSt3__16__treeINS_12__value_typeINS_12basic_stringIcNS_11char_traitsIcEENS_9allocatorIcEEEEN7testing8internal34TypeParameterizedTestSuiteRegistry30TypeParameterizedTestSuiteInfoEEENS_19__map_value_compareIS7_SC_NS_4lessIS7_EELb1EEENS5_ISC_EEE3endB8ne180100Ev
FNA:1,0,_ZNSt3__16__treeINS_12__value_typeINS_12basic_stringIcNS_11char_traitsIcEENS_9allocatorIcEEEEmEENS_19__map_value_compareIS7_S8_NS_4lessIS7_EELb1EEENS5_IS8_EEE3endB8ne180100Ev
FNL:2,1003,1003
FNA:2,0,_ZNKSt3__16__treeINS_12basic_stringIcNS_11char_traitsIcEENS_9allocatorIcEEEENS_4lessIS6_EENS4_IS6_EEE3endB8ne180100Ev
FNL:3,1045,1046
FNA:3,0,_ZNSt3__16__treeINS_12__value_typeINS_12basic_stringIcNS_11char_traitsIcEENS_9allocatorIcEEEEN7testing8internal34TypeParameterizedTestSuiteRegistry30TypeParameterizedTestSuiteInfoEEENS_19__map_value_compareIS7_SC_NS_4lessIS7_EELb1EEENS5_ISC_EEE16__emplace_uniqueB8ne180100IS7_SB_Li0EEENS_4pairINS_15__tree_iteratorISC_PNS_11__tree_nodeISC_PvEElEEbEEOT_OT0_
FNL:4,1104,1105
FNA:4,0,_ZNSt3__16__treeINS_12basic_stringIcNS_11char_traitsIcEENS_9allocatorIcEEEENS_4lessIS6_EENS4_IS6_EEE15__insert_uniqueB8ne180100ERKS6_
FNL:5,111,112
FNA:5,0,_ZNSt3__120__tree_is_left_childB8ne180100IPNS_16__tree_node_baseIPvEEEEbT_
FNL:6,1112,1113
FNA:6,0,_ZNSt3__16__treeINS_12basic_stringIcNS_11char_traitsIcEENS_9allocatorIcEEEENS_4lessIS6_EENS4_IS6_EEE15__insert_uniqueB8ne180100EOS6_
FNL:7,1332,1336
FNA:7,26,_ZNSt3__16__treeINS_12__value_typeINS_12basic_stringIcNS_11char_traitsIcEENS_9allocatorIcEEEEN7testing8internal34TypeParameterizedTestSuiteRegistry30TypeParameterizedTestSuiteInfoEEENS_19__map_value_compareIS7_SC_NS_4lessIS7_EELb1EEENS5_ISC_EEEC1ERKSG_
FNA:7,26,_ZNSt3__16__treeINS_12__value_typeINS_12basic_stringIcNS_11char_traitsIcEENS_9allocatorIcEEEEN7testing8internal34TypeParameterizedTestSuiteRegistry30TypeParameterizedTestSuiteInfoEEENS_19__map_value_compareIS7_SC_NS_4lessIS7_EELb1EEENS5_ISC_EEEC2ERKSG_
FNA:7,0,_ZNSt3__16__treeINS_12__value_typeINS_12basic_stringIcNS_11char_traitsIcEENS_9allocatorIcEEEEmEENS_19__map_value_compareIS7_S8_NS_4lessIS7_EELb1EEENS5_IS8_EEEC1ERKSC_
FNA:7,0,_ZNSt3__16__treeINS_12__value_typeINS_12basic_stringIcNS_11char_traitsIcEENS_9allocatorIcEEEEmEENS_19__map_value_compareIS7_S8_NS_4lessIS7_EELb1EEENS5_IS8_EEEC2ERKSC_
FNA:7,26,_ZNSt3__16__treeINS_12basic_stringIcNS_11char_traitsIcEENS_9allocatorIcEEEENS_4lessIS6_EENS4_IS6_EEEC1ERKS8_
FNA:7,26,_ZNSt3__16__treeINS_12basic_stringIcNS_11char_traitsIcEENS_9allocatorIcEEEENS_4lessIS6_EENS4_IS6_EEEC2ERKS8_
FNL:8,1537,1540
FNA:8,0,_ZNSt3__16__treeINS_12__value_typeINS_12basic_stringIcNS_11char_traitsIcEENS_9allocatorIcEEEEN7testing8internal34TypeParameterizedTestSuiteRegistry30TypeParameterizedTestSuiteInfoEEENS_19__map_value_compareIS7_SC_NS_4lessIS7_EELb1EEENS5_ISC_EEED1Ev
FNA:8,0,_ZNSt3__16__treeINS_12__value_typeINS_12basic_stringIcNS_11char_traitsIcEENS_9allocatorIcEEEEN7testing8internal34TypeParameterizedTestSuiteRegistry30TypeParameterizedTestSuiteInfoEEENS_19__map_value_compareIS7_SC_NS_4lessIS7_EELb1EEENS5_ISC_EEED2Ev
FNA:8,0,_ZNSt3__16__treeINS_12__value_typeINS_12basic_stringIcNS_11char_traitsIcEENS_9allocatorIcEEEEmEENS_19__map_value_compareIS7_S8_NS_4lessIS7_EELb1EEENS5_IS8_EEED1Ev
FNA:8,0,_ZNSt3__16__treeINS_12__value_typeINS_12basic_stringIcNS_11char_traitsIcEENS_9allocatorIcEEEEmEENS_19__map_value_compareIS7_S8_NS_4lessIS7_EELb1EEENS5_IS8_EEED2Ev
FNA:8,0,_ZNSt3__16__treeINS_12basic_stringIcNS_11char_traitsIcEENS_9allocatorIcEEEENS_4lessIS6_EENS4_IS6_EEED1Ev
FNA:8,0,_ZNSt3__16__treeINS_12basic_stringIcNS_11char_traitsIcEENS_9allocatorIcEEEENS_4lessIS6_EENS4_IS6_EEED2Ev
FNL:9,1543,1551
FNA:9,0,_ZNSt3__16__treeINS_12__value_typeINS_12basic_stringIcNS_11char_traitsIcEENS_9allocatorIcEEEEN7testing8internal34TypeParameterizedTestSuiteRegistry30TypeParameterizedTestSuiteInfoEEENS_19__map_value_compareIS7_SC_NS_4lessIS7_EELb1EEENS5_ISC_EEE7destroyEPNS_11__tree_nodeISC_PvEE
FNA:9,0,_ZNSt3__16__treeINS_12__value_typeINS_12basic_stringIcNS_11char_traitsIcEENS_9allocatorIcEEEEmEENS_19__map_value_compareIS7_S8_NS_4lessIS7_EELb1EEENS5_IS8_EEE7destroyEPNS_11__tree_nodeIS8_PvEE
FNA:9,0,_ZNSt3__16__treeINS_12basic_stringIcNS_11char_traitsIcEENS_9allocatorIcEEEENS_4lessIS6_EENS4_IS6_EEE7destroyEPNS_11__tree_nodeIS6_PvEE
FNL:10,168,172
FNA:10,0,_ZNSt3__110__tree_minB8ne180100IPNS_16__tree_node_baseIPvEEEET_S5_
FNL:11,1682,1711
FNA:11,0,_ZNSt3__16__treeINS_12__value_typeINS_12basic_stringIcNS_11char_traitsIcEENS_9allocatorIcEEEEN7testing8internal34TypeParameterizedTestSuiteRegistry30TypeParameterizedTestSuiteInfoEEENS_19__map_value_compareIS7_SC_NS_4lessIS7_EELb1EEENS5_ISC_EEE12__find_equalIS7_EERPNS_16__tree_node_baseIPvEERPNS_15__tree_end_nodeISN_EERKT_
FNA:11,0,_ZNSt3__16__treeINS_12__value_typeINS_12basic_stringIcNS_11char_traitsIcEENS_9allocatorIcEEEEmEENS_19__map_value_compareIS7_S8_NS_4lessIS7_EELb1EEENS5_IS8_EEE12__find_equalIS7_EERPNS_16__tree_node_baseIPvEERPNS_15__tree_end_nodeISJ_EERKT_
FNA:11,0,_ZNSt3__16__treeINS_12basic_stringIcNS_11char_traitsIcEENS_9allocatorIcEEEENS_4lessIS6_EENS4_IS6_EEE12__find_equalIS6_EERPNS_16__tree_node_baseIPvEERPNS_15__tree_end_nodeISF_EERKT_
FNL:12,1764,1775
FNA:12,0,_ZNSt3__16__treeINS_12__value_typeINS_12basic_stringIcNS_11char_traitsIcEENS_9allocatorIcEEEEN7testing8internal34TypeParameterizedTestSuiteRegistry30TypeParameterizedTestSuiteInfoEEENS_19__map_value_compareIS7_SC_NS_4lessIS7_EELb1EEENS5_ISC_EEE16__insert_node_atEPNS_15__tree_end_nodeIPNS_16__tree_node_baseIPvEEEERSN_SN_
FNA:12,0,_ZNSt3__16__treeINS_12__value_typeINS_12basic_stringIcNS_11char_traitsIcEENS_9allocatorIcEEEEmEENS_19__map_value_compareIS7_S8_NS_4lessIS7_EELb1EEENS5_IS8_EEE16__insert_node_atEPNS_15__tree_end_nodeIPNS_16__tree_node_baseIPvEEEERSJ_SJ_
FNA:12,0,_ZNSt3__16__treeINS_12basic_stringIcNS_11char_traitsIcEENS_9allocatorIcEEEENS_4lessIS6_EENS4_IS6_EEE16__insert_node_atEPNS_15__tree_end_nodeIPNS_16__tree_node_baseIPvEEEERSF_SF_
FNL:13,1780,1791
FNA:13,0,_ZNSt3__16__treeINS_12__value_typeINS_12basic_stringIcNS_11char_traitsIcEENS_9allocatorIcEEEEN7testing8internal34TypeParameterizedTestSuiteRegistry30TypeParameterizedTestSuiteInfoEEENS_19__map_value_compareIS7_SC_NS_4lessIS7_EELb1EEENS5_ISC_EEE25__emplace_unique_key_argsIS7_JS7_SB_EEENS_4pairINS_15__tree_iteratorISC_PNS_11__tree_nodeISC_PvEElEEbEERKT_DpOT0_
FNA:13,0,_ZNSt3__16__treeINS_12__value_typeINS_12basic_stringIcNS_11char_traitsIcEENS_9allocatorIcEEEEmEENS_19__map_value_compareIS7_S8_NS_4lessIS7_EELb1EEENS5_IS8_EEE25__emplace_unique_key_argsIS7_JRKNS_21piecewise_construct_tENS_5tupleIJRKS7_EEENSJ_IJEEEEEENS_4pairINS_15__tree_iteratorIS8_PNS_11__tree_nodeIS8_PvEElEEbEERKT_DpOT0_
FNA:13,0,_ZNSt3__16__treeINS_12basic_stringIcNS_11char_traitsIcEENS_9allocatorIcEEEENS_4lessIS6_EENS4_IS6_EEE25__emplace_unique_key_argsIS6_JRKS6_EEENS_4pairINS_15__tree_iteratorIS6_PNS_11__tree_nodeIS6_PvEElEEbEERKT_DpOT0_
FNA:13,0,_ZNSt3__16__treeINS_12basic_stringIcNS_11char_traitsIcEENS_9allocatorIcEEEENS_4lessIS6_EENS4_IS6_EEE25__emplace_unique_key_argsIS6_JS6_EEENS_4pairINS_15__tree_iteratorIS6_PNS_11__tree_nodeIS6_PvEElEEbEERKT_DpOT0_
FNL:14,1816,1823
FNA:14,0,_ZNSt3__16__treeINS_12__value_typeINS_12basic_stringIcNS_11char_traitsIcEENS_9allocatorIcEEEEN7testing8internal34TypeParameterizedTestSuiteRegistry30TypeParameterizedTestSuiteInfoEEENS_19__map_value_compareIS7_SC_NS_4lessIS7_EELb1EEENS5_ISC_EEE16__construct_nodeIJS7_SB_EEENS_10unique_ptrINS_11__tree_nodeISC_PvEENS_22__tree_node_destructorINS5_ISN_EEEEEEDpOT_
FNA:14,0,_ZNSt3__16__treeINS_12__value_typeINS_12basic_stringIcNS_11char_traitsIcEENS_9allocatorIcEEEEmEENS_19__map_value_compareIS7_S8_NS_4lessIS7_EELb1EEENS5_IS8_EEE16__construct_nodeIJRKNS_21piecewise_construct_tENS_5tupleIJRKS7_EEENSJ_IJEEEEEENS_10unique_ptrINS_11__tree_nodeIS8_PvEENS_22__tree_node_destructorINS5_ISR_EEEEEEDpOT_
FNA:14,0,_ZNSt3__16__treeINS_12basic_stringIcNS_11char_traitsIcEENS_9allocatorIcEEEENS_4lessIS6_EENS4_IS6_EEE16__construct_nodeIJRKS6_EEENS_10unique_ptrINS_11__tree_nodeIS6_PvEENS_22__tree_node_destructorINS4_ISH_EEEEEEDpOT_
FNA:14,0,_ZNSt3__16__treeINS_12basic_stringIcNS_11char_traitsIcEENS_9allocatorIcEEEENS_4lessIS6_EENS4_IS6_EEE16__construct_nodeIJS6_EEENS_10unique_ptrINS_11__tree_nodeIS6_PvEENS_22__tree_node_destructorINS4_ISF_EEEEEEDpOT_
FNL:15,196,203
FNA:15,0,_ZNSt3__116__tree_next_iterB8ne180100IPNS_15__tree_end_nodeIPNS_16__tree_node_baseIPvEEEES5_EET_T0_
FNL:16,2087,2092
FNA:16,0,_ZNSt3__16__treeINS_12__value_typeINS_12basic_stringIcNS_11char_traitsIcEENS_9allocatorIcEEEEN7testing8internal34TypeParameterizedTestSuiteRegistry30TypeParameterizedTestSuiteInfoEEENS_19__map_value_compareIS7_SC_NS_4lessIS7_EELb1EEENS5_ISC_EEE4findIS7_EENS_15__tree_iteratorISC_PNS_11__tree_nodeISC_PvEElEERKT_
FNA:16,0,_ZNSt3__16__treeINS_12__value_typeINS_12basic_stringIcNS_11char_traitsIcEENS_9allocatorIcEEEEmEENS_19__map_value_compareIS7_S8_NS_4lessIS7_EELb1EEENS5_IS8_EEE4findIS7_EENS_15__tree_iteratorIS8_PNS_11__tree_nodeIS8_PvEElEERKT_
FNL:17,2097,2102
FNA:17,0,_ZNKSt3__16__treeINS_12basic_stringIcNS_11char_traitsIcEENS_9allocatorIcEEEENS_4lessIS6_EENS4_IS6_EEE4findIS6_EENS_21__tree_const_iteratorIS6_PNS_11__tree_nodeIS6_PvEElEERKT_
FNL:18,2107,2118
FNA:18,0,_ZNKSt3__16__treeINS_12__value_typeINS_12basic_stringIcNS_11char_traitsIcEENS_9allocatorIcEEEEN7testing8internal12CodeLocationEEENS_19__map_value_compareIS7_SB_NS_4lessIS7_EELb1EEENS5_ISB_EEE14__count_uniqueIS7_EEmRKT_
FNA:18,0,_ZNKSt3__16__treeINS_12basic_stringIcNS_11char_traitsIcEENS_9allocatorIcEEEENS_4lessIS6_EENS4_IS6_EEE14__count_uniqueIS6_EEmRKT_
FNL:19,2143,2151
FNA:19,0,_ZNSt3__16__treeINS_12__value_typeINS_12basic_stringIcNS_11char_traitsIcEENS_9allocatorIcEEEEN7testing8internal34TypeParameterizedTestSuiteRegistry30TypeParameterizedTestSuiteInfoEEENS_19__map_value_compareIS7_SC_NS_4lessIS7_EELb1EEENS5_ISC_EEE13__lower_boundIS7_EENS_15__tree_iteratorISC_PNS_11__tree_nodeISC_PvEElEERKT_SO_PNS_15__tree_end_nodeIPNS_16__tree_node_baseISM_EEEE
FNA:19,0,_ZNSt3__16__treeINS_12__value_typeINS_12basic_stringIcNS_11char_traitsIcEENS_9allocatorIcEEEEmEENS_19__map_value_compareIS7_S8_NS_4lessIS7_EELb1EEENS5_IS8_EEE13__lower_boundIS7_EENS_15__tree_iteratorIS8_PNS_11__tree_nodeIS8_PvEElEERKT_SK_PNS_15__tree_end_nodeIPNS_16__tree_node_baseISI_EEEE
FNL:20,2156,2165
FNA:20,0,_ZNKSt3__16__treeINS_12basic_stringIcNS_11char_traitsIcEENS_9allocatorIcEEEENS_4lessIS6_EENS4_IS6_EEE13__lower_boundIS6_EENS_21__tree_const_iteratorIS6_PNS_11__tree_nodeIS6_PvEElEERKT_SG_PNS_15__tree_end_nodeIPNS_16__tree_node_baseISE_EEEE
FNL:21,239,253
FNA:21,0,_ZNSt3__118__tree_left_rotateB8ne180100IPNS_16__tree_node_baseIPvEEEEvT_
FNL:22,258,272
FNA:22,0,_ZNSt3__119__tree_right_rotateB8ne180100IPNS_16__tree_node_baseIPvEEEEvT_
FNL:23,282,330
FNA:23,0,_ZNSt3__127__tree_balance_after_insertB8ne180100IPNS_16__tree_node_baseIPvEEEEvT_S5_
FNL:24,522,522
FNA:24,0,_ZNSt3__122__tree_key_value_typesINS_12basic_stringIcNS_11char_traitsIcEENS_9allocatorIcEEEEE9__get_keyB8ne180100ERKS6_
FNL:25,524,524
FNA:25,0,_ZNSt3__122__tree_key_value_typesINS_12basic_stringIcNS_11char_traitsIcEENS_9allocatorIcEEEEE9__get_ptrB8ne180100ERS6_
FNL:26,557,558
FNA:26,0,_ZNSt3__122__tree_key_value_typesINS_12__value_typeINS_12basic_stringIcNS_11char_traitsIcEENS_9allocatorIcEEEEN7testing8internal34TypeParameterizedTestSuiteRegistry30TypeParameterizedTestSuiteInfoEEEE9__get_ptrB8ne180100ERSC_
FNA:26,0,_ZNSt3__122__tree_key_value_typesINS_12__value_typeINS_12basic_stringIcNS_11char_traitsIcEENS_9allocatorIcEEEEmEEE9__get_ptrB8ne180100ERS8_
FNL:27,639,639
FNA:27,52,_ZNSt3__115__tree_end_nodeIPNS_16__tree_node_baseIPvEEEC1B8ne180100Ev
FNA:27,52,_ZNSt3__115__tree_end_nodeIPNS_16__tree_node_baseIPvEEEC2B8ne180100Ev
FNL:28,654,654
FNA:28,0,_ZNKSt3__116__tree_node_baseIPvE15__parent_unsafeB8ne180100Ev
FNL:29,656,656
FNA:29,0,_ZNSt3__116__tree_node_baseIPvE12__set_parentB8ne180100EPS2_
FNL:30,697,699
FNA:30,0,_ZNSt3__122__tree_node_destructorINS_9allocatorINS_11__tree_nodeINS_12__value_typeINS_12basic_stringIcNS_11char_traitsIcEENS1_IcEEEEN7testing8internal34TypeParameterizedTestSuiteRegistry30TypeParameterizedTestSuiteInfoEEEPvEEEEEC1B8ne180100ERSG_b
FNA:30,0,_ZNSt3__122__tree_node_destructorINS_9allocatorINS_11__tree_nodeINS_12__value_typeINS_12basic_stringIcNS_11char_traitsIcEENS1_IcEEEEN7testing8internal34TypeParameterizedTestSuiteRegistry30TypeParameterizedTestSuiteInfoEEEPvEEEEEC2B8ne180100ERSG_b
FNA:30,0,_ZNSt3__122__tree_node_destructorINS_9allocatorINS_11__tree_nodeINS_12__value_typeINS_12basic_stringIcNS_11char_traitsIcEENS1_IcEEEEmEEPvEEEEEC1B8ne180100ERSC_b
FNA:30,0,_ZNSt3__122__tree_node_destructorINS_9allocatorINS_11__tree_nodeINS_12__value_typeINS_12basic_stringIcNS_11char_traitsIcEENS1_IcEEEEmEEPvEEEEEC2B8ne180100ERSC_b
FNA:30,0,_ZNSt3__122__tree_node_destructorINS_9allocatorINS_11__tree_nodeINS_12basic_stringIcNS_11char_traitsIcEENS1_IcEEEEPvEEEEEC1B8ne180100ERSA_b
FNA:30,0,_ZNSt3__122__tree_node_destructorINS_9allocatorINS_11__tree_nodeINS_12basic_stringIcNS_11char_traitsIcEENS1_IcEEEEPvEEEEEC2B8ne180100ERSA_b
FNL:31,701,706
FNA:31,0,_ZNSt3__122__tree_node_destructorINS_9allocatorINS_11__tree_nodeINS_12__value_typeINS_12basic_stringIcNS_11char_traitsIcEENS1_IcEEEEN7testing8internal34TypeParameterizedTestSuiteRegistry30TypeParameterizedTestSuiteInfoEEEPvEEEEEclB8ne180100EPSF_
FNA:31,0,_ZNSt3__122__tree_node_destructorINS_9allocatorINS_11__tree_nodeINS_12__value_typeINS_12basic_stringIcNS_11char_traitsIcEENS1_IcEEEEmEEPvEEEEEclB8ne180100EPSB_
FNA:31,0,_ZNSt3__122__tree_node_destructorINS_9allocatorINS_11__tree_nodeINS_12basic_stringIcNS_11char_traitsIcEENS1_IcEEEEPvEEEEEclB8ne180100EPS9_
FNL:32,746,746
FNA:32,0,_ZNKSt3__115__tree_iteratorINS_12__value_typeINS_12basic_stringIcNS_11char_traitsIcEENS_9allocatorIcEEEEN7testing8internal34TypeParameterizedTestSuiteRegistry30TypeParameterizedTestSuiteInfoEEEPNS_11__tree_nodeISC_PvEElEdeB8ne180100Ev
FNA:32,0,_ZNKSt3__115__tree_iteratorINS_12__value_typeINS_12basic_stringIcNS_11char_traitsIcEENS_9allocatorIcEEEEmEEPNS_11__tree_nodeIS8_PvEElEdeB8ne180100Ev
FNL:33,747,747
FNA:33,0,_ZNKSt3__115__tree_iteratorINS_12__value_typeINS_12basic_stringIcNS_11char_traitsIcEENS_9allocatorIcEEEEN7testing8internal34TypeParameterizedTestSuiteRegistry30TypeParameterizedTestSuiteInfoEEEPNS_11__tree_nodeISC_PvEElEptB8ne180100Ev
FNA:33,0,_ZNKSt3__115__tree_iteratorINS_12__value_typeINS_12basic_stringIcNS_11char_traitsIcEENS_9allocatorIcEEEEmEEPNS_11__tree_nodeIS8_PvEElEptB8ne180100Ev
FNL:34,749,752
FNA:34,0,_ZNSt3__115__tree_iteratorINS_12__value_typeINS_12basic_stringIcNS_11char_traitsIcEENS_9allocatorIcEEEEN7testing8internal34TypeParameterizedTestSuiteRegistry30TypeParameterizedTestSuiteInfoEEEPNS_11__tree_nodeISC_PvEElEppB8ne180100Ev
FNL:35,771,772
FNA:35,26,_ZNSt3__1eqB8ne180100ERKNS_15__tree_iteratorINS_12__value_typeINS_12basic_stringIcNS_11char_traitsIcEENS_9allocatorIcEEEEN7testing8internal34TypeParameterizedTestSuiteRegistry30TypeParameterizedTestSuiteInfoEEEPNS_11__tree_nodeISC_PvEElEESJ_
FNA:35,0,_ZNSt3__1eqB8ne180100ERKNS_15__tree_iteratorINS_12__value_typeINS_12basic_stringIcNS_11char_traitsIcEENS_9allocatorIcEEEEmEEPNS_11__tree_nodeIS8_PvEElEESF_
FNL:36,774,775
FNA:36,26,_ZNSt3__1neB8ne180100ERKNS_15__tree_iteratorINS_12__value_typeINS_12basic_stringIcNS_11char_traitsIcEENS_9allocatorIcEEEEN7testing8internal34TypeParameterizedTestSuiteRegistry30TypeParameterizedTestSuiteInfoEEEPNS_11__tree_nodeISC_PvEElEESJ_
FNA:36,0,_ZNSt3__1neB8ne180100ERKNS_15__tree_iteratorINS_12__value_typeINS_12basic_stringIcNS_11char_traitsIcEENS_9allocatorIcEEEEmEEPNS_11__tree_nodeIS8_PvEElEESF_
FNL:37,779,779
FNA:37,0,_ZNSt3__115__tree_iteratorINS_12__value_typeINS_12basic_stringIcNS_11char_traitsIcEENS_9allocatorIcEEEEN7testing8internal34TypeParameterizedTestSuiteRegistry30TypeParameterizedTestSuiteInfoEEEPNS_11__tree_nodeISC_PvEElEC1B8ne180100ESG_
FNA:37,0,_ZNSt3__115__tree_iteratorINS_12__value_typeINS_12basic_stringIcNS_11char_traitsIcEENS_9allocatorIcEEEEN7testing8internal34TypeParameterizedTestSuiteRegistry30TypeParameterizedTestSuiteInfoEEEPNS_11__tree_nodeISC_PvEElEC2B8ne180100ESG_
FNA:37,0,_ZNSt3__115__tree_iteratorINS_12__value_typeINS_12basic_stringIcNS_11char_traitsIcEENS_9allocatorIcEEEEmEEPNS_11__tree_nodeIS8_PvEElEC1B8ne180100ESC_
FNA:37,0,_ZNSt3__115__tree_iteratorINS_12__value_typeINS_12basic_stringIcNS_11char_traitsIcEENS_9allocatorIcEEEEmEEPNS_11__tree_nodeIS8_PvEElEC2B8ne180100ESC_
FNA:37,0,_ZNSt3__115__tree_iteratorINS_12basic_stringIcNS_11char_traitsIcEENS_9allocatorIcEEEEPNS_11__tree_nodeIS6_PvEElEC1B8ne180100ESA_
FNA:37,0,_ZNSt3__115__tree_iteratorINS_12basic_stringIcNS_11char_traitsIcEENS_9allocatorIcEEEEPNS_11__tree_nodeIS6_PvEElEC2B8ne180100ESA_
FNL:38,780,780
FNA:38,0,_ZNSt3__115__tree_iteratorINS_12__value_typeINS_12basic_stringIcNS_11char_traitsIcEENS_9allocatorIcEEEEN7testing8internal12CodeLocationEEEPNS_11__tree_nodeISB_PvEElEC1B8ne180100EPNS_15__tree_end_nodeIPNS_16__tree_node_baseISD_EEEE
FNA:38,0,_ZNSt3__115__tree_iteratorINS_12__value_typeINS_12basic_stringIcNS_11char_traitsIcEENS_9allocatorIcEEEEN7testing8internal12CodeLocationEEEPNS_11__tree_nodeISB_PvEElEC2B8ne180100EPNS_15__tree_end_nodeIPNS_16__tree_node_baseISD_EEEE
FNA:38,52,_ZNSt3__115__tree_iteratorINS_12__value_typeINS_12basic_stringIcNS_11char_traitsIcEENS_9allocatorIcEEEEN7testing8internal34TypeParameterizedTestSuiteRegistry30TypeParameterizedTestSuiteInfoEEEPNS_11__tree_nodeISC_PvEElEC1B8ne180100EPNS_15__tree_end_nodeIPNS_16__tree_node_baseISE_EEEE
FNA:38,52,_ZNSt3__115__tree_iteratorINS_12__value_typeINS_12basic_stringIcNS_11char_traitsIcEENS_9allocatorIcEEEEN7testing8internal34TypeParameterizedTestSuiteRegistry30TypeParameterizedTestSuiteInfoEEEPNS_11__tree_nodeISC_PvEElEC2B8ne180100EPNS_15__tree_end_nodeIPNS_16__tree_node_baseISE_EEEE
FNA:38,0,_ZNSt3__115__tree_iteratorINS_12__value_typeINS_12basic_stringIcNS_11char_traitsIcEENS_9allocatorIcEEEEmEEPNS_11__tree_nodeIS8_PvEElEC1B8ne180100EPNS_15__tree_end_nodeIPNS_16__tree_node_baseISA_EEEE
FNA:38,0,_ZNSt3__115__tree_iteratorINS_12__value_typeINS_12basic_stringIcNS_11char_traitsIcEENS_9allocatorIcEEEEmEEPNS_11__tree_nodeIS8_PvEElEC2B8ne180100EPNS_15__tree_end_nodeIPNS_16__tree_node_baseISA_EEEE
FNL:39,781,781
FNA:39,0,_ZNKSt3__115__tree_iteratorINS_12__value_typeINS_12basic_stringIcNS_11char_traitsIcEENS_9allocatorIcEEEEN7testing8internal34TypeParameterizedTestSuiteRegistry30TypeParameterizedTestSuiteInfoEEEPNS_11__tree_nodeISC_PvEElE8__get_npB8ne180100Ev
FNA:39,0,_ZNKSt3__115__tree_iteratorINS_12__value_typeINS_12basic_stringIcNS_11char_traitsIcEENS_9allocatorIcEEEEmEEPNS_11__tree_nodeIS8_PvEElE8__get_npB8ne180100Ev
FNL:40,827,827
FNA:40,0,_ZNSt3__121__tree_const_iteratorINS_12__value_typeINS_12basic_stringIcNS_11char_traitsIcEENS_9allocatorIcEEEEN7testing8internal12CodeLocationEEEPNS_11__tree_nodeISB_PvEElEC1B8ne180100ENS_15__tree_iteratorISB_SF_lEE
FNA:40,0,_ZNSt3__121__tree_const_iteratorINS_12__value_typeINS_12basic_stringIcNS_11char_traitsIcEENS_9allocatorIcEEEEN7testing8internal12CodeLocationEEEPNS_11__tree_nodeISB_PvEElEC2B8ne180100ENS_15__tree_iteratorISB_SF_lEE
FNA:40,0,_ZNSt3__121__tree_const_iteratorINS_12basic_stringIcNS_11char_traitsIcEENS_9allocatorIcEEEEPNS_11__tree_nodeIS6_PvEElEC1B8ne180100ENS_15__tree_iteratorIS6_SA_lEE
FNA:40,0,_ZNSt3__121__tree_const_iteratorINS_12basic_stringIcNS_11char_traitsIcEENS_9allocatorIcEEEEPNS_11__tree_nodeIS6_PvEElEC2B8ne180100ENS_15__tree_iteratorIS6_SA_lEE
FNL:41,829,829
FNA:41,0,_ZNKSt3__121__tree_const_iteratorINS_12basic_stringIcNS_11char_traitsIcEENS_9allocatorIcEEEEPNS_11__tree_nodeIS6_PvEElEdeB8ne180100Ev
FNL:42,830,830
FNA:42,0,_ZNKSt3__121__tree_const_iteratorINS_12__value_typeINS_12basic_stringIcNS_11char_traitsIcEENS_9allocatorIcEEEEN7testing8internal12CodeLocationEEEPNS_11__tree_nodeISB_PvEElEptB8ne180100Ev
FNL:43,832,835
FNA:43,0,_ZNSt3__121__tree_const_iteratorINS_12__value_typeINS_12basic_stringIcNS_11char_traitsIcEENS_9allocatorIcEEEEN7testing8internal12CodeLocationEEEPNS_11__tree_nodeISB_PvEElEppB8ne180100Ev
FNL:44,856,857
FNA:44,0,_ZNSt3__1eqB8ne180100ERKNS_21__tree_const_iteratorINS_12__value_typeINS_12basic_stringIcNS_11char_traitsIcEENS_9allocatorIcEEEEN7testing8internal12CodeLocationEEEPNS_11__tree_nodeISB_PvEElEESI_
FNA:44,0,_ZNSt3__1eqB8ne180100ERKNS_21__tree_const_iteratorINS_12basic_stringIcNS_11char_traitsIcEENS_9allocatorIcEEEEPNS_11__tree_nodeIS6_PvEElEESD_
FNL:45,859,860
FNA:45,0,_ZNSt3__1neB8ne180100ERKNS_21__tree_const_iteratorINS_12__value_typeINS_12basic_stringIcNS_11char_traitsIcEENS_9allocatorIcEEEEN7testing8internal12CodeLocationEEEPNS_11__tree_nodeISB_PvEElEESI_
FNA:45,0,_ZNSt3__1neB8ne180100ERKNS_21__tree_const_iteratorINS_12basic_stringIcNS_11char_traitsIcEENS_9allocatorIcEEEEPNS_11__tree_nodeIS6_PvEElEESD_
FNL:46,865,865
FNA:46,0,_ZNSt3__121__tree_const_iteratorINS_12basic_stringIcNS_11char_traitsIcEENS_9allocatorIcEEEEPNS_11__tree_nodeIS6_PvEElEC1B8ne180100EPNS_15__tree_end_nodeIPNS_16__tree_node_baseIS8_EEEE
FNA:46,0,_ZNSt3__121__tree_const_iteratorINS_12basic_stringIcNS_11char_traitsIcEENS_9allocatorIcEEEEPNS_11__tree_nodeIS6_PvEElEC2B8ne180100EPNS_15__tree_end_nodeIPNS_16__tree_node_baseIS8_EEEE
FNL:47,866,866
FNA:47,0,_ZNKSt3__121__tree_const_iteratorINS_12__value_typeINS_12basic_stringIcNS_11char_traitsIcEENS_9allocatorIcEEEEN7testing8internal12CodeLocationEEEPNS_11__tree_nodeISB_PvEElE8__get_npB8ne180100Ev
FNA:47,0,_ZNKSt3__121__tree_const_iteratorINS_12basic_stringIcNS_11char_traitsIcEENS_9allocatorIcEEEEPNS_11__tree_nodeIS6_PvEElE8__get_npB8ne180100Ev
FNL:48,945,946
FNA:48,0,_ZNSt3__16__treeINS_12__value_typeINS_12basic_stringIcNS_11char_traitsIcEENS_9allocatorIcEEEEN7testing8internal12CodeLocationEEENS_19__map_value_compareIS7_SB_NS_4lessIS7_EELb1EEENS5_ISB_EEE10__end_nodeB8ne180100Ev
FNA:48,52,_ZNSt3__16__treeINS_12__value_typeINS_12basic_stringIcNS_11char_traitsIcEENS_9allocatorIcEEEEN7testing8internal34TypeParameterizedTestSuiteRegistry30TypeParameterizedTestSuiteInfoEEENS_19__map_value_compareIS7_SC_NS_4lessIS7_EELb1EEENS5_ISC_EEE10__end_nodeB8ne180100Ev
FNA:48,0,_ZNSt3__16__treeINS_12__value_typeINS_12basic_stringIcNS_11char_traitsIcEENS_9allocatorIcEEEEmEENS_19__map_value_compareIS7_S8_NS_4lessIS7_EELb1EEENS5_IS8_EEE10__end_nodeB8ne180100Ev
FNA:48,26,_ZNSt3__16__treeINS_12basic_stringIcNS_11char_traitsIcEENS_9allocatorIcEEEENS_4lessIS6_EENS4_IS6_EEE10__end_nodeB8ne180100Ev
FNL:49,948,950
FNA:49,0,_ZNKSt3__16__treeINS_12__value_typeINS_12basic_stringIcNS_11char_traitsIcEENS_9allocatorIcEEEEN7testing8internal12CodeLocationEEENS_19__map_value_compareIS7_SB_NS_4lessIS7_EELb1EEENS5_ISB_EEE10__end_nodeB8ne180100Ev
FNA:49,0,_ZNKSt3__16__treeINS_12__value_typeINS_12basic_stringIcNS_11char_traitsIcEENS_9allocatorIcEEEEN7testing8internal34TypeParameterizedTestSuiteRegistry30TypeParameterizedTestSuiteInfoEEENS_19__map_value_compareIS7_SC_NS_4lessIS7_EELb1EEENS5_ISC_EEE10__end_nodeB8ne180100Ev
FNA:49,0,_ZNKSt3__16__treeINS_12__value_typeINS_12basic_stringIcNS_11char_traitsIcEENS_9allocatorIcEEEEmEENS_19__map_value_compareIS7_S8_NS_4lessIS7_EELb1EEENS5_IS8_EEE10__end_nodeB8ne180100Ev
FNA:49,0,_ZNKSt3__16__treeINS_12basic_stringIcNS_11char_traitsIcEENS_9allocatorIcEEEENS_4lessIS6_EENS4_IS6_EEE10__end_nodeB8ne180100Ev
FNL:50,952,952
FNA:50,0,_ZNSt3__16__treeINS_12__value_typeINS_12basic_stringIcNS_11char_traitsIcEENS_9allocatorIcEEEEN7testing8internal34TypeParameterizedTestSuiteRegistry30TypeParameterizedTestSuiteInfoEEENS_19__map_value_compareIS7_SC_NS_4lessIS7_EELb1EEENS5_ISC_EEE12__node_allocB8ne180100Ev
FNA:50,0,_ZNSt3__16__treeINS_12__value_typeINS_12basic_stringIcNS_11char_traitsIcEENS_9allocatorIcEEEEmEENS_19__map_value_compareIS7_S8_NS_4lessIS7_EELb1EEENS5_IS8_EEE12__node_allocB8ne180100Ev
FNA:50,0,_ZNSt3__16__treeINS_12basic_stringIcNS_11char_traitsIcEENS_9allocatorIcEEEENS_4lessIS6_EENS4_IS6_EEE12__node_allocB8ne180100Ev
FNL:51,956,956
FNA:51,0,_ZNSt3__16__treeINS_12__value_typeINS_12basic_stringIcNS_11char_traitsIcEENS_9allocatorIcEEEEN7testing8internal12CodeLocationEEENS_19__map_value_compareIS7_SB_NS_4lessIS7_EELb1EEENS5_ISB_EEE12__begin_nodeB8ne180100Ev
FNA:51,52,_ZNSt3__16__treeINS_12__value_typeINS_12basic_stringIcNS_11char_traitsIcEENS_9allocatorIcEEEEN7testing8internal34TypeParameterizedTestSuiteRegistry30TypeParameterizedTestSuiteInfoEEENS_19__map_value_compareIS7_SC_NS_4lessIS7_EELb1EEENS5_ISC_EEE12__begin_nodeB8ne180100Ev
FNA:51,0,_ZNSt3__16__treeINS_12__value_typeINS_12basic_stringIcNS_11char_traitsIcEENS_9allocatorIcEEEEmEENS_19__map_value_compareIS7_S8_NS_4lessIS7_EELb1EEENS5_IS8_EEE12__begin_nodeB8ne180100Ev
FNA:51,26,_ZNSt3__16__treeINS_12basic_stringIcNS_11char_traitsIcEENS_9allocatorIcEEEENS_4lessIS6_EENS4_IS6_EEE12__begin_nodeB8ne180100Ev
FNL:52,963,963
FNA:52,0,_ZNSt3__16__treeINS_12__value_typeINS_12basic_stringIcNS_11char_traitsIcEENS_9allocatorIcEEEEN7testing8internal34TypeParameterizedTestSuiteRegistry30TypeParameterizedTestSuiteInfoEEENS_19__map_value_compareIS7_SC_NS_4lessIS7_EELb1EEENS5_ISC_EEE4sizeB8ne180100Ev
FNA:52,0,_ZNSt3__16__treeINS_12__value_typeINS_12basic_stringIcNS_11char_traitsIcEENS_9allocatorIcEEEEmEENS_19__map_value_compareIS7_S8_NS_4lessIS7_EELb1EEENS5_IS8_EEE4sizeB8ne180100Ev
FNA:52,0,_ZNSt3__16__treeINS_12basic_stringIcNS_11char_traitsIcEENS_9allocatorIcEEEENS_4lessIS6_EENS4_IS6_EEE4sizeB8ne180100Ev
FNL:53,966,966
FNA:53,0,_ZNKSt3__16__treeINS_12__value_typeINS_12basic_stringIcNS_11char_traitsIcEENS_9allocatorIcEEEEmEENS_19__map_value_compareIS7_S8_NS_4lessIS7_EELb1EEENS5_IS8_EEE4sizeB8ne180100Ev
FNL:54,967,967
FNA:54,0,_ZNSt3__16__treeINS_12__value_typeINS_12basic_stringIcNS_11char_traitsIcEENS_9allocatorIcEEEEN7testing8internal34TypeParameterizedTestSuiteRegistry30TypeParameterizedTestSuiteInfoEEENS_19__map_value_compareIS7_SC_NS_4lessIS7_EELb1EEENS5_ISC_EEE10value_compB8ne180100Ev
FNA:54,0,_ZNSt3__16__treeINS_12__value_typeINS_12basic_stringIcNS_11char_traitsIcEENS_9allocatorIcEEEEmEENS_19__map_value_compareIS7_S8_NS_4lessIS7_EELb1EEENS5_IS8_EEE10value_compB8ne180100Ev
FNA:54,0,_ZNSt3__16__treeINS_12basic_stringIcNS_11char_traitsIcEENS_9allocatorIcEEEENS_4lessIS6_EENS4_IS6_EEE10value_compB8ne180100Ev
FNL:55,968,968
FNA:55,0,_ZNKSt3__16__treeINS_12__value_typeINS_12basic_stringIcNS_11char_traitsIcEENS_9allocatorIcEEEEN7testing8internal12CodeLocationEEENS_19__map_value_compareIS7_SB_NS_4lessIS7_EELb1EEENS5_ISB_EEE10value_compB8ne180100Ev
FNA:55,0,_ZNKSt3__16__treeINS_12basic_stringIcNS_11char_traitsIcEENS_9allocatorIcEEEENS_4lessIS6_EENS4_IS6_EEE10value_compB8ne180100Ev
FNL:56,971,972
FNA:56,0,_ZNKSt3__16__treeINS_12__value_typeINS_12basic_stringIcNS_11char_traitsIcEENS_9allocatorIcEEEEN7testing8internal12CodeLocationEEENS_19__map_value_compareIS7_SB_NS_4lessIS7_EELb1EEENS5_ISB_EEE6__rootB8ne180100Ev
FNA:56,0,_ZNKSt3__16__treeINS_12__value_typeINS_12basic_stringIcNS_11char_traitsIcEENS_9allocatorIcEEEEN7testing8internal34TypeParameterizedTestSuiteRegistry30TypeParameterizedTestSuiteInfoEEENS_19__map_value_compareIS7_SC_NS_4lessIS7_EELb1EEENS5_ISC_EEE6__rootB8ne180100Ev
FNA:56,0,_ZNKSt3__16__treeINS_12__value_typeINS_12basic_stringIcNS_11char_traitsIcEENS_9allocatorIcEEEEmEENS_19__map_value_compareIS7_S8_NS_4lessIS7_EELb1EEENS5_IS8_EEE6__rootB8ne180100Ev
FNA:56,0,_ZNKSt3__16__treeINS_12basic_stringIcNS_11char_traitsIcEENS_9allocatorIcEEEENS_4lessIS6_EENS4_IS6_EEE6__rootB8ne180100Ev
FNL:57,975,982
FNA:57,0,_ZNKSt3__16__treeINS_12__value_typeINS_12basic_stringIcNS_11char_traitsIcEENS_9allocatorIcEEEEN7testing8internal34TypeParameterizedTestSuiteRegistry30TypeParameterizedTestSuiteInfoEEENS_19__map_value_compareIS7_SC_NS_4lessIS7_EELb1EEENS5_ISC_EEE10__root_ptrB8ne180100Ev
FNA:57,0,_ZNKSt3__16__treeINS_12__value_typeINS_12basic_stringIcNS_11char_traitsIcEENS_9allocatorIcEEEEmEENS_19__map_value_compareIS7_S8_NS_4lessIS7_EELb1EEENS5_IS8_EEE10__root_ptrB8ne180100Ev
FNA:57,0,_ZNKSt3__16__treeINS_12basic_stringIcNS_11char_traitsIcEENS_9allocatorIcEEEENS_4lessIS6_EENS4_IS6_EEE10__root_ptrB8ne180100Ev
FNF:58
FNH:9
DA:111,0
DA:112,0
DA:168,0
DA:170,0
DA:171,0
DA:172,0
DA:196,0
DA:198,0
DA:199,0
DA:200,0
DA:201,0
DA:202,0
DA:203,0
DA:239,0
DA:242,0
DA:243,0
DA:244,0
DA:245,0
DA:246,0
DA:247,0
DA:248,0
DA:250,0
DA:251,0
DA:252,0
DA:253,0
DA:258,0
DA:261,0
DA:262,0
DA:263,0
DA:264,0
DA:265,0
DA:266,0
DA:267,0
DA:269,0
DA:270,0
DA:271,0
DA:272,0
DA:282,0
DA:285,0
DA:286,0
DA:288,0
DA:289,0
DA:290,0
DA:291,0
DA:292,0
DA:293,0
DA:294,0
DA:295,0
DA:296,0
DA:297,0
DA:298,0
DA:299,0
DA:300,0
DA:301,0
DA:302,0
DA:303,0
DA:304,0
DA:305,0
DA:306,0
DA:308,0
DA:309,0
DA:310,0
DA:311,0
DA:312,0
DA:313,0
DA:314,0
DA:315,0
DA:316,0
DA:317,0
DA:318,0
DA:319,0
DA:320,0
DA:321,0
DA:322,0
DA:323,0
DA:324,0
DA:325,0
DA:326,0
DA:330,0
DA:522,0
DA:524,0
DA:557,0
DA:558,0
DA:639,104
DA:654,0
DA:656,0
DA:697,0
DA:698,0
DA:699,0
DA:701,0
DA:702,0
DA:703,0
DA:704,0
DA:705,0
DA:706,0
DA:746,0
DA:747,0
DA:749,0
DA:750,0
DA:751,0
DA:752,0
DA:771,26
DA:772,26
DA:774,26
DA:775,26
DA:779,0
DA:780,104
DA:781,0
DA:827,0
DA:829,0
DA:830,0
DA:832,0
DA:833,0
DA:834,0
DA:835,0
DA:856,0
DA:857,0
DA:859,0
DA:860,0
DA:865,0
DA:866,0
DA:945,78
DA:946,78
DA:948,0
DA:949,0
DA:950,0
DA:952,0
DA:956,78
DA:963,0
DA:966,0
DA:967,0
DA:968,0
DA:971,0
DA:972,0
DA:975,0
DA:976,0
DA:982,52
DA:1000,26
DA:1002,26
DA:1003,0
DA:1045,0
DA:1046,0
DA:1104,0
DA:1105,0
DA:1112,0
DA:1113,0
DA:1332,104
DA:1334,104
DA:1335,52
DA:1336,104
DA:1537,0
DA:1539,0
DA:1540,0
DA:1543,0
DA:1544,0
DA:1545,0
DA:1546,0
DA:1547,0
DA:1548,0
DA:1549,0
DA:1550,0
DA:1551,0
DA:1682,0
DA:1683,0
DA:1684,0
DA:1685,0
DA:1686,0
DA:1687,0
DA:1688,0
DA:1689,0
DA:1690,0
DA:1691,0
DA:1692,0
DA:1693,0
DA:1695,0
DA:1696,0
DA:1697,0
DA:1698,0
DA:1699,0
DA:1700,0
DA:1701,0
DA:1703,0
DA:1704,0
DA:1705,0
DA:1709,0
DA:1710,0
DA:1711,0
DA:1764,0
DA:1766,0
DA:1767,0
DA:1768,0
DA:1770,0
DA:1771,0
DA:1772,0
DA:1773,0
DA:1774,0
DA:1775,0
DA:1780,0
DA:1782,0
DA:1783,0
DA:1784,0
DA:1785,0
DA:1786,0
DA:1787,0
DA:1788,0
DA:1789,0
DA:1790,0
DA:1791,0
DA:1816,0
DA:1818,0
DA:1819,0
DA:1820,0
DA:1821,0
DA:1822,0
DA:1823,0
DA:2087,0
DA:2088,0
DA:2089,0
DA:2090,0
DA:2091,0
DA:2092,0
DA:2097,0
DA:2098,0
DA:2099,0
DA:2100,0
DA:2101,0
DA:2102,0
DA:2107,0
DA:2108,0
DA:2109,0
DA:2110,0
DA:2111,0
DA:2112,0
DA:2113,0
DA:2115,0
DA:2117,0
DA:2118,0
DA:2143,0
DA:2144,0
DA:2145,0
DA:2146,0
DA:2147,0
DA:2148,0
DA:2149,0
DA:2151,0
DA:2156,0
DA:2158,0
DA:2159,0
DA:2160,0
DA:2161,0
DA:2162,0
DA:2163,0
DA:2165,0
LF:253
LH:16
end_of_record
TN:
SF:/Library/Developer/CommandLineTools/SDKs/MacOSX15.1.sdk/usr/include/c++/v1/__type_traits/invoke.h
FNL:0,342,344
FNA:0,0,_ZNSt3__18__invokeB8ne180100IRNS_10__identityEJRKNS_12basic_stringIcNS_11char_traitsIcEENS_9allocatorIcEEEEEEEDTclclsr3stdE7declvalIT_EEspclsr3stdE7declvalIT0_EEEEOSB_DpOSC_
FNF:1
FNH:0
DA:342,0
DA:344,0
LF:2
LH:0
end_of_record
TN:
SF:/Library/Developer/CommandLineTools/SDKs/MacOSX15.1.sdk/usr/include/c++/v1/__utility/convert_to_integral.h
FNL:0,28,28
FNA:0,192,_ZNSt3__121__convert_to_integralB8ne180100El
FNL:1,30,31
FNA:1,650,_ZNSt3__121__convert_to_integralB8ne180100Em
FNF:2
FNH:2
DA:28,192
DA:30,650
DA:31,650
LF:3
LH:3
end_of_record
TN:
SF:/Library/Developer/CommandLineTools/SDKs/MacOSX15.1.sdk/usr/include/c++/v1/__utility/exception_guard.h
FNL:0,136,137
FNA:0,0,_ZNSt3__122__make_exception_guardB8ne180100INS_29_AllocatorDestroyRangeReverseINS_9allocatorIN7testing12TestPropertyEEENS_16reverse_iteratorIPS4_EEEEEENS_28__exception_guard_exceptionsIT_EESB_
FNA:0,0,_ZNSt3__122__make_exception_guardB8ne180100INS_29_AllocatorDestroyRangeReverseINS_9allocatorIN7testing14TestPartResultEEENS_16reverse_iteratorIPS4_EEEEEENS_28__exception_guard_exceptionsIT_EESB_
FNA:0,0,_ZNSt3__122__make_exception_guardB8ne180100INS_29_AllocatorDestroyRangeReverseINS_9allocatorIN7testing8internal9TraceInfoEEENS_16reverse_iteratorIPS5_EEEEEENS_28__exception_guard_exceptionsIT_EESC_
FNA:0,286,_ZNSt3__122__make_exception_guardB8ne180100INS_29_AllocatorDestroyRangeReverseINS_9allocatorINS_12basic_stringIcNS_11char_traitsIcEENS2_IcEEEEEENS_16reverse_iteratorIPS7_EEEEEENS_28__exception_guard_exceptionsIT_EESE_
FNA:0,26,_ZNSt3__122__make_exception_guardB8ne180100INS_29_AllocatorDestroyRangeReverseINS_9allocatorINS_12basic_stringIcNS_11char_traitsIcEENS2_IcEEEEEEPS7_EEEENS_28__exception_guard_exceptionsIT_EESC_
FNA:0,0,_ZNSt3__122__make_exception_guardB8ne180100INS_6vectorIN7testing8internal13edit_distance8EditTypeENS_9allocatorIS5_EEE16__destroy_vectorEEENS_28__exception_guard_exceptionsIT_EESB_
FNA:0,0,_ZNSt3__122__make_exception_guardB8ne180100INS_6vectorINS1_IN7testing8internal13edit_distance8EditTypeENS_9allocatorIS5_EEEENS6_IS8_EEE16__destroy_vectorEEENS_28__exception_guard_exceptionsIT_EESD_
FNA:0,0,_ZNSt3__122__make_exception_guardB8ne180100INS_6vectorINS1_IdNS_9allocatorIdEEEENS2_IS4_EEE16__destroy_vectorEEENS_28__exception_guard_exceptionsIT_EES9_
FNA:0,52,_ZNSt3__122__make_exception_guardB8ne180100INS_6vectorINS_12basic_stringIcNS_11char_traitsIcEENS_9allocatorIcEEEENS5_IS7_EEE16__destroy_vectorEEENS_28__exception_guard_exceptionsIT_EESC_
FNA:0,0,_ZNSt3__122__make_exception_guardB8ne180100INS_6vectorIdNS_9allocatorIdEEE16__destroy_vectorEEENS_28__exception_guard_exceptionsIT_EES7_
FNL:1,68,69
FNA:1,0,_ZNSt3__128__exception_guard_exceptionsINS_29_AllocatorDestroyRangeReverseINS_9allocatorIN7testing12TestPropertyEEENS_16reverse_iteratorIPS4_EEEEEC1B8ne180100ES9_
FNA:1,0,_ZNSt3__128__exception_guard_exceptionsINS_29_AllocatorDestroyRangeReverseINS_9allocatorIN7testing12TestPropertyEEENS_16reverse_iteratorIPS4_EEEEEC2B8ne180100ES9_
FNA:1,0,_ZNSt3__128__exception_guard_exceptionsINS_29_AllocatorDestroyRangeReverseINS_9allocatorIN7testing14TestPartResultEEENS_16reverse_iteratorIPS4_EEEEEC1B8ne180100ES9_
FNA:1,0,_ZNSt3__128__exception_guard_exceptionsINS_29_AllocatorDestroyRangeReverseINS_9allocatorIN7testing14TestPartResultEEENS_16reverse_iteratorIPS4_EEEEEC2B8ne180100ES9_
FNA:1,0,_ZNSt3__128__exception_guard_exceptionsINS_29_AllocatorDestroyRangeReverseINS_9allocatorIN7testing8internal9TraceInfoEEENS_16reverse_iteratorIPS5_EEEEEC1B8ne180100ESA_
FNA:1,0,_ZNSt3__128__exception_guard_exceptionsINS_29_AllocatorDestroyRangeReverseINS_9allocatorIN7testing8internal9TraceInfoEEENS_16reverse_iteratorIPS5_EEEEEC2B8ne180100ESA_
FNA:1,286,_ZNSt3__128__exception_guard_exceptionsINS_29_AllocatorDestroyRangeReverseINS_9allocatorINS_12basic_stringIcNS_11char_traitsIcEENS2_IcEEEEEENS_16reverse_iteratorIPS7_EEEEEC1B8ne180100ESC_
FNA:1,286,_ZNSt3__128__exception_guard_exceptionsINS_29_AllocatorDestroyRangeReverseINS_9allocatorINS_12basic_stringIcNS_11char_traitsIcEENS2_IcEEEEEENS_16reverse_iteratorIPS7_EEEEEC2B8ne180100ESC_
FNA:1,26,_ZNSt3__128__exception_guard_exceptionsINS_29_AllocatorDestroyRangeReverseINS_9allocatorINS_12basic_stringIcNS_11char_traitsIcEENS2_IcEEEEEEPS7_EEEC1B8ne180100ESA_
FNA:1,26,_ZNSt3__128__exception_guard_exceptionsINS_29_AllocatorDestroyRangeReverseINS_9allocatorINS_12basic_stringIcNS_11char_traitsIcEENS2_IcEEEEEEPS7_EEEC2B8ne180100ESA_
FNA:1,0,_ZNSt3__128__exception_guard_exceptionsINS_6vectorIN7testing8internal13edit_distance8EditTypeENS_9allocatorIS5_EEE16__destroy_vectorEEC1B8ne180100ES9_
FNA:1,0,_ZNSt3__128__exception_guard_exceptionsINS_6vectorIN7testing8internal13edit_distance8EditTypeENS_9allocatorIS5_EEE16__destroy_vectorEEC2B8ne180100ES9_
FNA:1,0,_ZNSt3__128__exception_guard_exceptionsINS_6vectorINS1_IN7testing8internal13edit_distance8EditTypeENS_9allocatorIS5_EEEENS6_IS8_EEE16__destroy_vectorEEC1B8ne180100ESB_
FNA:1,0,_ZNSt3__128__exception_guard_exceptionsINS_6vectorINS1_IN7testing8internal13edit_distance8EditTypeENS_9allocatorIS5_EEEENS6_IS8_EEE16__destroy_vectorEEC2B8ne180100ESB_
FNA:1,0,_ZNSt3__128__exception_guard_exceptionsINS_6vectorINS1_IdNS_9allocatorIdEEEENS2_IS4_EEE16__destroy_vectorEEC1B8ne180100ES7_
FNA:1,0,_ZNSt3__128__exception_guard_exceptionsINS_6vectorINS1_IdNS_9allocatorIdEEEENS2_IS4_EEE16__destroy_vectorEEC2B8ne180100ES7_
FNA:1,52,_ZNSt3__128__exception_guard_exceptionsINS_6vectorINS_12basic_stringIcNS_11char_traitsIcEENS_9allocatorIcEEEENS5_IS7_EEE16__destroy_vectorEEC1B8ne180100ESA_
FNA:1,52,_ZNSt3__128__exception_guard_exceptionsINS_6vectorINS_12basic_stringIcNS_11char_traitsIcEENS_9allocatorIcEEEENS5_IS7_EEE16__destroy_vectorEEC2B8ne180100ESA_
FNA:1,0,_ZNSt3__128__exception_guard_exceptionsINS_6vectorIdNS_9allocatorIdEEE16__destroy_vectorEEC1B8ne180100ES5_
FNA:1,0,_ZNSt3__128__exception_guard_exceptionsINS_6vectorIdNS_9allocatorIdEEE16__destroy_vectorEEC2B8ne180100ES5_
FNL:2,82,82
FNA:2,0,_ZNSt3__128__exception_guard_exceptionsINS_29_AllocatorDestroyRangeReverseINS_9allocatorIN7testing12TestPropertyEEENS_16reverse_iteratorIPS4_EEEEE10__completeB8ne180100Ev
FNA:2,0,_ZNSt3__128__exception_guard_exceptionsINS_29_AllocatorDestroyRangeReverseINS_9allocatorIN7testing14TestPartResultEEENS_16reverse_iteratorIPS4_EEEEE10__completeB8ne180100Ev
FNA:2,0,_ZNSt3__128__exception_guard_exceptionsINS_29_AllocatorDestroyRangeReverseINS_9allocatorIN7testing8internal9TraceInfoEEENS_16reverse_iteratorIPS5_EEEEE10__completeB8ne180100Ev
FNA:2,286,_ZNSt3__128__exception_guard_exceptionsINS_29_AllocatorDestroyRangeReverseINS_9allocatorINS_12basic_stringIcNS_11char_traitsIcEENS2_IcEEEEEENS_16reverse_iteratorIPS7_EEEEE10__completeB8ne180100Ev
FNA:2,26,_ZNSt3__128__exception_guard_exceptionsINS_29_AllocatorDestroyRangeReverseINS_9allocatorINS_12basic_stringIcNS_11char_traitsIcEENS2_IcEEEEEEPS7_EEE10__completeB8ne180100Ev
FNA:2,0,_ZNSt3__128__exception_guard_exceptionsINS_6vectorIN7testing8internal13edit_distance8EditTypeENS_9allocatorIS5_EEE16__destroy_vectorEE10__completeB8ne180100Ev
FNA:2,0,_ZNSt3__128__exception_guard_exceptionsINS_6vectorINS1_IN7testing8internal13edit_distance8EditTypeENS_9allocatorIS5_EEEENS6_IS8_EEE16__destroy_vectorEE10__completeB8ne180100Ev
FNA:2,0,_ZNSt3__128__exception_guard_exceptionsINS_6vectorINS1_IdNS_9allocatorIdEEEENS2_IS4_EEE16__destroy_vectorEE10__completeB8ne180100Ev
FNA:2,52,_ZNSt3__128__exception_guard_exceptionsINS_6vectorINS_12basic_stringIcNS_11char_traitsIcEENS_9allocatorIcEEEENS5_IS7_EEE16__destroy_vectorEE10__completeB8ne180100Ev
FNA:2,0,_ZNSt3__128__exception_guard_exceptionsINS_6vectorIdNS_9allocatorIdEEE16__destroy_vectorEE10__completeB8ne180100Ev
FNL:3,84,87
FNA:3,0,_ZNSt3__128__exception_guard_exceptionsINS_29_AllocatorDestroyRangeReverseINS_9allocatorIN7testing12TestPropertyEEENS_16reverse_iteratorIPS4_EEEEED1B8ne180100Ev
FNA:3,0,_ZNSt3__128__exception_guard_exceptionsINS_29_AllocatorDestroyRangeReverseINS_9allocatorIN7testing12TestPropertyEEENS_16reverse_iteratorIPS4_EEEEED2B8ne180100Ev
FNA:3,0,_ZNSt3__128__exception_guard_exceptionsINS_29_AllocatorDestroyRangeReverseINS_9allocatorIN7testing14TestPartResultEEENS_16reverse_iteratorIPS4_EEEEED1B8ne180100Ev
FNA:3,0,_ZNSt3__128__exception_guard_exceptionsINS_29_AllocatorDestroyRangeReverseINS_9allocatorIN7testing14TestPartResultEEENS_16reverse_iteratorIPS4_EEEEED2B8ne180100Ev
FNA:3,0,_ZNSt3__128__exception_guard_exceptionsINS_29_AllocatorDestroyRangeReverseINS_9allocatorIN7testing8internal9TraceInfoEEENS_16reverse_iteratorIPS5_EEEEED1B8ne180100Ev
FNA:3,0,_ZNSt3__128__exception_guard_exceptionsINS_29_AllocatorDestroyRangeReverseINS_9allocatorIN7testing8internal9TraceInfoEEENS_16reverse_iteratorIPS5_EEEEED2B8ne180100Ev
FNA:3,286,_ZNSt3__128__exception_guard_exceptionsINS_29_AllocatorDestroyRangeReverseINS_9allocatorINS_12basic_stringIcNS_11char_traitsIcEENS2_IcEEEEEENS_16reverse_iteratorIPS7_EEEEED1B8ne180100Ev
FNA:3,286,_ZNSt3__128__exception_guard_exceptionsINS_29_AllocatorDestroyRangeReverseINS_9allocatorINS_12basic_stringIcNS_11char_traitsIcEENS2_IcEEEEEENS_16reverse_iteratorIPS7_EEEEED2B8ne180100Ev
FNA:3,26,_ZNSt3__128__exception_guard_exceptionsINS_29_AllocatorDestroyRangeReverseINS_9allocatorINS_12basic_stringIcNS_11char_traitsIcEENS2_IcEEEEEEPS7_EEED1B8ne180100Ev
FNA:3,26,_ZNSt3__128__exception_guard_exceptionsINS_29_AllocatorDestroyRangeReverseINS_9allocatorINS_12basic_stringIcNS_11char_traitsIcEENS2_IcEEEEEEPS7_EEED2B8ne180100Ev
FNA:3,0,_ZNSt3__128__exception_guard_exceptionsINS_6vectorIN7testing8internal13edit_distance8EditTypeENS_9allocatorIS5_EEE16__destroy_vectorEED1B8ne180100Ev
FNA:3,0,_ZNSt3__128__exception_guard_exceptionsINS_6vectorIN7testing8internal13edit_distance8EditTypeENS_9allocatorIS5_EEE16__destroy_vectorEED2B8ne180100Ev
FNA:3,0,_ZNSt3__128__exception_guard_exceptionsINS_6vectorINS1_IN7testing8internal13edit_distance8EditTypeENS_9allocatorIS5_EEEENS6_IS8_EEE16__destroy_vectorEED1B8ne180100Ev
FNA:3,0,_ZNSt3__128__exception_guard_exceptionsINS_6vectorINS1_IN7testing8internal13edit_distance8EditTypeENS_9allocatorIS5_EEEENS6_IS8_EEE16__destroy_vectorEED2B8ne180100Ev
FNA:3,0,_ZNSt3__128__exception_guard_exceptionsINS_6vectorINS1_IdNS_9allocatorIdEEEENS2_IS4_EEE16__destroy_vectorEED1B8ne180100Ev
FNA:3,0,_ZNSt3__128__exception_guard_exceptionsINS_6vectorINS1_IdNS_9allocatorIdEEEENS2_IS4_EEE16__destroy_vectorEED2B8ne180100Ev
FNA:3,52,_ZNSt3__128__exception_guard_exceptionsINS_6vectorINS_12basic_stringIcNS_11char_traitsIcEENS_9allocatorIcEEEENS5_IS7_EEE16__destroy_vectorEED1B8ne180100Ev
FNA:3,52,_ZNSt3__128__exception_guard_exceptionsINS_6vectorINS_12basic_stringIcNS_11char_traitsIcEENS_9allocatorIcEEEENS5_IS7_EEE16__destroy_vectorEED2B8ne180100Ev
FNA:3,0,_ZNSt3__128__exception_guard_exceptionsINS_6vectorIdNS_9allocatorIdEEE16__destroy_vectorEED1B8ne180100Ev
FNA:3,0,_ZNSt3__128__exception_guard_exceptionsINS_6vectorIdNS_9allocatorIdEEE16__destroy_vectorEED2B8ne180100Ev
FNF:4
FNH:4
DA:68,728
DA:69,728
DA:82,364
DA:84,728
DA:85,364
DA:86,0
DA:87,728
DA:136,364
DA:137,364
LF:9
LH:8
end_of_record
TN:
SF:/Library/Developer/CommandLineTools/SDKs/MacOSX15.1.sdk/usr/include/c++/v1/__utility/pair.h
FNL:0,204
FNA:0,0,_ZNSt3__14pairIKNS_12basic_stringIcNS_11char_traitsIcEENS_9allocatorIcEEEEN7testing8internal34TypeParameterizedTestSuiteRegistry30TypeParameterizedTestSuiteInfoEEC1B8ne180100IS6_SB_Li0EEEOT_OT0_
FNA:0,0,_ZNSt3__14pairIKNS_12basic_stringIcNS_11char_traitsIcEENS_9allocatorIcEEEEN7testing8internal34TypeParameterizedTestSuiteRegistry30TypeParameterizedTestSuiteInfoEEC2B8ne180100IS6_SB_Li0EEEOT_OT0_
FNA:0,78,_ZNSt3__14pairINS_11__wrap_iterIPNS_12basic_stringIcNS_11char_traitsIcEENS_9allocatorIcEEEEEENS_15insert_iteratorINS_13unordered_setIS7_NS_4hashIS7_EENS_8equal_toIS7_EENS5_IS7_EEEEEEEC1B8ne180100IS9_SI_Li0EEEOT_OT0_
FNA:0,78,_ZNSt3__14pairINS_11__wrap_iterIPNS_12basic_stringIcNS_11char_traitsIcEENS_9allocatorIcEEEEEENS_15insert_iteratorINS_13unordered_setIS7_NS_4hashIS7_EENS_8equal_toIS7_EENS5_IS7_EEEEEEEC2B8ne180100IS9_SI_Li0EEEOT_OT0_
FNA:0,78,_ZNSt3__14pairINS_11__wrap_iterIPNS_12basic_stringIcNS_11char_traitsIcEENS_9allocatorIcEEEEEENS_15insert_iteratorINS_6vectorIS7_NS5_IS7_EEEEEEEC1B8ne180100IS9_SE_Li0EEEOT_OT0_
FNA:0,78,_ZNSt3__14pairINS_11__wrap_iterIPNS_12basic_stringIcNS_11char_traitsIcEENS_9allocatorIcEEEEEENS_15insert_iteratorINS_6vectorIS7_NS5_IS7_EEEEEEEC2B8ne180100IS9_SE_Li0EEEOT_OT0_
FNA:0,78,_ZNSt3__14pairINS_11__wrap_iterIPNS_12basic_stringIcNS_11char_traitsIcEENS_9allocatorIcEEEEEES9_EC1B8ne180100IS9_S9_Li0EEEOT_OT0_
FNA:0,78,_ZNSt3__14pairINS_11__wrap_iterIPNS_12basic_stringIcNS_11char_traitsIcEENS_9allocatorIcEEEEEES9_EC2B8ne180100IS9_S9_Li0EEEOT_OT0_
FNA:0,25,_ZNSt3__14pairINS_15__hash_iteratorIPNS_11__hash_nodeINS_12basic_stringIcNS_11char_traitsIcEENS_9allocatorIcEEEEPvEEEEbEC1B8ne180100ISC_RbLi0EEEOT_OT0_
FNA:0,25,_ZNSt3__14pairINS_15__hash_iteratorIPNS_11__hash_nodeINS_12basic_stringIcNS_11char_traitsIcEENS_9allocatorIcEEEEPvEEEEbEC2B8ne180100ISC_RbLi0EEEOT_OT0_
FNA:0,0,_ZNSt3__14pairINS_15__tree_iteratorINS_12__value_typeINS_12basic_stringIcNS_11char_traitsIcEENS_9allocatorIcEEEEN7testing8internal34TypeParameterizedTestSuiteRegistry30TypeParameterizedTestSuiteInfoEEEPNS_11__tree_nodeISD_PvEElEEbEC1B8ne180100ISI_RbLi0EEEOT_OT0_
FNA:0,0,_ZNSt3__14pairINS_15__tree_iteratorINS_12__value_typeINS_12basic_stringIcNS_11char_traitsIcEENS_9allocatorIcEEEEN7testing8internal34TypeParameterizedTestSuiteRegistry30TypeParameterizedTestSuiteInfoEEEPNS_11__tree_nodeISD_PvEElEEbEC2B8ne180100ISI_RbLi0EEEOT_OT0_
FNA:0,0,_ZNSt3__14pairINS_15__tree_iteratorINS_12__value_typeINS_12basic_stringIcNS_11char_traitsIcEENS_9allocatorIcEEEEmEEPNS_11__tree_nodeIS9_PvEElEEbEC1B8ne180100ISE_RbLi0EEEOT_OT0_
FNA:0,0,_ZNSt3__14pairINS_15__tree_iteratorINS_12__value_typeINS_12basic_stringIcNS_11char_traitsIcEENS_9allocatorIcEEEEmEEPNS_11__tree_nodeIS9_PvEElEEbEC2B8ne180100ISE_RbLi0EEEOT_OT0_
FNA:0,0,_ZNSt3__14pairINS_15__tree_iteratorINS_12basic_stringIcNS_11char_traitsIcEENS_9allocatorIcEEEEPNS_11__tree_nodeIS7_PvEElEEbEC1B8ne180100ISC_RbLi0EEEOT_OT0_
FNA:0,0,_ZNSt3__14pairINS_15__tree_iteratorINS_12basic_stringIcNS_11char_traitsIcEENS_9allocatorIcEEEEPNS_11__tree_nodeIS7_PvEElEEbEC2B8ne180100ISC_RbLi0EEEOT_OT0_
FNA:0,0,_ZNSt3__14pairINS_16reverse_iteratorIPN7testing8internal13edit_distance8EditTypeEEES7_EC1B8ne180100IS7_S7_Li0EEEOT_OT0_
FNA:0,0,_ZNSt3__14pairINS_16reverse_iteratorIPN7testing8internal13edit_distance8EditTypeEEES7_EC2B8ne180100IS7_S7_Li0EEEOT_OT0_
FNA:0,0,_ZNSt3__14pairINS_16reverse_iteratorIPPN7testing11EnvironmentEEES6_EC1B8ne180100IS6_S6_Li0EEEOT_OT0_
FNA:0,0,_ZNSt3__14pairINS_16reverse_iteratorIPPN7testing11EnvironmentEEES6_EC2B8ne180100IS6_S6_Li0EEEOT_OT0_
FNA:0,78,_ZNSt3__14pairINS_16reverse_iteratorIPPN7testing17TestEventListenerEEES6_EC1B8ne180100IS6_S6_Li0EEEOT_OT0_
FNA:0,78,_ZNSt3__14pairINS_16reverse_iteratorIPPN7testing17TestEventListenerEEES6_EC2B8ne180100IS6_S6_Li0EEEOT_OT0_
FNA:0,468,_ZNSt3__14pairINS_16reverse_iteratorIPPN7testing8TestInfoEEES6_EC1B8ne180100IS6_S6_Li0EEEOT_OT0_
FNA:0,468,_ZNSt3__14pairINS_16reverse_iteratorIPPN7testing8TestInfoEEES6_EC2B8ne180100IS6_S6_Li0EEEOT_OT0_
FNA:0,78,_ZNSt3__14pairINS_16reverse_iteratorIPPN7testing9TestSuiteEEES6_EC1B8ne180100IS6_S6_Li0EEEOT_OT0_
FNA:0,78,_ZNSt3__14pairINS_16reverse_iteratorIPPN7testing9TestSuiteEEES6_EC2B8ne180100IS6_S6_Li0EEEOT_OT0_
FNA:0,0,_ZNSt3__14pairINS_16reverse_iteratorIPPcEES4_EC1B8ne180100IS4_S4_Li0EEEOT_OT0_
FNA:0,0,_ZNSt3__14pairINS_16reverse_iteratorIPPcEES4_EC2B8ne180100IS4_S4_Li0EEEOT_OT0_
FNA:0,546,_ZNSt3__14pairINS_16reverse_iteratorIPiEES3_EC1B8ne180100IS3_S3_Li0EEEOT_OT0_
FNA:0,546,_ZNSt3__14pairINS_16reverse_iteratorIPiEES3_EC2B8ne180100IS3_S3_Li0EEEOT_OT0_
FNA:0,0,_ZNSt3__14pairINS_16reverse_iteratorIPmEES3_EC1B8ne180100IS3_S3_Li0EEEOT_OT0_
FNA:0,0,_ZNSt3__14pairINS_16reverse_iteratorIPmEES3_EC2B8ne180100IS3_S3_Li0EEEOT_OT0_
FNA:0,0,_ZNSt3__14pairIPKNS_12basic_stringIcNS_11char_traitsIcEENS_9allocatorIcEEEES8_EC1B8ne180100IS8_S8_Li0EEEOT_OT0_
FNA:0,0,_ZNSt3__14pairIPKNS_12basic_stringIcNS_11char_traitsIcEENS_9allocatorIcEEEES8_EC2B8ne180100IS8_S8_Li0EEEOT_OT0_
FNA:0,0,_ZNSt3__14pairIPKPKcS4_EC1B8ne180100IS4_S4_Li0EEEOT_OT0_
FNA:0,0,_ZNSt3__14pairIPKPKcS4_EC2B8ne180100IS4_S4_Li0EEEOT_OT0_
FNA:0,1300,_ZNSt3__14pairIPKcPcEC1B8ne180100IRS2_S3_Li0EEEOT_OT0_
FNA:0,1300,_ZNSt3__14pairIPKcPcEC1B8ne180100IS2_S3_Li0EEEOT_OT0_
FNA:0,1300,_ZNSt3__14pairIPKcPcEC2B8ne180100IRS2_S3_Li0EEEOT_OT0_
FNA:0,1300,_ZNSt3__14pairIPKcPcEC2B8ne180100IS2_S3_Li0EEEOT_OT0_
FNA:0,1300,_ZNSt3__14pairIPKcS2_EC1B8ne180100IS2_S2_Li0EEEOT_OT0_
FNA:0,1300,_ZNSt3__14pairIPKcS2_EC2B8ne180100IS2_S2_Li0EEEOT_OT0_
FNA:0,0,_ZNSt3__14pairIPN7testing8internal13edit_distance8EditTypeES5_EC1B8ne180100IRS5_S5_Li0EEEOT_OT0_
FNA:0,0,_ZNSt3__14pairIPN7testing8internal13edit_distance8EditTypeES5_EC1B8ne180100IS5_S5_Li0EEEOT_OT0_
FNA:0,0,_ZNSt3__14pairIPN7testing8internal13edit_distance8EditTypeES5_EC2B8ne180100IRS5_S5_Li0EEEOT_OT0_
FNA:0,0,_ZNSt3__14pairIPN7testing8internal13edit_distance8EditTypeES5_EC2B8ne180100IS5_S5_Li0EEEOT_OT0_
FNA:0,78,_ZNSt3__14pairIPNS_12basic_stringIcNS_11char_traitsIcEENS_9allocatorIcEEEENS_15insert_iteratorINS_13unordered_setIS6_NS_4hashIS6_EENS_8equal_toIS6_EENS4_IS6_EEEEEEEC1B8ne180100IS7_SG_Li0EEEOT_OT0_
FNA:0,78,_ZNSt3__14pairIPNS_12basic_stringIcNS_11char_traitsIcEENS_9allocatorIcEEEENS_15insert_iteratorINS_13unordered_setIS6_NS_4hashIS6_EENS_8equal_toIS6_EENS4_IS6_EEEEEEEC2B8ne180100IS7_SG_Li0EEEOT_OT0_
FNA:0,78,_ZNSt3__14pairIPNS_12basic_stringIcNS_11char_traitsIcEENS_9allocatorIcEEEENS_15insert_iteratorINS_6vectorIS6_NS4_IS6_EEEEEEEC1B8ne180100IS7_SC_Li0EEEOT_OT0_
FNA:0,78,_ZNSt3__14pairIPNS_12basic_stringIcNS_11char_traitsIcEENS_9allocatorIcEEEENS_15insert_iteratorINS_6vectorIS6_NS4_IS6_EEEEEEEC2B8ne180100IS7_SC_Li0EEEOT_OT0_
FNA:0,182,_ZNSt3__14pairIPNS_12basic_stringIcNS_11char_traitsIcEENS_9allocatorIcEEEES7_EC1B8ne180100IS7_S7_Li0EEEOT_OT0_
FNA:0,182,_ZNSt3__14pairIPNS_12basic_stringIcNS_11char_traitsIcEENS_9allocatorIcEEEES7_EC2B8ne180100IS7_S7_Li0EEEOT_OT0_
FNA:0,0,_ZNSt3__14pairIPPN7testing17TestEventListenerES4_EC1B8ne180100IRS4_S4_Li0EEEOT_OT0_
FNA:0,0,_ZNSt3__14pairIPPN7testing17TestEventListenerES4_EC1B8ne180100IS4_S4_Li0EEEOT_OT0_
FNA:0,0,_ZNSt3__14pairIPPN7testing17TestEventListenerES4_EC2B8ne180100IRS4_S4_Li0EEEOT_OT0_
FNA:0,0,_ZNSt3__14pairIPPN7testing17TestEventListenerES4_EC2B8ne180100IS4_S4_Li0EEEOT_OT0_
FNA:0,0,_ZNSt3__14pairIPPN7testing9TestSuiteES4_EC1B8ne180100IRS4_S4_Li0EEEOT_OT0_
FNA:0,0,_ZNSt3__14pairIPPN7testing9TestSuiteES4_EC1B8ne180100IRS4_S7_Li0EEEOT_OT0_
FNA:0,0,_ZNSt3__14pairIPPN7testing9TestSuiteES4_EC1B8ne180100IS4_S4_Li0EEEOT_OT0_
FNA:0,0,_ZNSt3__14pairIPPN7testing9TestSuiteES4_EC2B8ne180100IRS4_S4_Li0EEEOT_OT0_
FNA:0,0,_ZNSt3__14pairIPPN7testing9TestSuiteES4_EC2B8ne180100IRS4_S7_Li0EEEOT_OT0_
FNA:0,0,_ZNSt3__14pairIPPN7testing9TestSuiteES4_EC2B8ne180100IS4_S4_Li0EEEOT_OT0_
FNA:0,0,_ZNSt3__14pairIPPcS2_EC1B8ne180100IRS2_S2_Li0EEEOT_OT0_
FNA:0,0,_ZNSt3__14pairIPPcS2_EC1B8ne180100IRS2_S5_Li0EEEOT_OT0_
FNA:0,0,_ZNSt3__14pairIPPcS2_EC1B8ne180100IS2_S2_Li0EEEOT_OT0_
FNA:0,0,_ZNSt3__14pairIPPcS2_EC2B8ne180100IRS2_S2_Li0EEEOT_OT0_
FNA:0,0,_ZNSt3__14pairIPPcS2_EC2B8ne180100IRS2_S5_Li0EEEOT_OT0_
FNA:0,0,_ZNSt3__14pairIPPcS2_EC2B8ne180100IS2_S2_Li0EEEOT_OT0_
FNA:0,0,_ZNSt3__14pairIPcS1_EC1B8ne180100IRS1_S1_Li0EEEOT_OT0_
FNA:0,2,_ZNSt3__14pairIPcS1_EC1B8ne180100IRS1_S4_Li0EEEOT_OT0_
FNA:0,8,_ZNSt3__14pairIPcS1_EC1B8ne180100IS1_S1_Li0EEEOT_OT0_
FNA:0,0,_ZNSt3__14pairIPcS1_EC2B8ne180100IRS1_S1_Li0EEEOT_OT0_
FNA:0,2,_ZNSt3__14pairIPcS1_EC2B8ne180100IRS1_S4_Li0EEEOT_OT0_
FNA:0,8,_ZNSt3__14pairIPcS1_EC2B8ne180100IS1_S1_Li0EEEOT_OT0_
FNA:0,0,_ZNSt3__14pairIPdS1_EC1B8ne180100IRS1_S1_Li0EEEOT_OT0_
FNA:0,0,_ZNSt3__14pairIPdS1_EC1B8ne180100IS1_S1_Li0EEEOT_OT0_
FNA:0,0,_ZNSt3__14pairIPdS1_EC2B8ne180100IRS1_S1_Li0EEEOT_OT0_
FNA:0,0,_ZNSt3__14pairIPdS1_EC2B8ne180100IS1_S1_Li0EEEOT_OT0_
FNA:0,0,_ZNSt3__14pairIcPKcEC1B8ne180100IcRS2_Li0EEEOT_OT0_
FNA:0,0,_ZNSt3__14pairIcPKcEC2B8ne180100IcRS2_Li0EEEOT_OT0_
FNA:0,0,_ZNSt3__14pairImmEC1B8ne180100ImmLi0EEEOT_OT0_
FNA:0,0,_ZNSt3__14pairImmEC2B8ne180100ImmLi0EEEOT_OT0_
FNL:1,243
FNA:1,0,_ZNSt3__14pairINS_14__map_iteratorINS_15__tree_iteratorINS_12__value_typeINS_12basic_stringIcNS_11char_traitsIcEENS_9allocatorIcEEEEN7testing8internal34TypeParameterizedTestSuiteRegistry30TypeParameterizedTestSuiteInfoEEEPNS_11__tree_nodeISE_PvEElEEEEbEC1B8ne180100ISJ_bLi0EEEONS0_IT_T0_EE
FNA:1,0,_ZNSt3__14pairINS_14__map_iteratorINS_15__tree_iteratorINS_12__value_typeINS_12basic_stringIcNS_11char_traitsIcEENS_9allocatorIcEEEEN7testing8internal34TypeParameterizedTestSuiteRegistry30TypeParameterizedTestSuiteInfoEEEPNS_11__tree_nodeISE_PvEElEEEEbEC2B8ne180100ISJ_bLi0EEEONS0_IT_T0_EE
FNA:1,25,_ZNSt3__14pairINS_21__hash_const_iteratorIPNS_11__hash_nodeINS_12basic_stringIcNS_11char_traitsIcEENS_9allocatorIcEEEEPvEEEEbEC1B8ne180100INS_15__hash_iteratorISB_EEbLi0EEEONS0_IT_T0_EE
FNA:1,25,_ZNSt3__14pairINS_21__hash_const_iteratorIPNS_11__hash_nodeINS_12basic_stringIcNS_11char_traitsIcEENS_9allocatorIcEEEEPvEEEEbEC2B8ne180100INS_15__hash_iteratorISB_EEbLi0EEEONS0_IT_T0_EE
FNA:1,0,_ZNSt3__14pairINS_21__tree_const_iteratorINS_12basic_stringIcNS_11char_traitsIcEENS_9allocatorIcEEEEPNS_11__tree_nodeIS7_PvEElEEbEC1B8ne180100INS_15__tree_iteratorIS7_SB_lEEbLi0EEEONS0_IT_T0_EE
FNA:1,0,_ZNSt3__14pairINS_21__tree_const_iteratorINS_12basic_stringIcNS_11char_traitsIcEENS_9allocatorIcEEEEPNS_11__tree_nodeIS7_PvEElEEbEC2B8ne180100INS_15__tree_iteratorIS7_SB_lEEbLi0EEEONS0_IT_T0_EE
FNL:2,279
FNA:2,0,_ZNSt3__14pairIKNS_12basic_stringIcNS_11char_traitsIcEENS_9allocatorIcEEEEmEC1B8ne180100IJRS7_EJEEENS_21piecewise_construct_tENS_5tupleIJDpT_EEENSC_IJDpT0_EEE
FNL:3,298
FNA:3,0,_ZNSt3__14pairImmEaSB8ne180100EOS1_
FNL:4,599
FNA:4,78,_ZNSt3__19make_pairB8ne180100INS_11__wrap_iterIPNS_12basic_stringIcNS_11char_traitsIcEENS_9allocatorIcEEEEEENS_15insert_iteratorINS_13unordered_setIS7_NS_4hashIS7_EENS_8equal_toIS7_EENS5_IS7_EEEEEEEENS_4pairINS_18__unwrap_ref_decayIT_E4typeENSK_IT0_E4typeEEEOSL_OSO_
FNA:4,78,_ZNSt3__19make_pairB8ne180100INS_11__wrap_iterIPNS_12basic_stringIcNS_11char_traitsIcEENS_9allocatorIcEEEEEENS_15insert_iteratorINS_6vectorIS7_NS5_IS7_EEEEEEEENS_4pairINS_18__unwrap_ref_decayIT_E4typeENSG_IT0_E4typeEEEOSH_OSK_
FNA:4,78,_ZNSt3__19make_pairB8ne180100INS_11__wrap_iterIPNS_12basic_stringIcNS_11char_traitsIcEENS_9allocatorIcEEEEEES9_EENS_4pairINS_18__unwrap_ref_decayIT_E4typeENSB_IT0_E4typeEEEOSC_OSF_
FNA:4,0,_ZNSt3__19make_pairB8ne180100INS_16reverse_iteratorIPN7testing8internal13edit_distance8EditTypeEEES7_EENS_4pairINS_18__unwrap_ref_decayIT_E4typeENS9_IT0_E4typeEEEOSA_OSD_
FNA:4,0,_ZNSt3__19make_pairB8ne180100INS_16reverse_iteratorIPPN7testing11EnvironmentEEES6_EENS_4pairINS_18__unwrap_ref_decayIT_E4typeENS8_IT0_E4typeEEEOS9_OSC_
FNA:4,78,_ZNSt3__19make_pairB8ne180100INS_16reverse_iteratorIPPN7testing17TestEventListenerEEES6_EENS_4pairINS_18__unwrap_ref_decayIT_E4typeENS8_IT0_E4typeEEEOS9_OSC_
FNA:4,468,_ZNSt3__19make_pairB8ne180100INS_16reverse_iteratorIPPN7testing8TestInfoEEES6_EENS_4pairINS_18__unwrap_ref_decayIT_E4typeENS8_IT0_E4typeEEEOS9_OSC_
FNA:4,78,_ZNSt3__19make_pairB8ne180100INS_16reverse_iteratorIPPN7testing9TestSuiteEEES6_EENS_4pairINS_18__unwrap_ref_decayIT_E4typeENS8_IT0_E4typeEEEOS9_OSC_
FNA:4,0,_ZNSt3__19make_pairB8ne180100INS_16reverse_iteratorIPPcEES4_EENS_4pairINS_18__unwrap_ref_decayIT_E4typeENS6_IT0_E4typeEEEOS7_OSA_
FNA:4,546,_ZNSt3__19make_pairB8ne180100INS_16reverse_iteratorIPiEES3_EENS_4pairINS_18__unwrap_ref_decayIT_E4typeENS5_IT0_E4typeEEEOS6_OS9_
FNA:4,0,_ZNSt3__19make_pairB8ne180100INS_16reverse_iteratorIPmEES3_EENS_4pairINS_18__unwrap_ref_decayIT_E4typeENS5_IT0_E4typeEEEOS6_OS9_
FNA:4,0,_ZNSt3__19make_pairB8ne180100IPKNS_12basic_stringIcNS_11char_traitsIcEENS_9allocatorIcEEEES8_EENS_4pairINS_18__unwrap_ref_decayIT_E4typeENSA_IT0_E4typeEEEOSB_OSE_
FNA:4,0,_ZNSt3__19make_pairB8ne180100IPKPKcS4_EENS_4pairINS_18__unwrap_ref_decayIT_E4typeENS6_IT0_E4typeEEEOS7_OSA_
FNA:4,1300,_ZNSt3__19make_pairB8ne180100IPKcPcEENS_4pairINS_18__unwrap_ref_decayIT_E4typeENS5_IT0_E4typeEEEOS6_OS9_
FNA:4,1300,_ZNSt3__19make_pairB8ne180100IPKcS2_EENS_4pairINS_18__unwrap_ref_decayIT_E4typeENS4_IT0_E4typeEEEOS5_OS8_
FNA:4,0,_ZNSt3__19make_pairB8ne180100IPN7testing8internal13edit_distance8EditTypeES5_EENS_4pairINS_18__unwrap_ref_decayIT_E4typeENS7_IT0_E4typeEEEOS8_OSB_
FNA:4,78,_ZNSt3__19make_pairB8ne180100IPNS_12basic_stringIcNS_11char_traitsIcEENS_9allocatorIcEEEENS_15insert_iteratorINS_13unordered_setIS6_NS_4hashIS6_EENS_8equal_toIS6_EENS4_IS6_EEEEEEEENS_4pairINS_18__unwrap_ref_decayIT_E4typeENSI_IT0_E4typeEEEOSJ_OSM_
FNA:4,78,_ZNSt3__19make_pairB8ne180100IPNS_12basic_stringIcNS_11char_traitsIcEENS_9allocatorIcEEEENS_15insert_iteratorINS_6vectorIS6_NS4_IS6_EEEEEEEENS_4pairINS_18__unwrap_ref_decayIT_E4typeENSE_IT0_E4typeEEEOSF_OSI_
FNA:4,182,_ZNSt3__19make_pairB8ne180100IPNS_12basic_stringIcNS_11char_traitsIcEENS_9allocatorIcEEEES7_EENS_4pairINS_18__unwrap_ref_decayIT_E4typeENS9_IT0_E4typeEEEOSA_OSD_
FNA:4,0,_ZNSt3__19make_pairB8ne180100IPPN7testing17TestEventListenerES4_EENS_4pairINS_18__unwrap_ref_decayIT_E4typeENS6_IT0_E4typeEEEOS7_OSA_
FNA:4,0,_ZNSt3__19make_pairB8ne180100IPPN7testing9TestSuiteES4_EENS_4pairINS_18__unwrap_ref_decayIT_E4typeENS6_IT0_E4typeEEEOS7_OSA_
FNA:4,0,_ZNSt3__19make_pairB8ne180100IPPcS2_EENS_4pairINS_18__unwrap_ref_decayIT_E4typeENS4_IT0_E4typeEEEOS5_OS8_
FNA:4,4,_ZNSt3__19make_pairB8ne180100IPcS1_EENS_4pairINS_18__unwrap_ref_decayIT_E4typeENS3_IT0_E4typeEEEOS4_OS7_
FNA:4,0,_ZNSt3__19make_pairB8ne180100IPdS1_EENS_4pairINS_18__unwrap_ref_decayIT_E4typeENS3_IT0_E4typeEEEOS4_OS7_
FNA:4,1300,_ZNSt3__19make_pairB8ne180100IRPKcPcEENS_4pairINS_18__unwrap_ref_decayIT_E4typeENS6_IT0_E4typeEEEOS7_OSA_
FNA:4,0,_ZNSt3__19make_pairB8ne180100IRPN7testing8internal13edit_distance8EditTypeES5_EENS_4pairINS_18__unwrap_ref_decayIT_E4typeENS8_IT0_E4typeEEEOS9_OSC_
FNA:4,0,_ZNSt3__19make_pairB8ne180100IRPPN7testing17TestEventListenerES4_EENS_4pairINS_18__unwrap_ref_decayIT_E4typeENS7_IT0_E4typeEEEOS8_OSB_
FNA:4,0,_ZNSt3__19make_pairB8ne180100IRPPN7testing9TestSuiteES4_EENS_4pairINS_18__unwrap_ref_decayIT_E4typeENS7_IT0_E4typeEEEOS8_OSB_
FNA:4,0,_ZNSt3__19make_pairB8ne180100IRPPN7testing9TestSuiteES5_EENS_4pairINS_18__unwrap_ref_decayIT_E4typeENS7_IT0_E4typeEEEOS8_OSB_
FNA:4,0,_ZNSt3__19make_pairB8ne180100IRPPcS2_EENS_4pairINS_18__unwrap_ref_decayIT_E4typeENS5_IT0_E4typeEEEOS6_OS9_
FNA:4,0,_ZNSt3__19make_pairB8ne180100IRPPcS3_EENS_4pairINS_18__unwrap_ref_decayIT_E4typeENS5_IT0_E4typeEEEOS6_OS9_
FNA:4,0,_ZNSt3__19make_pairB8ne180100IRPcS1_EENS_4pairINS_18__unwrap_ref_decayIT_E4typeENS4_IT0_E4typeEEEOS5_OS8_
FNA:4,2,_ZNSt3__19make_pairB8ne180100IRPcS2_EENS_4pairINS_18__unwrap_ref_decayIT_E4typeENS4_IT0_E4typeEEEOS5_OS8_
FNA:4,0,_ZNSt3__19make_pairB8ne180100IRPdS1_EENS_4pairINS_18__unwrap_ref_decayIT_E4typeENS4_IT0_E4typeEEEOS5_OS8_
FNA:4,0,_ZNSt3__19make_pairB8ne180100IcRPKcEENS_4pairINS_18__unwrap_ref_decayIT_E4typeENS5_IT0_E4typeEEEOS6_OS9_
FNL:5,80
FNA:5,0,_ZNSt3__14pairIKNS_12basic_stringIcNS_11char_traitsIcEENS_9allocatorIcEEEEN7testing8internal34TypeParameterizedTestSuiteRegistry30TypeParameterizedTestSuiteInfoEED1Ev
FNA:5,0,_ZNSt3__14pairIKNS_12basic_stringIcNS_11char_traitsIcEENS_9allocatorIcEEEEN7testing8internal34TypeParameterizedTestSuiteRegistry30TypeParameterizedTestSuiteInfoEED2Ev
FNA:5,0,_ZNSt3__14pairIKNS_12basic_stringIcNS_11char_traitsIcEENS_9allocatorIcEEEEmED1Ev
FNA:5,0,_ZNSt3__14pairIKNS_12basic_stringIcNS_11char_traitsIcEENS_9allocatorIcEEEEmED2Ev
FNL:6,91
FNA:6,0,_ZNSt3__14pairIKNS_12basic_stringIcNS_11char_traitsIcEENS_9allocatorIcEEEEN7testing8internal34TypeParameterizedTestSuiteRegistry30TypeParameterizedTestSuiteInfoEEC1B8ne180100ERKSC_
FNA:6,0,_ZNSt3__14pairIKNS_12basic_stringIcNS_11char_traitsIcEENS_9allocatorIcEEEEN7testing8internal34TypeParameterizedTestSuiteRegistry30TypeParameterizedTestSuiteInfoEEC2B8ne180100ERKSC_
FNF:7
FNH:3
DA:91,0
DA:204,11354
DA:207,11354
DA:208,11354
DA:243,50
DA:246,50
DA:279,0
DA:282,0
DA:286,0
DA:298,0
DA:302,0
DA:303,0
DA:304,0
DA:599,5648
DA:600,5648
DA:601,5648
LF:16
LH:8
end_of_record
TN:
SF:/Library/Developer/CommandLineTools/SDKs/MacOSX15.1.sdk/usr/include/c++/v1/__utility/swap.h
FNL:0,40,45
FNA:0,0,_ZNSt3__14swapB8ne180100IN7testing8internal13edit_distance8EditTypeEEENS_9enable_ifIXaasr21is_move_constructibleIT_EE5valuesr18is_move_assignableIS6_EE5valueEvE4typeERS6_S9_
FNA:0,0,_ZNSt3__14swapB8ne180100INS_12basic_stringIcNS_11char_traitsIcEENS_9allocatorIcEEE5__repEEENS_9enable_ifIXaasr21is_move_constructibleIT_EE5valuesr18is_move_assignableIS9_EE5valueEvE4typeERS9_SC_
FNA:0,0,_ZNSt3__14swapB8ne180100INS_14default_deleteINS_12basic_stringIcNS_11char_traitsIcEENS_9allocatorIcEEEEEEEENS_9enable_ifIXaasr21is_move_constructibleIT_EE5valuesr18is_move_assignableISA_EE5valueEvE4typeERSA_SD_
FNA:0,0,_ZNSt3__14swapB8ne180100IPN7testing12TestPropertyEEENS_9enable_ifIXaasr21is_move_constructibleIT_EE5valuesr18is_move_assignableIS5_EE5valueEvE4typeERS5_S8_
FNA:0,0,_ZNSt3__14swapB8ne180100IPN7testing14TestPartResultEEENS_9enable_ifIXaasr21is_move_constructibleIT_EE5valuesr18is_move_assignableIS5_EE5valueEvE4typeERS5_S8_
FNA:0,0,_ZNSt3__14swapB8ne180100IPN7testing8internal13edit_distance8EditTypeEEENS_9enable_ifIXaasr21is_move_constructibleIT_EE5valuesr18is_move_assignableIS7_EE5valueEvE4typeERS7_SA_
FNA:0,0,_ZNSt3__14swapB8ne180100IPN7testing8internal9TraceInfoEEENS_9enable_ifIXaasr21is_move_constructibleIT_EE5valuesr18is_move_assignableIS6_EE5valueEvE4typeERS6_S9_
FNA:0,1170,_ZNSt3__14swapB8ne180100IPNS_12basic_stringIcNS_11char_traitsIcEENS_9allocatorIcEEEEEENS_9enable_ifIXaasr21is_move_constructibleIT_EE5valuesr18is_move_assignableIS9_EE5valueEvE4typeERS9_SC_
FNA:0,0,_ZNSt3__14swapB8ne180100IPPN7testing11EnvironmentEEENS_9enable_ifIXaasr21is_move_constructibleIT_EE5valuesr18is_move_assignableIS6_EE5valueEvE4typeERS6_S9_
FNA:0,78,_ZNSt3__14swapB8ne180100IPPN7testing17TestEventListenerEEENS_9enable_ifIXaasr21is_move_constructibleIT_EE5valuesr18is_move_assignableIS6_EE5valueEvE4typeERS6_S9_
FNA:0,468,_ZNSt3__14swapB8ne180100IPPN7testing8TestInfoEEENS_9enable_ifIXaasr21is_move_constructibleIT_EE5valuesr18is_move_assignableIS6_EE5valueEvE4typeERS6_S9_
FNA:0,78,_ZNSt3__14swapB8ne180100IPPN7testing9TestSuiteEEENS_9enable_ifIXaasr21is_move_constructibleIT_EE5valuesr18is_move_assignableIS6_EE5valueEvE4typeERS6_S9_
FNA:0,0,_ZNSt3__14swapB8ne180100IPPcEENS_9enable_ifIXaasr21is_move_constructibleIT_EE5valuesr18is_move_assignableIS4_EE5valueEvE4typeERS4_S7_
FNA:0,1,_ZNSt3__14swapB8ne180100IPcEENS_9enable_ifIXaasr21is_move_constructibleIT_EE5valuesr18is_move_assignableIS3_EE5valueEvE4typeERS3_S6_
FNA:0,546,_ZNSt3__14swapB8ne180100IPiEENS_9enable_ifIXaasr21is_move_constructibleIT_EE5valuesr18is_move_assignableIS3_EE5valueEvE4typeERS3_S6_
FNA:0,0,_ZNSt3__14swapB8ne180100IPmEENS_9enable_ifIXaasr21is_move_constructibleIT_EE5valuesr18is_move_assignableIS3_EE5valueEvE4typeERS3_S6_
FNA:0,0,_ZNSt3__14swapB8ne180100IbEENS_9enable_ifIXaasr21is_move_constructibleIT_EE5valuesr18is_move_assignableIS2_EE5valueEvE4typeERS2_S5_
FNA:0,0,_ZNSt3__14swapB8ne180100IcEENS_9enable_ifIXaasr21is_move_constructibleIT_EE5valuesr18is_move_assignableIS2_EE5valueEvE4typeERS2_S5_
FNA:0,0,_ZNSt3__14swapB8ne180100IiEENS_9enable_ifIXaasr21is_move_constructibleIT_EE5valuesr18is_move_assignableIS2_EE5valueEvE4typeERS2_S5_
FNA:0,3,_ZNSt3__14swapB8ne180100ImEENS_9enable_ifIXaasr21is_move_constructibleIT_EE5valuesr18is_move_assignableIS2_EE5valueEvE4typeERS2_S5_
FNF:1
FNH:1
DA:40,2344
DA:42,2344
DA:43,2344
DA:44,2344
DA:45,2344
LF:5
LH:5
end_of_record
TN:
SF:/Library/Developer/CommandLineTools/SDKs/MacOSX15.1.sdk/usr/include/c++/v1/cwchar
FNL:0,197,199
FNA:0,0,_ZNSt3__118__constexpr_wcslenB8ne180100EPKw
FNL:1,212,214
FNA:1,0,_ZNSt3__119__constexpr_wmemcmpB8ne180100EPKwS1_m
FNL:2,230,240
FNA:2,0,_ZNSt3__119__constexpr_wmemchrB8ne180100IKwwEEPT_S3_T0_m
FNF:3
FNH:0
DA:197,0
DA:199,0
DA:212,0
DA:214,0
DA:230,0
DA:237,0
DA:238,0
DA:239,0
DA:240,0
LF:9
LH:0
end_of_record
TN:
SF:/Library/Developer/CommandLineTools/SDKs/MacOSX15.1.sdk/usr/include/c++/v1/initializer_list
FNL:0,80,80
FNA:0,0,_ZNKSt16initializer_listIPKcE5beginB8ne180100Ev
FNL:1,82,82
FNA:1,0,_ZNKSt16initializer_listIPKcE3endB8ne180100Ev
FNF:2
FNH:0
DA:80,0
DA:82,0
LF:2
LH:0
end_of_record
TN:
SF:/Library/Developer/CommandLineTools/SDKs/MacOSX15.1.sdk/usr/include/c++/v1/iomanip
FNL:0,146,146
FNA:0,0,_ZNSt3__18__iom_t4IcEC1B8ne180100Ec
FNA:0,0,_ZNSt3__18__iom_t4IcEC2B8ne180100Ec
FNL:1,150,152
FNA:1,0,_ZNSt3__1lsB8ne180100INS_11char_traitsIcEEEERNS_13basic_ostreamIcT_EES6_RKNS_8__iom_t4IcEE
FNL:2,157,158
FNA:2,0,_ZNSt3__17setfillB8ne180100IcEENS_8__iom_t4IT_EES2_
FNL:3,167,167
FNA:3,1470,_ZNSt3__18__iom_t5C1B8ne180100Ei
FNA:3,1470,_ZNSt3__18__iom_t5C2B8ne180100Ei
FNL:4,178,180
FNA:4,1470,_ZNSt3__1lsB8ne180100IcNS_11char_traitsIcEEEERNS_13basic_ostreamIT_T0_EES7_RKNS_8__iom_t5E
FNL:5,184,184
FNA:5,1470,_ZNSt3__112setprecisionB8ne180100Ei
FNL:6,192,192
FNA:6,0,_ZNSt3__18__iom_t6C1B8ne180100Ei
FNA:6,0,_ZNSt3__18__iom_t6C2B8ne180100Ei
FNL:7,203,205
FNA:7,0,_ZNSt3__1lsB8ne180100IcNS_11char_traitsIcEEEERNS_13basic_ostreamIT_T0_EES7_RKNS_8__iom_t6E
FNL:8,209,209
FNA:8,0,_ZNSt3__14setwB8ne180100Ei
FNF:9
FNH:3
DA:146,0
DA:150,0
DA:151,0
DA:152,0
DA:157,0
DA:158,0
DA:167,2940
DA:178,1470
DA:179,1470
DA:180,1470
DA:184,1470
DA:192,0
DA:203,0
DA:204,0
DA:205,0
DA:209,0
LF:16
LH:5
end_of_record
TN:
SF:/Library/Developer/CommandLineTools/SDKs/MacOSX15.1.sdk/usr/include/c++/v1/ios
FNL:0,363,364
FNA:0,1470,_ZNSt3__18ios_baseC2B8ne180100Ev
FNL:1,367,367
FNA:1,11984,_ZNKSt3__18ios_base5rdbufB8ne180100Ev
FNL:2,455,455
FNA:2,11984,_ZNKSt3__18ios_base5flagsB8ne180100Ev
FNL:3,457,460
FNA:3,0,_ZNSt3__18ios_base5flagsB8ne180100Ej
FNL:4,463,466
FNA:4,0,_ZNSt3__18ios_base4setfB8ne180100Ej
FNL:5,469,469
FNA:5,0,_ZNSt3__18ios_base6unsetfB8ne180100Ej
FNL:6,471,475
FNA:6,0,_ZNSt3__18ios_base4setfB8ne180100Ejj
FNL:7,482,485
FNA:7,1470,_ZNSt3__18ios_base9precisionB8ne180100El
FNL:8,490,490
FNA:8,11984,_ZNKSt3__18ios_base5widthB8ne180100Ev
FNL:9,492,495
FNA:9,11984,_ZNSt3__18ios_base5widthB8ne180100El
FNL:10,502,502
FNA:10,0,_ZNSt3__18ios_base8setstateB8ne180100Ej
FNL:11,544,544
FNA:11,0,_ZNSt3__19basic_iosIcNS_11char_traitsIcEEE8setstateB8ne180100Ej
FNL:12,575,576
FNA:12,1470,_ZNSt3__19basic_iosIcNS_11char_traitsIcEEEC2B8ne180100Ev
FNL:13,598,602
FNA:13,1470,_ZNSt3__19basic_iosIcNS_11char_traitsIcEEE4initB8ne180100EPNS_15basic_streambufIcS2_EE
FNL:14,618,619
FNA:14,11984,_ZNKSt3__19basic_iosIcNS_11char_traitsIcEEE5rdbufB8ne180100Ev
FNL:15,645,647
FNA:15,1220,_ZNKSt3__19basic_iosIcNS_11char_traitsIcEEE5widenB8ne180100Ec
FNL:16,650,653
FNA:16,11984,_ZNKSt3__19basic_iosIcNS_11char_traitsIcEEE4fillB8ne180100Ev
FNL:17,657,662
FNA:17,0,_ZNSt3__19basic_iosIcNS_11char_traitsIcEEE4fillB8ne180100Ec
FNL:18,754,756
FNA:18,0,_ZNSt3__19uppercaseB8ne180100ERNS_8ios_baseE
FNL:19,794,796
FNA:19,0,_ZNSt3__13hexB8ne180100ERNS_8ios_baseE
FNF:20
FNH:11
DA:363,1470
DA:364,1470
DA:367,11984
DA:455,11984
DA:457,0
DA:458,0
DA:459,0
DA:460,0
DA:463,0
DA:464,0
DA:465,0
DA:466,0
DA:469,0
DA:471,0
DA:472,0
DA:473,0
DA:474,0
DA:475,0
DA:482,1470
DA:483,1470
DA:484,1470
DA:485,1470
DA:490,11984
DA:492,11984
DA:493,11984
DA:494,11984
DA:495,11984
DA:502,0
DA:544,0
DA:575,1470
DA:576,1470
DA:598,1470
DA:599,1470
DA:600,1470
DA:601,1470
DA:602,1470
DA:618,11984
DA:619,11984
DA:645,1220
DA:646,1220
DA:647,0
DA:650,11984
DA:651,11984
DA:652,1220
DA:653,11984
DA:657,0
DA:658,0
DA:659,0
DA:660,0
DA:661,0
DA:662,0
DA:754,0
DA:755,0
DA:756,0
DA:794,0
DA:795,0
DA:796,0
LF:57
LH:28
end_of_record
TN:
SF:/Library/Developer/CommandLineTools/SDKs/MacOSX15.1.sdk/usr/include/c++/v1/istream
FNL:0,1172,1173
FNA:0,1470,_ZNSt3__114basic_iostreamIcNS_11char_traitsIcEEEC2B8ne180100EPNS_15basic_streambufIcS2_EE
FNL:1,200,203
FNA:1,1470,_ZNSt3__113basic_istreamIcNS_11char_traitsIcEEEC2B8ne180100EPNS_15basic_streambufIcS2_EE
FNF:2
FNH:2
DA:200,1470
DA:201,1470
DA:202,1470
DA:203,1470
DA:1172,2940
DA:1173,1470
LF:6
LH:6
end_of_record
TN:
SF:/Library/Developer/CommandLineTools/SDKs/MacOSX15.1.sdk/usr/include/c++/v1/limits
FNL:0,203,203
FNA:0,702,_ZNSt3__123__libcpp_numeric_limitsIlLb1EE3maxB8ne180100Ev
FNA:0,650,_ZNSt3__123__libcpp_numeric_limitsImLb1EE3maxB8ne180100Ev
FNL:1,367,367
FNA:1,0,_ZNSt3__123__libcpp_numeric_limitsIdLb1EE8infinityB8ne180100Ev
FNL:2,446,446
FNA:2,702,_ZNSt3__114numeric_limitsIlE3maxB8ne180100Ev
FNA:2,650,_ZNSt3__114numeric_limitsImE3maxB8ne180100Ev
FNL:3,471,471
FNA:3,0,_ZNSt3__114numeric_limitsIdE8infinityB8ne180100Ev
FNF:4
FNH:2
DA:203,1352
DA:367,0
DA:446,1352
DA:471,0
LF:4
LH:2
end_of_record
TN:
SF:/Library/Developer/CommandLineTools/SDKs/MacOSX15.1.sdk/usr/include/c++/v1/list
FNL:0,1273,1278
FNA:0,0,_ZNSt3__14listINS_4pairIcPKcEENS_9allocatorIS4_EEE9push_backEOS4_
FNL:1,1453,1464
FNA:1,0,_ZNSt3__14listINS_4pairIcPKcEENS_9allocatorIS4_EEE6spliceENS_21__list_const_iteratorIS4_PvEERS7_
FNL:2,285,285
FNA:2,0,_ZNSt3__126__list_node_pointer_traitsINS_4pairIcPKcEEPvE26__unsafe_link_pointer_castB8ne180100EPNS_16__list_node_baseIS4_S5_EE
FNL:3,302,304
FNA:3,0,_ZNSt3__116__list_node_baseINS_4pairIcPKcEEPvEC1B8ne180100Ev
FNA:3,0,_ZNSt3__116__list_node_baseINS_4pairIcPKcEEPvEC2B8ne180100Ev
FNL:4,306,307
FNA:4,0,_ZNSt3__116__list_node_baseINS_4pairIcPKcEEPvEC2B8ne180100EPS6_S7_
FNL:5,309,309
FNA:5,0,_ZNSt3__116__list_node_baseINS_4pairIcPKcEEPvE6__selfB8ne180100Ev
FNL:6,311,311
FNA:6,0,_ZNSt3__116__list_node_baseINS_4pairIcPKcEEPvE9__as_nodeB8ne180100Ev
FNL:7,326,326
FNA:7,0,_ZNSt3__111__list_nodeINS_4pairIcPKcEEPvE11__get_valueB8ne180100Ev
FNL:8,339,339
FNA:8,0,_ZNSt3__111__list_nodeINS_4pairIcPKcEEPvEC1B8ne180100EPNS_16__list_node_baseIS4_S5_EES9_
FNA:8,0,_ZNSt3__111__list_nodeINS_4pairIcPKcEEPvEC2B8ne180100EPNS_16__list_node_baseIS4_S5_EES9_
FNL:9,340,340
FNA:9,0,_ZNSt3__111__list_nodeINS_4pairIcPKcEEPvED1B8ne180100Ev
FNA:9,0,_ZNSt3__111__list_nodeINS_4pairIcPKcEEPvED2B8ne180100Ev
FNL:10,342,342
FNA:10,0,_ZNSt3__111__list_nodeINS_4pairIcPKcEEPvE9__as_linkB8ne180100Ev
FNL:11,359,359
FNA:11,0,_ZNSt3__115__list_iteratorINS_4pairIcPKcEEPvEC1B8ne180100EPNS_16__list_node_baseIS4_S5_EE
FNA:11,0,_ZNSt3__115__list_iteratorINS_4pairIcPKcEEPvEC2B8ne180100EPNS_16__list_node_baseIS4_S5_EE
FNL:12,432,433
FNA:12,0,_ZNSt3__121__list_const_iteratorINS_4pairIcPKcEEPvEC1B8ne180100ERKNS_15__list_iteratorIS4_S5_EE
FNA:12,0,_ZNSt3__121__list_const_iteratorINS_4pairIcPKcEEPvEC2B8ne180100ERKNS_15__list_iteratorIS4_S5_EE
FNL:13,436,437
FNA:13,0,_ZNKSt3__121__list_const_iteratorINS_4pairIcPKcEEPvEptB8ne180100Ev
FNL:14,440,442
FNA:14,0,_ZNSt3__121__list_const_iteratorINS_4pairIcPKcEEPvEppB8ne180100Ev
FNL:15,460,461
FNA:15,0,_ZNSt3__1eqB8ne180100ERKNS_21__list_const_iteratorINS_4pairIcPKcEEPvEES8_
FNL:16,463,464
FNA:16,0,_ZNSt3__1neB8ne180100ERKNS_21__list_const_iteratorINS_4pairIcPKcEEPvEES8_
FNL:17,505,506
FNA:17,0,_ZNKSt3__110__list_impINS_4pairIcPKcEENS_9allocatorIS4_EEE13__end_as_linkB8ne180100Ev
FNL:18,509,509
FNA:18,0,_ZNSt3__110__list_impINS_4pairIcPKcEENS_9allocatorIS4_EEE4__szB8ne180100Ev
FNL:19,510,510
FNA:19,0,_ZNKSt3__110__list_impINS_4pairIcPKcEENS_9allocatorIS4_EEE4__szB8ne180100Ev
FNL:20,511,519
FNA:20,0,_ZNSt3__110__list_impINS_4pairIcPKcEENS_9allocatorIS4_EEE12__node_allocB8ne180100Ev
FNL:21,527,527
FNA:21,0,_ZNKSt3__110__list_impINS_4pairIcPKcEENS_9allocatorIS4_EEE5emptyB8ne180100Ev
FNL:22,529,529
FNA:22,0,_ZNSt3__110__list_impINS_4pairIcPKcEENS_9allocatorIS4_EEE5beginB8ne180100Ev
FNL:23,531,531
FNA:23,0,_ZNSt3__110__list_impINS_4pairIcPKcEENS_9allocatorIS4_EEE3endB8ne180100Ev
FNL:24,554,569
FNA:24,0,_ZNSt3__110__list_impINS_4pairIcPKcEENS_9allocatorIS4_EEE13__create_nodeB8ne180100IJS4_EEEPNS_11__list_nodeIS4_PvEEPNS_16__list_node_baseIS4_SA_EESF_DpOT_
FNL:25,572,579
FNA:25,0,_ZNSt3__110__list_impINS_4pairIcPKcEENS_9allocatorIS4_EEE13__delete_nodeB8ne180100IJEEEvPNS_11__list_nodeIS4_PvEE
FNL:26,600,603
FNA:26,0,_ZNSt3__110__list_impINS_4pairIcPKcEENS_9allocatorIS4_EEE14__unlink_nodesEPNS_16__list_node_baseIS4_PvEESB_
FNL:27,606,607
FNA:27,0,_ZNSt3__110__list_impINS_4pairIcPKcEENS_9allocatorIS4_EEEC2Ev
FNL:28,621,623
FNA:28,0,_ZNSt3__110__list_impINS_4pairIcPKcEENS_9allocatorIS4_EEED2Ev
FNL:29,626,638
FNA:29,0,_ZNSt3__110__list_impINS_4pairIcPKcEENS_9allocatorIS4_EEE5clearEv
FNL:30,667
FNA:30,0,_ZNSt3__14listINS_4pairIcPKcEENS_9allocatorIS4_EEED1Ev
FNA:30,0,_ZNSt3__14listINS_4pairIcPKcEENS_9allocatorIS4_EEED2Ev
FNL:31,702,702
FNA:31,0,_ZNSt3__14listINS_4pairIcPKcEENS_9allocatorIS4_EEEC1B8ne180100Ev
FNA:31,0,_ZNSt3__14listINS_4pairIcPKcEENS_9allocatorIS4_EEEC2B8ne180100Ev
FNL:32,769,769
FNA:32,0,_ZNKSt3__14listINS_4pairIcPKcEENS_9allocatorIS4_EEE5emptyB8ne180100Ev
FNL:33,774,774
FNA:33,0,_ZNSt3__14listINS_4pairIcPKcEENS_9allocatorIS4_EEE5beginB8ne180100Ev
FNL:34,776,776
FNA:34,0,_ZNSt3__14listINS_4pairIcPKcEENS_9allocatorIS4_EEE3endB8ne180100Ev
FNL:35,972,977
FNA:35,0,_ZNSt3__14listINS_4pairIcPKcEENS_9allocatorIS4_EEE12__link_nodesEPNS_16__list_node_baseIS4_PvEESB_SB_
FNL:36,990,995
FNA:36,0,_ZNSt3__14listINS_4pairIcPKcEENS_9allocatorIS4_EEE20__link_nodes_at_backEPNS_16__list_node_baseIS4_PvEESB_
FNF:37
FNH:0
DA:285,0
DA:302,0
DA:303,0
DA:304,0
DA:306,0
DA:307,0
DA:309,0
DA:311,0
DA:326,0
DA:339,0
DA:340,0
DA:342,0
DA:359,0
DA:432,0
DA:433,0
DA:436,0
DA:437,0
DA:440,0
DA:441,0
DA:442,0
DA:460,0
DA:461,0
DA:463,0
DA:464,0
DA:505,0
DA:506,0
DA:509,0
DA:510,0
DA:511,0
DA:519,0
DA:527,0
DA:529,0
DA:531,0
DA:554,0
DA:555,0
DA:556,0
DA:563,0
DA:566,0
DA:567,0
DA:568,0
DA:569,0
DA:572,0
DA:575,0
DA:576,0
DA:577,0
DA:578,0
DA:579,0
DA:600,0
DA:601,0
DA:602,0
DA:603,0
DA:606,0
DA:607,0
DA:621,0
DA:622,0
DA:623,0
DA:626,0
DA:627,0
DA:628,0
DA:629,0
DA:630,0
DA:631,0
DA:632,0
DA:633,0
DA:634,0
DA:635,0
DA:637,0
DA:638,0
DA:702,0
DA:769,0
DA:774,0
DA:776,0
DA:972,0
DA:973,0
DA:974,0
DA:975,0
DA:976,0
DA:977,0
DA:990,0
DA:991,0
DA:992,0
DA:993,0
DA:994,0
DA:995,0
DA:1273,0
DA:1274,0
DA:1275,0
DA:1276,0
DA:1277,0
DA:1278,0
DA:1453,0
DA:1456,0
DA:1457,0
DA:1458,0
DA:1459,0
DA:1460,0
DA:1461,0
DA:1462,0
DA:1463,0
DA:1464,0
LF:100
LH:0
end_of_record
TN:
SF:/Library/Developer/CommandLineTools/SDKs/MacOSX15.1.sdk/usr/include/c++/v1/locale
FNL:0,1240,1278
FNA:0,11984,_ZNSt3__116__pad_and_outputB8ne180100IcNS_11char_traitsIcEEEENS_19ostreambuf_iteratorIT_T0_EES6_PKS4_S8_S8_RNS_8ios_baseES4_
FNF:1
FNH:1
DA:1240,11984
DA:1247,11984
DA:1248,0
DA:1249,11984
DA:1250,11984
DA:1251,11984
DA:1252,0
DA:1254,11984
DA:1255,11984
DA:1256,11984
DA:1257,0
DA:1258,0
DA:1259,0
DA:1261,0
DA:1262,11984
DA:1263,0
DA:1264,0
DA:1265,0
DA:1266,0
DA:1268,0
DA:1269,11984
DA:1270,11984
DA:1271,11984
DA:1272,0
DA:1273,0
DA:1275,11984
DA:1276,11984
DA:1277,11984
DA:1278,11984
LF:29
LH:16
end_of_record
TN:
SF:/Library/Developer/CommandLineTools/SDKs/MacOSX15.1.sdk/usr/include/c++/v1/map
FNL:0,1029,1032
FNA:0,26,_ZNSt3__13mapINS_12basic_stringIcNS_11char_traitsIcEENS_9allocatorIcEEEEN7testing8internal34TypeParameterizedTestSuiteRegistry30TypeParameterizedTestSuiteInfoENS_4lessIS6_EENS4_INS_4pairIKS6_SA_EEEEEC1B8ne180100Ev
FNA:0,26,_ZNSt3__13mapINS_12basic_stringIcNS_11char_traitsIcEENS_9allocatorIcEEEEN7testing8internal34TypeParameterizedTestSuiteRegistry30TypeParameterizedTestSuiteInfoENS_4lessIS6_EENS4_INS_4pairIKS6_SA_EEEEEC2B8ne180100Ev
FNA:0,0,_ZNSt3__13mapINS_12basic_stringIcNS_11char_traitsIcEENS_9allocatorIcEEEEmNS_4lessIS6_EENS4_INS_4pairIKS6_mEEEEEC1B8ne180100Ev
FNA:0,0,_ZNSt3__13mapINS_12basic_stringIcNS_11char_traitsIcEENS_9allocatorIcEEEEmNS_4lessIS6_EENS4_INS_4pairIKS6_mEEEEEC2B8ne180100Ev
FNL:1,1135,1135
FNA:1,0,_ZNSt3__13mapINS_12basic_stringIcNS_11char_traitsIcEENS_9allocatorIcEEEEN7testing8internal34TypeParameterizedTestSuiteRegistry30TypeParameterizedTestSuiteInfoENS_4lessIS6_EENS4_INS_4pairIKS6_SA_EEEEED1B8ne180100Ev
FNA:1,0,_ZNSt3__13mapINS_12basic_stringIcNS_11char_traitsIcEENS_9allocatorIcEEEEN7testing8internal34TypeParameterizedTestSuiteRegistry30TypeParameterizedTestSuiteInfoENS_4lessIS6_EENS4_INS_4pairIKS6_SA_EEEEED2B8ne180100Ev
FNA:1,0,_ZNSt3__13mapINS_12basic_stringIcNS_11char_traitsIcEENS_9allocatorIcEEEEmNS_4lessIS6_EENS4_INS_4pairIKS6_mEEEEED1B8ne180100Ev
FNA:1,0,_ZNSt3__13mapINS_12basic_stringIcNS_11char_traitsIcEENS_9allocatorIcEEEEmNS_4lessIS6_EENS4_INS_4pairIKS6_mEEEEED2B8ne180100Ev
FNL:2,1137,1137
FNA:2,0,_ZNSt3__13mapINS_12basic_stringIcNS_11char_traitsIcEENS_9allocatorIcEEEEN7testing8internal12CodeLocationENS_4lessIS6_EENS4_INS_4pairIKS6_S9_EEEEE5beginB8ne180100Ev
FNA:2,26,_ZNSt3__13mapINS_12basic_stringIcNS_11char_traitsIcEENS_9allocatorIcEEEEN7testing8internal34TypeParameterizedTestSuiteRegistry30TypeParameterizedTestSuiteInfoENS_4lessIS6_EENS4_INS_4pairIKS6_SA_EEEEE5beginB8ne180100Ev
FNL:3,1139,1139
FNA:3,0,_ZNSt3__13mapINS_12basic_stringIcNS_11char_traitsIcEENS_9allocatorIcEEEEN7testing8internal12CodeLocationENS_4lessIS6_EENS4_INS_4pairIKS6_S9_EEEEE3endB8ne180100Ev
FNA:3,26,_ZNSt3__13mapINS_12basic_stringIcNS_11char_traitsIcEENS_9allocatorIcEEEEN7testing8internal34TypeParameterizedTestSuiteRegistry30TypeParameterizedTestSuiteInfoENS_4lessIS6_EENS4_INS_4pairIKS6_SA_EEEEE3endB8ne180100Ev
FNA:3,0,_ZNSt3__13mapINS_12basic_stringIcNS_11char_traitsIcEENS_9allocatorIcEEEEmNS_4lessIS6_EENS4_INS_4pairIKS6_mEEEEE3endB8ne180100Ev
FNL:4,1153,1153
FNA:4,0,_ZNKSt3__13mapINS_12basic_stringIcNS_11char_traitsIcEENS_9allocatorIcEEEEmNS_4lessIS6_EENS4_INS_4pairIKS6_mEEEEE4sizeB8ne180100Ev
FNL:5,1170,1171
FNA:5,0,_ZNSt3__13mapINS_12basic_stringIcNS_11char_traitsIcEENS_9allocatorIcEEEEN7testing8internal34TypeParameterizedTestSuiteRegistry30TypeParameterizedTestSuiteInfoENS_4lessIS6_EENS4_INS_4pairIKS6_SA_EEEEE7emplaceB8ne180100IJS6_SA_EEENSD_INS_14__map_iteratorINS_15__tree_iteratorINS_12__value_typeIS6_SA_EEPNS_11__tree_nodeISM_PvEElEEEEbEEDpOT_
FNL:6,1367,1367
FNA:6,0,_ZNSt3__13mapINS_12basic_stringIcNS_11char_traitsIcEENS_9allocatorIcEEEEN7testing8internal34TypeParameterizedTestSuiteRegistry30TypeParameterizedTestSuiteInfoENS_4lessIS6_EENS4_INS_4pairIKS6_SA_EEEEE4findB8ne180100ERSE_
FNA:6,0,_ZNSt3__13mapINS_12basic_stringIcNS_11char_traitsIcEENS_9allocatorIcEEEEmNS_4lessIS6_EENS4_INS_4pairIKS6_mEEEEE4findB8ne180100ERSA_
FNL:7,1380,1380
FNA:7,0,_ZNKSt3__13mapINS_12basic_stringIcNS_11char_traitsIcEENS_9allocatorIcEEEEN7testing8internal12CodeLocationENS_4lessIS6_EENS4_INS_4pairIKS6_S9_EEEEE5countB8ne180100ERSD_
FNL:8,1517,1521
FNA:8,0,_ZNSt3__13mapINS_12basic_stringIcNS_11char_traitsIcEENS_9allocatorIcEEEEmNS_4lessIS6_EENS4_INS_4pairIKS6_mEEEEEixERSA_
FNL:9,633,634
FNA:9,26,_ZNSt3__119__map_value_compareINS_12basic_stringIcNS_11char_traitsIcEENS_9allocatorIcEEEENS_12__value_typeIS6_N7testing8internal34TypeParameterizedTestSuiteRegistry30TypeParameterizedTestSuiteInfoEEENS_4lessIS6_EELb1EEC1B8ne180100ESE_
FNA:9,26,_ZNSt3__119__map_value_compareINS_12basic_stringIcNS_11char_traitsIcEENS_9allocatorIcEEEENS_12__value_typeIS6_N7testing8internal34TypeParameterizedTestSuiteRegistry30TypeParameterizedTestSuiteInfoEEENS_4lessIS6_EELb1EEC2B8ne180100ESE_
FNA:9,0,_ZNSt3__119__map_value_compareINS_12basic_stringIcNS_11char_traitsIcEENS_9allocatorIcEEEENS_12__value_typeIS6_mEENS_4lessIS6_EELb1EEC1B8ne180100ESA_
FNA:9,0,_ZNSt3__119__map_value_compareINS_12basic_stringIcNS_11char_traitsIcEENS_9allocatorIcEEEENS_12__value_typeIS6_mEENS_4lessIS6_EELb1EEC2B8ne180100ESA_
FNL:10,639,640
FNA:10,0,_ZNKSt3__119__map_value_compareINS_12basic_stringIcNS_11char_traitsIcEENS_9allocatorIcEEEENS_12__value_typeIS6_N7testing8internal12CodeLocationEEENS_4lessIS6_EELb1EEclB8ne180100ERKSB_RKS6_
FNA:10,0,_ZNKSt3__119__map_value_compareINS_12basic_stringIcNS_11char_traitsIcEENS_9allocatorIcEEEENS_12__value_typeIS6_N7testing8internal34TypeParameterizedTestSuiteRegistry30TypeParameterizedTestSuiteInfoEEENS_4lessIS6_EELb1EEclB8ne180100ERKSC_RKS6_
FNA:10,0,_ZNKSt3__119__map_value_compareINS_12basic_stringIcNS_11char_traitsIcEENS_9allocatorIcEEEENS_12__value_typeIS6_mEENS_4lessIS6_EELb1EEclB8ne180100ERKS8_RKS6_
FNL:11,642,643
FNA:11,0,_ZNKSt3__119__map_value_compareINS_12basic_stringIcNS_11char_traitsIcEENS_9allocatorIcEEEENS_12__value_typeIS6_N7testing8internal12CodeLocationEEENS_4lessIS6_EELb1EEclB8ne180100ERKS6_RKSB_
FNA:11,0,_ZNKSt3__119__map_value_compareINS_12basic_stringIcNS_11char_traitsIcEENS_9allocatorIcEEEENS_12__value_typeIS6_N7testing8internal34TypeParameterizedTestSuiteRegistry30TypeParameterizedTestSuiteInfoEEENS_4lessIS6_EELb1EEclB8ne180100ERKS6_RKSC_
FNA:11,0,_ZNKSt3__119__map_value_compareINS_12basic_stringIcNS_11char_traitsIcEENS_9allocatorIcEEEENS_12__value_typeIS6_mEENS_4lessIS6_EELb1EEclB8ne180100ERKS6_RKS8_
FNL:12,770,772
FNA:12,0,_ZNSt3__112__value_typeINS_12basic_stringIcNS_11char_traitsIcEENS_9allocatorIcEEEEN7testing8internal34TypeParameterizedTestSuiteRegistry30TypeParameterizedTestSuiteInfoEE11__get_valueB8ne180100Ev
FNA:12,0,_ZNSt3__112__value_typeINS_12basic_stringIcNS_11char_traitsIcEENS_9allocatorIcEEEEmE11__get_valueB8ne180100Ev
FNL:13,778,780
FNA:13,0,_ZNKSt3__112__value_typeINS_12basic_stringIcNS_11char_traitsIcEENS_9allocatorIcEEEEN7testing8internal12CodeLocationEE11__get_valueB8ne180100Ev
FNA:13,0,_ZNKSt3__112__value_typeINS_12basic_stringIcNS_11char_traitsIcEENS_9allocatorIcEEEEN7testing8internal34TypeParameterizedTestSuiteRegistry30TypeParameterizedTestSuiteInfoEE11__get_valueB8ne180100Ev
FNA:13,0,_ZNKSt3__112__value_typeINS_12basic_stringIcNS_11char_traitsIcEENS_9allocatorIcEEEEmE11__get_valueB8ne180100Ev
FNL:14,868,868
FNA:14,0,_ZNSt3__114__map_iteratorINS_15__tree_iteratorINS_12__value_typeINS_12basic_stringIcNS_11char_traitsIcEENS_9allocatorIcEEEEN7testing8internal12CodeLocationEEEPNS_11__tree_nodeISC_PvEElEEEC1B8ne180100ESH_
FNA:14,0,_ZNSt3__114__map_iteratorINS_15__tree_iteratorINS_12__value_typeINS_12basic_stringIcNS_11char_traitsIcEENS_9allocatorIcEEEEN7testing8internal12CodeLocationEEEPNS_11__tree_nodeISC_PvEElEEEC2B8ne180100ESH_
FNA:14,52,_ZNSt3__114__map_iteratorINS_15__tree_iteratorINS_12__value_typeINS_12basic_stringIcNS_11char_traitsIcEENS_9allocatorIcEEEEN7testing8internal34TypeParameterizedTestSuiteRegistry30TypeParameterizedTestSuiteInfoEEEPNS_11__tree_nodeISD_PvEElEEEC1B8ne180100ESI_
FNA:14,52,_ZNSt3__114__map_iteratorINS_15__tree_iteratorINS_12__value_typeINS_12basic_stringIcNS_11char_traitsIcEENS_9allocatorIcEEEEN7testing8internal34TypeParameterizedTestSuiteRegistry30TypeParameterizedTestSuiteInfoEEEPNS_11__tree_nodeISD_PvEElEEEC2B8ne180100ESI_
FNA:14,0,_ZNSt3__114__map_iteratorINS_15__tree_iteratorINS_12__value_typeINS_12basic_stringIcNS_11char_traitsIcEENS_9allocatorIcEEEEmEEPNS_11__tree_nodeIS9_PvEElEEEC1B8ne180100ESE_
FNA:14,0,_ZNSt3__114__map_iteratorINS_15__tree_iteratorINS_12__value_typeINS_12basic_stringIcNS_11char_traitsIcEENS_9allocatorIcEEEEmEEPNS_11__tree_nodeIS9_PvEElEEEC2B8ne180100ESE_
FNL:15,870,870
FNA:15,0,_ZNKSt3__114__map_iteratorINS_15__tree_iteratorINS_12__value_typeINS_12basic_stringIcNS_11char_traitsIcEENS_9allocatorIcEEEEN7testing8internal34TypeParameterizedTestSuiteRegistry30TypeParameterizedTestSuiteInfoEEEPNS_11__tree_nodeISD_PvEElEEEdeB8ne180100Ev
FNL:16,871,871
FNA:16,0,_ZNKSt3__114__map_iteratorINS_15__tree_iteratorINS_12__value_typeINS_12basic_stringIcNS_11char_traitsIcEENS_9allocatorIcEEEEN7testing8internal34TypeParameterizedTestSuiteRegistry30TypeParameterizedTestSuiteInfoEEEPNS_11__tree_nodeISD_PvEElEEEptB8ne180100Ev
FNA:16,0,_ZNKSt3__114__map_iteratorINS_15__tree_iteratorINS_12__value_typeINS_12basic_stringIcNS_11char_traitsIcEENS_9allocatorIcEEEEmEEPNS_11__tree_nodeIS9_PvEElEEEptB8ne180100Ev
FNL:17,873,875
FNA:17,0,_ZNSt3__114__map_iteratorINS_15__tree_iteratorINS_12__value_typeINS_12basic_stringIcNS_11char_traitsIcEENS_9allocatorIcEEEEN7testing8internal34TypeParameterizedTestSuiteRegistry30TypeParameterizedTestSuiteInfoEEEPNS_11__tree_nodeISD_PvEElEEEppB8ne180100Ev
FNL:18,896,897
FNA:18,26,_ZNSt3__1neB8ne180100ERKNS_14__map_iteratorINS_15__tree_iteratorINS_12__value_typeINS_12basic_stringIcNS_11char_traitsIcEENS_9allocatorIcEEEEN7testing8internal34TypeParameterizedTestSuiteRegistry30TypeParameterizedTestSuiteInfoEEEPNS_11__tree_nodeISD_PvEElEEEESL_
FNA:18,0,_ZNSt3__1neB8ne180100ERKNS_14__map_iteratorINS_15__tree_iteratorINS_12__value_typeINS_12basic_stringIcNS_11char_traitsIcEENS_9allocatorIcEEEEmEEPNS_11__tree_nodeIS9_PvEElEEEESH_
FNL:19,926,926
FNA:19,0,_ZNSt3__120__map_const_iteratorINS_21__tree_const_iteratorINS_12__value_typeINS_12basic_stringIcNS_11char_traitsIcEENS_9allocatorIcEEEEN7testing8internal12CodeLocationEEEPNS_11__tree_nodeISC_PvEElEEEC1B8ne180100ENS_14__map_iteratorINS_15__tree_iteratorISC_SG_lEEEE
FNA:19,0,_ZNSt3__120__map_const_iteratorINS_21__tree_const_iteratorINS_12__value_typeINS_12basic_stringIcNS_11char_traitsIcEENS_9allocatorIcEEEEN7testing8internal12CodeLocationEEEPNS_11__tree_nodeISC_PvEElEEEC2B8ne180100ENS_14__map_iteratorINS_15__tree_iteratorISC_SG_lEEEE
FNL:20,929,929
FNA:20,0,_ZNKSt3__120__map_const_iteratorINS_21__tree_const_iteratorINS_12__value_typeINS_12basic_stringIcNS_11char_traitsIcEENS_9allocatorIcEEEEN7testing8internal12CodeLocationEEEPNS_11__tree_nodeISC_PvEElEEEptB8ne180100Ev
FNL:21,931,933
FNA:21,0,_ZNSt3__120__map_const_iteratorINS_21__tree_const_iteratorINS_12__value_typeINS_12basic_stringIcNS_11char_traitsIcEENS_9allocatorIcEEEEN7testing8internal12CodeLocationEEEPNS_11__tree_nodeISC_PvEElEEEppB8ne180100Ev
FNL:22,954,955
FNA:22,0,_ZNSt3__1neB8ne180100ERKNS_20__map_const_iteratorINS_21__tree_const_iteratorINS_12__value_typeINS_12basic_stringIcNS_11char_traitsIcEENS_9allocatorIcEEEEN7testing8internal12CodeLocationEEEPNS_11__tree_nodeISC_PvEElEEEESK_
FNF:23
FNH:6
DA:633,52
DA:634,52
DA:639,0
DA:640,0
DA:642,0
DA:643,0
DA:770,0
DA:772,0
DA:778,0
DA:780,0
DA:868,104
DA:870,0
DA:871,0
DA:873,0
DA:874,0
DA:875,0
DA:896,26
DA:897,26
DA:926,0
DA:929,0
DA:931,0
DA:932,0
DA:933,0
DA:954,0
DA:955,0
DA:1029,52
DA:1032,52
DA:1135,0
DA:1137,26
DA:1139,26
DA:1153,0
DA:1170,0
DA:1171,0
DA:1367,0
DA:1380,0
DA:1517,0
DA:1518,0
DA:1519,0
DA:1520,0
DA:1521,0
LF:40
LH:9
end_of_record
TN:
SF:/Library/Developer/CommandLineTools/SDKs/MacOSX15.1.sdk/usr/include/c++/v1/new
FNL:0,173,175
FNA:0,0,_ZSt28__throw_bad_array_new_lengthB8ne180100v
FNL:1,292,294
FNA:1,1348,_ZNSt3__124__is_overaligned_for_newB8ne180100Em
FNL:2,301,303
FNA:2,752,_ZNSt3__121__libcpp_operator_newB8ne180100IJmEEEPvDpT_
FNA:2,0,_ZNSt3__121__libcpp_operator_newB8ne180100IJmSt11align_val_tEEEPvDpT_
FNL:3,310,316
FNA:3,596,_ZNSt3__124__libcpp_operator_deleteB8ne180100IJPvEEEvDpT_
FNA:3,0,_ZNSt3__124__libcpp_operator_deleteB8ne180100IJPvSt11align_val_tEEEvDpT_
FNL:4,318,328
FNA:4,752,_ZNSt3__117__libcpp_allocateB8ne180100Emm
FNL:5,331,334
FNA:5,596,_ZNSt3__127__do_deallocate_handle_sizeB8ne180100IJEEEvPvmDpT_
FNA:5,0,_ZNSt3__127__do_deallocate_handle_sizeB8ne180100IJSt11align_val_tEEEvPvmDpT_
FNL:6,340,352
FNA:6,596,_ZNSt3__119__libcpp_deallocateB8ne180100EPvmm
FNL:7,369,372
FNA:7,0,_ZNSt3__19__launderB8ne180100IKNS_4pairIKNS_12basic_stringIcNS_11char_traitsIcEENS_9allocatorIcEEEEN7testing8internal12CodeLocationEEEEEPT_SF_
FNA:7,0,_ZNSt3__19__launderB8ne180100IKNS_4pairIKNS_12basic_stringIcNS_11char_traitsIcEENS_9allocatorIcEEEEN7testing8internal34TypeParameterizedTestSuiteRegistry30TypeParameterizedTestSuiteInfoEEEEEPT_SG_
FNA:7,0,_ZNSt3__19__launderB8ne180100IKNS_4pairIKNS_12basic_stringIcNS_11char_traitsIcEENS_9allocatorIcEEEEmEEEEPT_SC_
FNA:7,0,_ZNSt3__19__launderB8ne180100INS_4pairIKNS_12basic_stringIcNS_11char_traitsIcEENS_9allocatorIcEEEEN7testing8internal34TypeParameterizedTestSuiteRegistry30TypeParameterizedTestSuiteInfoEEEEEPT_SF_
FNA:7,0,_ZNSt3__19__launderB8ne180100INS_4pairIKNS_12basic_stringIcNS_11char_traitsIcEENS_9allocatorIcEEEEmEEEEPT_SB_
FNL:8,377,378
FNA:8,0,_ZNSt3__17launderB8ne180100IKNS_4pairIKNS_12basic_stringIcNS_11char_traitsIcEENS_9allocatorIcEEEEN7testing8internal12CodeLocationEEEEEPT_SF_
FNA:8,0,_ZNSt3__17launderB8ne180100IKNS_4pairIKNS_12basic_stringIcNS_11char_traitsIcEENS_9allocatorIcEEEEN7testing8internal34TypeParameterizedTestSuiteRegistry30TypeParameterizedTestSuiteInfoEEEEEPT_SG_
FNA:8,0,_ZNSt3__17launderB8ne180100IKNS_4pairIKNS_12basic_stringIcNS_11char_traitsIcEENS_9allocatorIcEEEEmEEEEPT_SC_
FNA:8,0,_ZNSt3__17launderB8ne180100INS_4pairIKNS_12basic_stringIcNS_11char_traitsIcEENS_9allocatorIcEEEEN7testing8internal34TypeParameterizedTestSuiteRegistry30TypeParameterizedTestSuiteInfoEEEEEPT_SF_
FNA:8,0,_ZNSt3__17launderB8ne180100INS_4pairIKNS_12basic_stringIcNS_11char_traitsIcEENS_9allocatorIcEEEEmEEEEPT_SB_
FNF:9
FNH:6
DA:173,0
DA:175,0
DA:292,1348
DA:294,1348
DA:301,752
DA:303,752
DA:310,596
DA:312,596
DA:316,596
DA:318,752
DA:320,752
DA:321,0
DA:322,0
DA:327,752
DA:328,752
DA:331,596
DA:334,596
DA:340,596
DA:345,596
DA:346,0
DA:347,0
DA:349,596
DA:352,596
DA:369,0
DA:372,0
DA:377,0
DA:378,0
LF:27
LH:17
end_of_record
TN:
SF:/Library/Developer/CommandLineTools/SDKs/MacOSX15.1.sdk/usr/include/c++/v1/ostream
FNL:0,218,220
FNA:0,0,_ZNSt3__113basic_ostreamIcNS_11char_traitsIcEEEC2B8ne180100EPNS_15basic_streambufIcS2_EE
FNL:1,241,242
FNA:1,0,_ZNSt3__113basic_ostreamIcNS_11char_traitsIcEEElsB8ne180100EPFRS3_S4_E
FNL:2,251,253
FNA:2,0,_ZNSt3__113basic_ostreamIcNS_11char_traitsIcEEElsB8ne180100EPFRNS_8ios_baseES5_E
FNL:3,295,295
FNA:3,1470,_ZNSt3__113basic_ostreamIcNS_11char_traitsIcEEEC2B8ne180100Ev
FNL:4,309,309
FNA:4,11984,_ZNKSt3__113basic_ostreamIcNS_11char_traitsIcEEE6sentrycvbB8ne180100Ev
FNL:5,667,690
FNA:5,11984,_ZNSt3__124__put_character_sequenceB8ne180100IcNS_11char_traitsIcEEEERNS_13basic_ostreamIT_T0_EES7_PKS4_m
FNL:6,725,726
FNA:6,10764,_ZNSt3__1lsB8ne180100INS_11char_traitsIcEEEERNS_13basic_ostreamIcT_EES6_c
FNL:7,786,787
FNA:7,1220,_ZNSt3__1lsB8ne180100INS_11char_traitsIcEEEERNS_13basic_ostreamIcT_EES6_PKc
FNL:8,891,894
FNA:8,0,_ZNSt3__14endlB8ne180100IcNS_11char_traitsIcEEEERNS_13basic_ostreamIT_T0_EES7_
FNL:9,925,926
FNA:9,0,_ZNSt3__1lsB8ne180100IcNS_11char_traitsIcEENS_9allocatorIcEEEERNS_13basic_ostreamIT_T0_EES9_RKNS_12basic_stringIS6_S7_T1_EE
FNF:10
FNH:5
DA:218,0
DA:219,0
DA:220,0
DA:241,0
DA:242,0
DA:251,0
DA:252,0
DA:253,0
DA:295,1470
DA:309,11984
DA:667,11984
DA:671,11984
DA:672,11984
DA:674,11984
DA:675,11984
DA:676,11984
DA:677,11984
DA:678,11984
DA:679,11984
DA:680,11984
DA:681,11984
DA:682,0
DA:683,11984
DA:685,11984
DA:686,0
DA:687,0
DA:689,11984
DA:690,0
DA:725,10764
DA:726,10764
DA:786,1220
DA:787,1220
DA:891,0
DA:892,0
DA:893,0
DA:894,0
DA:925,0
DA:926,0
LF:38
LH:20
end_of_record
TN:
SF:/Library/Developer/CommandLineTools/SDKs/MacOSX15.1.sdk/usr/include/c++/v1/set
FNL:0,608,611
FNA:0,26,_ZNSt3__13setINS_12basic_stringIcNS_11char_traitsIcEENS_9allocatorIcEEEENS_4lessIS6_EENS4_IS6_EEEC1B8ne180100Ev
FNA:0,26,_ZNSt3__13setINS_12basic_stringIcNS_11char_traitsIcEENS_9allocatorIcEEEENS_4lessIS6_EENS4_IS6_EEEC2B8ne180100Ev
FNL:1,702,702
FNA:1,0,_ZNSt3__13setINS_12basic_stringIcNS_11char_traitsIcEENS_9allocatorIcEEEENS_4lessIS6_EENS4_IS6_EEED1B8ne180100Ev
FNA:1,0,_ZNSt3__13setINS_12basic_stringIcNS_11char_traitsIcEENS_9allocatorIcEEEENS_4lessIS6_EENS4_IS6_EEED2B8ne180100Ev
FNL:2,707,707
FNA:2,0,_ZNKSt3__13setINS_12basic_stringIcNS_11char_traitsIcEENS_9allocatorIcEEEENS_4lessIS6_EENS4_IS6_EEE3endB8ne180100Ev
FNL:3,735,735
FNA:3,0,_ZNSt3__13setINS_12basic_stringIcNS_11char_traitsIcEENS_9allocatorIcEEEENS_4lessIS6_EENS4_IS6_EEE6insertB8ne180100ERKS6_
FNL:4,757,758
FNA:4,0,_ZNSt3__13setINS_12basic_stringIcNS_11char_traitsIcEENS_9allocatorIcEEEENS_4lessIS6_EENS4_IS6_EEE6insertB8ne180100EOS6_
FNL:5,826,826
FNA:5,0,_ZNKSt3__13setINS_12basic_stringIcNS_11char_traitsIcEENS_9allocatorIcEEEENS_4lessIS6_EENS4_IS6_EEE4findB8ne180100ERKS6_
FNL:6,838,838
FNA:6,0,_ZNKSt3__13setINS_12basic_stringIcNS_11char_traitsIcEENS_9allocatorIcEEEENS_4lessIS6_EENS4_IS6_EEE5countB8ne180100ERKS6_
FNF:7
FNH:1
DA:608,52
DA:611,52
DA:702,0
DA:707,0
DA:735,0
DA:757,0
DA:758,0
DA:826,0
DA:838,0
LF:9
LH:2
end_of_record
TN:
SF:/Library/Developer/CommandLineTools/SDKs/MacOSX15.1.sdk/usr/include/c++/v1/sstream
FNL:0,1009,1010
FNA:0,1470,_ZNSt3__118basic_stringstreamIcNS_11char_traitsIcEENS_9allocatorIcEEEC1B8ne180100Ev
FNL:1,1065,1065
FNA:1,1470,_ZNKSt3__118basic_stringstreamIcNS_11char_traitsIcEENS_9allocatorIcEEE3strB8ne180100Ev
FNL:2,1101
FNA:2,0,_ZNSt3__115basic_stringbufIcNS_11char_traitsIcEENS_9allocatorIcEEED1Ev
FNA:2,0,_ZNSt3__115basic_stringbufIcNS_11char_traitsIcEENS_9allocatorIcEEED2Ev
FNL:3,1102
FNA:3,0,_ZNSt3__118basic_stringstreamIcNS_11char_traitsIcEENS_9allocatorIcEEED1Ev
FNA:3,0,_ZNSt3__118basic_stringstreamIcNS_11char_traitsIcEENS_9allocatorIcEEED2Ev
FNL:4,1103
FNA:4,0,_ZNSt3__119basic_ostringstreamIcNS_11char_traitsIcEENS_9allocatorIcEEED1Ev
FNA:4,0,_ZNSt3__119basic_ostringstreamIcNS_11char_traitsIcEENS_9allocatorIcEEED2Ev
FNL:5,325,325
FNA:5,1470,_ZNSt3__115basic_stringbufIcNS_11char_traitsIcEENS_9allocatorIcEEEC1B8ne180100Ej
FNA:5,1470,_ZNSt3__115basic_stringbufIcNS_11char_traitsIcEENS_9allocatorIcEEEC2B8ne180100Ej
FNL:6,901,901
FNA:6,0,_ZNSt3__119basic_ostringstreamIcNS_11char_traitsIcEENS_9allocatorIcEEEC1B8ne180100Ev
FNL:7,955,955
FNA:7,0,_ZNKSt3__119basic_ostringstreamIcNS_11char_traitsIcEENS_9allocatorIcEEE3strB8ne180100Ev
FNF:8
FNH:3
DA:325,2940
DA:901,0
DA:955,0
DA:1009,2940
DA:1010,2940
DA:1065,1470
LF:6
LH:4
end_of_record
TN:
SF:/Library/Developer/CommandLineTools/SDKs/MacOSX15.1.sdk/usr/include/c++/v1/stdexcept
FNL:0,153,153
FNA:0,0,_ZNSt12length_errorC1B8ne180100EPKc
FNA:0,0,_ZNSt12length_errorC2B8ne180100EPKc
FNL:1,164,164
FNA:1,6,_ZNSt12out_of_rangeC1B8ne180100EPKc
FNA:1,6,_ZNSt12out_of_rangeC2B8ne180100EPKc
FNL:2,240,249
FNA:2,0,_ZNSt3__120__throw_length_errorB8ne180100EPKc
FNL:3,251,260
FNA:3,0,_ZNSt3__120__throw_out_of_rangeB8ne180100EPKc
FNF:4
FNH:1
DA:153,0
DA:164,12
DA:240,0
DA:242,0
DA:249,0
DA:251,0
DA:253,0
DA:260,0
LF:8
LH:1
end_of_record
TN:
SF:/Library/Developer/CommandLineTools/SDKs/MacOSX15.1.sdk/usr/include/c++/v1/streambuf
FNL:0,218,219
FNA:0,11984,_ZNSt3__115basic_streambufIcNS_11char_traitsIcEEE5sputnB8ne180100EPKcl
FNF:1
FNH:1
DA:218,11984
DA:219,11984
LF:2
LH:2
end_of_record
TN:
SF:/Library/Developer/CommandLineTools/SDKs/MacOSX15.1.sdk/usr/include/c++/v1/string
FNL:0,1047,1051
FNA:0,0,_ZNSt3__112basic_stringIcNS_11char_traitsIcEENS_9allocatorIcEEEC1INS_17basic_string_viewIcS2_EELi0EEERKT_
FNA:0,0,_ZNSt3__112basic_stringIcNS_11char_traitsIcEENS_9allocatorIcEEEC2INS_17basic_string_viewIcS2_EELi0EEERKT_
FNL:1,1065,1068
FNA:1,0,_ZNSt3__112basic_stringIcNS_11char_traitsIcEENS_9allocatorIcEEEC1B8ne180100IPKcLi0EEET_S9_
FNA:1,0,_ZNSt3__112basic_stringIcNS_11char_traitsIcEENS_9allocatorIcEEEC2B8ne180100IPKcLi0EEET_S9_
FNL:2,1108,1109
FNA:2,0,_ZNKSt3__112basic_stringIcNS_11char_traitsIcEENS_9allocatorIcEEEcvNS_17basic_string_viewIcS2_EEB8ne180100Ev
FNL:3,1125,1128
FNA:3,0,_ZNSt3__112basic_stringIcNS_11char_traitsIcEENS_9allocatorIcEEEaSB8ne180100EOS5_
FNL:4,1135,1136
FNA:4,25,_ZNSt3__112basic_stringIcNS_11char_traitsIcEENS_9allocatorIcEEEaSB8ne180100EPKc
FNL:5,1143,1144
FNA:5,286,_ZNSt3__112basic_stringIcNS_11char_traitsIcEENS_9allocatorIcEEE5beginB8ne180100Ev
FNL:6,1146,1147
FNA:6,130,_ZNKSt3__112basic_stringIcNS_11char_traitsIcEENS_9allocatorIcEEE5beginB8ne180100Ev
FNL:7,1149,1150
FNA:7,52,_ZNSt3__112basic_stringIcNS_11char_traitsIcEENS_9allocatorIcEEE3endB8ne180100Ev
FNL:8,1152,1153
FNA:8,130,_ZNKSt3__112basic_stringIcNS_11char_traitsIcEENS_9allocatorIcEEE3endB8ne180100Ev
FNL:9,1176,1177
FNA:9,0,_ZNKSt3__112basic_stringIDiNS_11char_traitsIDiEENS_9allocatorIDiEEE4sizeB8ne180100Ev
FNA:9,0,_ZNKSt3__112basic_stringIDsNS_11char_traitsIDsEENS_9allocatorIDsEEE4sizeB8ne180100Ev
FNA:9,23739,_ZNKSt3__112basic_stringIcNS_11char_traitsIcEENS_9allocatorIcEEE4sizeB8ne180100Ev
FNA:9,0,_ZNKSt3__112basic_stringIwNS_11char_traitsIwEENS_9allocatorIwEEE4sizeB8ne180100Ev
FNL:10,1179,1179
FNA:10,13041,_ZNKSt3__112basic_stringIcNS_11char_traitsIcEENS_9allocatorIcEEE6lengthB8ne180100Ev
FNA:10,0,_ZNKSt3__112basic_stringIwNS_11char_traitsIwEENS_9allocatorIwEEE6lengthB8ne180100Ev
FNL:11,1181,1189
FNA:11,650,_ZNKSt3__112basic_stringIcNS_11char_traitsIcEENS_9allocatorIcEEE8max_sizeB8ne180100Ev
FNL:12,1216,1217
FNA:12,728,_ZNKSt3__112basic_stringIcNS_11char_traitsIcEENS_9allocatorIcEEE5emptyB8ne180100Ev
FNL:13,1220,1226
FNA:13,0,_ZNKSt3__112basic_stringIcNS_11char_traitsIcEENS_9allocatorIcEEEixB8ne180100Em
FNL:14,1239,1240
FNA:14,0,_ZNSt3__112basic_stringIcNS_11char_traitsIcEENS_9allocatorIcEEEpLB8ne180100ERKS5_
FNL:15,1253,1254
FNA:15,0,_ZNSt3__112basic_stringIcNS_11char_traitsIcEENS_9allocatorIcEEEpLB8ne180100EPKc
FNL:16,1257,1259
FNA:16,27524,_ZNSt3__112basic_stringIcNS_11char_traitsIcEENS_9allocatorIcEEEpLB8ne180100Ec
FNL:17,1268,1269
FNA:17,650,_ZNSt3__112basic_stringIcNS_11char_traitsIcEENS_9allocatorIcEEE6appendB8ne180100ERKS5_
FNL:18,1575,1576
FNA:18,156,_ZNKSt3__112basic_stringIcNS_11char_traitsIcEENS_9allocatorIcEEE6substrB8ne180100Emm
FNL:19,1595,1595
FNA:19,24250,_ZNKSt3__112basic_stringIcNS_11char_traitsIcEENS_9allocatorIcEEE5c_strB8ne180100Ev
FNA:19,0,_ZNKSt3__112basic_stringIwNS_11char_traitsIwEENS_9allocatorIwEEE5c_strB8ne180100Ev
FNL:20,1596,1597
FNA:20,0,_ZNKSt3__112basic_stringIDiNS_11char_traitsIDiEENS_9allocatorIDiEEE4dataB8ne180100Ev
FNA:20,0,_ZNKSt3__112basic_stringIDsNS_11char_traitsIDsEENS_9allocatorIDsEEE4dataB8ne180100Ev
FNA:20,29702,_ZNKSt3__112basic_stringIcNS_11char_traitsIcEENS_9allocatorIcEEE4dataB8ne180100Ev
FNA:20,0,_ZNKSt3__112basic_stringIwNS_11char_traitsIwEENS_9allocatorIwEEE4dataB8ne180100Ev
FNL:21,1600,1601
FNA:21,0,_ZNSt3__112basic_stringIcNS_11char_traitsIcEENS_9allocatorIcEEE4dataB8ne180100Ev
FNL:22,1605,1606
FNA:22,650,_ZNKSt3__112basic_stringIcNS_11char_traitsIcEENS_9allocatorIcEEE13get_allocatorB8ne180100Ev
FNL:23,1769,1773
FNA:23,0,_ZNKSt3__112basic_stringIDiNS_11char_traitsIDiEENS_9allocatorIDiEEE9__is_longB8ne180100Ev
FNA:23,0,_ZNKSt3__112basic_stringIDsNS_11char_traitsIDsEENS_9allocatorIDsEEE9__is_longB8ne180100Ev
FNA:23,58636,_ZNKSt3__112basic_stringIcNS_11char_traitsIcEENS_9allocatorIcEEE9__is_longB8ne180100Ev
FNA:23,0,_ZNKSt3__112basic_stringIwNS_11char_traitsIwEENS_9allocatorIwEEE9__is_longB8ne180100Ev
FNL:24,1776,1786
FNA:24,0,_ZNSt3__112basic_stringIcNS_11char_traitsIcEENS_9allocatorIcEEE16__begin_lifetimeB8ne180100EPcm
FNL:25,1788,1788
FNA:25,650,_ZNSt3__112basic_stringIcNS_11char_traitsIcEENS_9allocatorIcEEE13__fits_in_ssoB8ne180100Em
FNL:26,1826,1826
FNA:26,0,_ZNSt3__112basic_stringIcNS_11char_traitsIcEENS_9allocatorIcEEE7__allocB8ne180100Ev
FNL:27,1827,1827
FNA:27,1300,_ZNKSt3__112basic_stringIcNS_11char_traitsIcEENS_9allocatorIcEEE7__allocB8ne180100Ev
FNL:28,1830,1834
FNA:28,650,_ZNSt3__112basic_stringIcNS_11char_traitsIcEENS_9allocatorIcEEE16__set_short_sizeB8ne180100Em
FNL:29,1837,1839
FNA:29,0,_ZNKSt3__112basic_stringIDiNS_11char_traitsIDiEENS_9allocatorIDiEEE16__get_short_sizeB8ne180100Ev
FNA:29,0,_ZNKSt3__112basic_stringIDsNS_11char_traitsIDsEENS_9allocatorIDsEEE16__get_short_sizeB8ne180100Ev
FNA:29,10672,_ZNKSt3__112basic_stringIcNS_11char_traitsIcEENS_9allocatorIcEEE16__get_short_sizeB8ne180100Ev
FNA:29,0,_ZNKSt3__112basic_stringIwNS_11char_traitsIwEENS_9allocatorIwEEE16__get_short_sizeB8ne180100Ev
FNL:30,1842,1844
FNA:30,0,_ZNSt3__112basic_stringIcNS_11char_traitsIcEENS_9allocatorIcEEE15__set_long_sizeB8ne180100Em
FNL:31,1845,1846
FNA:31,0,_ZNKSt3__112basic_stringIDiNS_11char_traitsIDiEENS_9allocatorIDiEEE15__get_long_sizeB8ne180100Ev
FNA:31,0,_ZNKSt3__112basic_stringIDsNS_11char_traitsIDsEENS_9allocatorIDsEEE15__get_long_sizeB8ne180100Ev
FNA:31,13067,_ZNKSt3__112basic_stringIcNS_11char_traitsIcEENS_9allocatorIcEEE15__get_long_sizeB8ne180100Ev
FNA:31,0,_ZNKSt3__112basic_stringIwNS_11char_traitsIwEENS_9allocatorIwEEE15__get_long_sizeB8ne180100Ev
FNL:32,1855,1858
FNA:32,0,_ZNSt3__112basic_stringIcNS_11char_traitsIcEENS_9allocatorIcEEE14__set_long_capB8ne180100Em
FNL:33,1860,1861
FNA:33,0,_ZNKSt3__112basic_stringIcNS_11char_traitsIcEENS_9allocatorIcEEE14__get_long_capB8ne180100Ev
FNL:34,1864,1866
FNA:34,0,_ZNSt3__112basic_stringIcNS_11char_traitsIcEENS_9allocatorIcEEE18__set_long_pointerB8ne180100EPc
FNL:35,1867,1868
FNA:35,338,_ZNSt3__112basic_stringIcNS_11char_traitsIcEENS_9allocatorIcEEE18__get_long_pointerB8ne180100Ev
FNL:36,1870,1871
FNA:36,0,_ZNKSt3__112basic_stringIDiNS_11char_traitsIDiEENS_9allocatorIDiEEE18__get_long_pointerB8ne180100Ev
FNA:36,0,_ZNKSt3__112basic_stringIDsNS_11char_traitsIDsEENS_9allocatorIDsEEE18__get_long_pointerB8ne180100Ev
FNA:36,13384,_ZNKSt3__112basic_stringIcNS_11char_traitsIcEENS_9allocatorIcEEE18__get_long_pointerB8ne180100Ev
FNA:36,0,_ZNKSt3__112basic_stringIwNS_11char_traitsIwEENS_9allocatorIwEEE18__get_long_pointerB8ne180100Ev
FNL:37,1873,1874
FNA:37,650,_ZNSt3__112basic_stringIcNS_11char_traitsIcEENS_9allocatorIcEEE19__get_short_pointerB8ne180100Ev
FNL:38,1876,1877
FNA:38,0,_ZNKSt3__112basic_stringIDiNS_11char_traitsIDiEENS_9allocatorIDiEEE19__get_short_pointerB8ne180100Ev
FNA:38,0,_ZNKSt3__112basic_stringIDsNS_11char_traitsIDsEENS_9allocatorIDsEEE19__get_short_pointerB8ne180100Ev
FNA:38,16578,_ZNKSt3__112basic_stringIcNS_11char_traitsIcEENS_9allocatorIcEEE19__get_short_pointerB8ne180100Ev
FNA:38,0,_ZNKSt3__112basic_stringIwNS_11char_traitsIwEENS_9allocatorIwEEE19__get_short_pointerB8ne180100Ev
FNL:39,1879,1880
FNA:39,988,_ZNSt3__112basic_stringIcNS_11char_traitsIcEENS_9allocatorIcEEE13__get_pointerB8ne180100Ev
FNL:40,1882,1883
FNA:40,0,_ZNKSt3__112basic_stringIDiNS_11char_traitsIDiEENS_9allocatorIDiEEE13__get_pointerB8ne180100Ev
FNA:40,0,_ZNKSt3__112basic_stringIDsNS_11char_traitsIDsEENS_9allocatorIDsEEE13__get_pointerB8ne180100Ev
FNA:40,29962,_ZNKSt3__112basic_stringIcNS_11char_traitsIcEENS_9allocatorIcEEE13__get_pointerB8ne180100Ev
FNA:40,0,_ZNKSt3__112basic_stringIwNS_11char_traitsIwEENS_9allocatorIwEEE13__get_pointerB8ne180100Ev
FNL:41,1904,1910
FNA:41,6686,_ZNKSt3__112basic_stringIcNS_11char_traitsIcEENS_9allocatorIcEEE14__annotate_newB8ne180100Em
FNL:42,1912,1917
FNA:42,927,_ZNKSt3__112basic_stringIcNS_11char_traitsIcEENS_9allocatorIcEEE17__annotate_deleteB8ne180100Ev
FNL:43,1927,1933
FNA:43,0,_ZNKSt3__112basic_stringIcNS_11char_traitsIcEENS_9allocatorIcEEE17__annotate_shrinkB8ne180100Em
FNL:44,1936,1937
FNA:44,0,_ZNSt3__112basic_stringIcNS_11char_traitsIcEENS_9allocatorIcEEE10__align_itB8ne180100ILm8EEEmm
FNL:45,1942,1951
FNA:45,0,_ZNSt3__112basic_stringIcNS_11char_traitsIcEENS_9allocatorIcEEE11__recommendB8ne180100Em
FNL:46,2064,2069
FNA:46,0,_ZNSt3__112basic_stringIcNS_11char_traitsIcEENS_9allocatorIcEEE19__move_assign_allocB8ne180100ERS5_
FNL:47,2071,2074
FNA:47,0,_ZNSt3__112basic_stringIcNS_11char_traitsIcEENS_9allocatorIcEEE19__move_assign_allocB8ne180100ERS5_NS_17integral_constantIbLb1EEE
FNL:48,2112,2113
FNA:48,0,_ZNKSt3__112basic_stringIcNS_11char_traitsIcEENS_9allocatorIcEEE20__throw_length_errorB8ne180100Ev
FNL:49,2304,2307
FNA:49,0,_ZNSt3__112basic_stringIcNS_11char_traitsIcEENS_9allocatorIcEEE6__initIPKcLi0EEEvT_S9_
FNL:50,2312,2347
FNA:50,0,_ZNSt3__112basic_stringIcNS_11char_traitsIcEENS_9allocatorIcEEE16__init_with_sizeB8ne180100IPKcS8_EEvT_T0_m
FNL:51,2562,2605
FNA:51,0,_ZNSt3__112basic_stringIcNS_11char_traitsIcEENS_9allocatorIcEEE13__move_assignB8ne180100ERS5_NS_17integral_constantIbLb1EEE
FNL:52,3140,3146
FNA:52,0,_ZNSt3__112basic_stringIcNS_11char_traitsIcEENS_9allocatorIcEEE5eraseB8ne180100ENS_11__wrap_iterIPKcEE
FNL:53,3151,3156
FNA:53,26,_ZNSt3__112basic_stringIcNS_11char_traitsIcEENS_9allocatorIcEEE5eraseB8ne180100ENS_11__wrap_iterIPKcEES9_
FNL:54,3305,3326
FNA:54,0,_ZNSt3__112basic_stringIcNS_11char_traitsIcEENS_9allocatorIcEEE4swapB8ne180100ERS5_
FNL:55,3347,3348
FNA:55,0,_ZNKSt3__112basic_stringIcNS_11char_traitsIcEENS_9allocatorIcEEE4findB8ne180100ERKS5_m
FNA:55,0,_ZNKSt3__112basic_stringIwNS_11char_traitsIwEENS_9allocatorIwEEE4findB8ne180100ERKS5_m
FNL:56,3361,3364
FNA:56,0,_ZNKSt3__112basic_stringIcNS_11char_traitsIcEENS_9allocatorIcEEE4findB8ne180100EPKcm
FNL:57,3577,3589
FNA:57,0,_ZNKSt3__112basic_stringIcNS_11char_traitsIcEENS_9allocatorIcEEE7compareINS_17basic_string_viewIcS2_EELi0EEEiRKT_
FNL:58,3593,3594
FNA:58,0,_ZNKSt3__112basic_stringIcNS_11char_traitsIcEENS_9allocatorIcEEE7compareB8ne180100ERKS5_
FNL:59,3703,3716
FNA:59,25,_ZNSt3__1eqB8ne180100INS_9allocatorIcEEEEbRKNS_12basic_stringIcNS_11char_traitsIcEET_EES9_
FNL:60,3721,3728
FNA:60,0,_ZNSt3__1eqB8ne180100IcNS_11char_traitsIcEENS_9allocatorIcEEEEbPKT_RKNS_12basic_stringIS5_T0_T1_EE
FNL:61,3733,3744
FNA:61,106,_ZNSt3__1eqB8ne180100IcNS_11char_traitsIcEENS_9allocatorIcEEEEbRKNS_12basic_stringIT_T0_T1_EEPKS6_
FNL:62,3776,3777
FNA:62,26,_ZNSt3__1neB8ne180100IcNS_11char_traitsIcEENS_9allocatorIcEEEEbRKNS_12basic_stringIT_T0_T1_EEPKS6_
FNL:63,3783,3785
FNA:63,0,_ZNSt3__1ltB8ne180100IcNS_11char_traitsIcEENS_9allocatorIcEEEEbRKNS_12basic_stringIT_T0_T1_EESB_
FNL:64,3913,3925
FNA:64,650,_ZNSt3__1plB8ne180100IcNS_11char_traitsIcEENS_9allocatorIcEEEENS_12basic_stringIT_T0_T1_EERKS9_PKS6_
FNL:65,3929,3940
FNA:65,0,_ZNSt3__1plB8ne180100IcNS_11char_traitsIcEENS_9allocatorIcEEEENS_12basic_stringIT_T0_T1_EERKS9_S6_
FNL:66,3946,3947
FNA:66,650,_ZNSt3__1plB8ne180100IcNS_11char_traitsIcEENS_9allocatorIcEEEENS_12basic_stringIT_T0_T1_EEOS9_RKS9_
FNL:67,3958,3959
FNA:67,0,_ZNSt3__1plB8ne180100IcNS_11char_traitsIcEENS_9allocatorIcEEEENS_12basic_stringIT_T0_T1_EEOS9_SA_
FNL:68,3964,3965
FNA:68,0,_ZNSt3__1plB8ne180100IcNS_11char_traitsIcEENS_9allocatorIcEEEENS_12basic_stringIT_T0_T1_EEPKS6_OS9_
FNL:69,3977,3978
FNA:69,820,_ZNSt3__1plB8ne180100IcNS_11char_traitsIcEENS_9allocatorIcEEEENS_12basic_stringIT_T0_T1_EEOS9_PKS6_
FNL:70,3994,3997
FNA:70,0,_ZNSt3__14swapB8ne180100IcNS_11char_traitsIcEENS_9allocatorIcEEEEvRNS_12basic_stringIT_T0_T1_EESA_
FNL:71,4048,4049
FNA:71,2051,_ZNKSt3__113__string_hashIcNS_9allocatorIcEEEclB8ne180100ERKNS_12basic_stringIcNS_11char_traitsIcEES2_EE
FNL:72,845,862
FNA:72,650,_ZNSt3__112basic_stringIcNS_11char_traitsIcEENS_9allocatorIcEEEC1B8ne180100ENS_24__uninitialized_size_tagEmRKS4_
FNA:72,650,_ZNSt3__112basic_stringIcNS_11char_traitsIcEENS_9allocatorIcEEEC2B8ne180100ENS_24__uninitialized_size_tagEmRKS4_
FNL:73,871,871
FNA:73,338,_ZNSt3__112basic_stringIcNS_11char_traitsIcEENS_9allocatorIcEEE15__make_iteratorB8ne180100EPc
FNL:74,873,874
FNA:74,260,_ZNKSt3__112basic_stringIcNS_11char_traitsIcEENS_9allocatorIcEEE21__make_const_iteratorB8ne180100EPKc
FNL:75,880,884
FNA:75,3148,_ZNSt3__112basic_stringIcNS_11char_traitsIcEENS_9allocatorIcEEEC1B8ne180100Ev
FNA:75,3148,_ZNSt3__112basic_stringIcNS_11char_traitsIcEENS_9allocatorIcEEEC2B8ne180100Ev
FNL:76,916,916
FNA:76,1961,_ZNSt3__112basic_stringIcNS_11char_traitsIcEENS_9allocatorIcEEEC1B8ne180100EOS5_
FNA:76,1961,_ZNSt3__112basic_stringIcNS_11char_traitsIcEENS_9allocatorIcEEEC2B8ne180100EOS5_
FNL:77,925,930
FNA:77,1961,_ZZNSt3__112basic_stringIcNS_11char_traitsIcEENS_9allocatorIcEEEC1B8ne180100EOS5_ENKUlRS5_E_clES7_
FNL:78,951,955
FNA:78,3928,_ZNSt3__112basic_stringIcNS_11char_traitsIcEENS_9allocatorIcEEEC1B8ne180100ILi0EEEPKc
FNA:78,3928,_ZNSt3__112basic_stringIcNS_11char_traitsIcEENS_9allocatorIcEEEC2B8ne180100ILi0EEEPKc
FNA:78,0,_ZNSt3__112basic_stringIwNS_11char_traitsIwEENS_9allocatorIwEEEC1B8ne180100ILi0EEEPKw
FNA:78,0,_ZNSt3__112basic_stringIwNS_11char_traitsIwEENS_9allocatorIwEEEC2B8ne180100ILi0EEEPKw
FNL:79,968,972
FNA:79,0,_ZNSt3__112basic_stringIcNS_11char_traitsIcEENS_9allocatorIcEEEC1B8ne180100EPKcm
FNA:79,0,_ZNSt3__112basic_stringIcNS_11char_traitsIcEENS_9allocatorIcEEEC2B8ne180100EPKcm
FNL:80,981,984
FNA:80,0,_ZNSt3__112basic_stringIcNS_11char_traitsIcEENS_9allocatorIcEEEC1B8ne180100Emc
FNA:80,0,_ZNSt3__112basic_stringIcNS_11char_traitsIcEENS_9allocatorIcEEEC2B8ne180100Emc
FNF:81
FNH:44
DA:845,1300
DA:847,1300
DA:848,650
DA:849,0
DA:850,650
DA:851,650
DA:852,650
DA:853,650
DA:854,0
DA:855,0
DA:856,0
DA:857,0
DA:858,0
DA:859,0
DA:861,650
DA:862,1300
DA:871,338
DA:873,260
DA:874,260
DA:880,6296
DA:882,6296
DA:883,3148
DA:884,6296
DA:916,3922
DA:925,5883
DA:926,1961
DA:927,1961
DA:928,1961
DA:929,927
DA:930,3922
DA:951,7856
DA:952,7856
DA:954,3928
DA:955,7856
DA:968,0
DA:969,0
DA:971,0
DA:972,0
DA:981,0
DA:982,0
DA:983,0
DA:984,0
DA:1047,0
DA:1048,0
DA:1049,0
DA:1050,0
DA:1051,0
DA:1065,0
DA:1066,0
DA:1067,0
DA:1068,0
DA:1108,0
DA:1109,0
DA:1125,0
DA:1127,0
DA:1128,0
DA:1135,25
DA:1136,25
DA:1143,286
DA:1144,286
DA:1146,130
DA:1147,130
DA:1149,52
DA:1150,52
DA:1152,130
DA:1153,130
DA:1176,23739
DA:1177,23739
DA:1179,13041
DA:1181,650
DA:1182,650
DA:1183,650
DA:1184,0
DA:1186,650
DA:1187,650
DA:1189,650
DA:1216,728
DA:1217,728
DA:1220,0
DA:1222,0
DA:1223,0
DA:1225,0
DA:1226,0
DA:1239,0
DA:1240,0
DA:1253,0
DA:1254,0
DA:1257,27524
DA:1258,27524
DA:1259,27524
DA:1268,650
DA:1269,650
DA:1575,156
DA:1576,156
DA:1595,24250
DA:1596,29702
DA:1597,29702
DA:1600,0
DA:1601,0
DA:1605,650
DA:1606,650
DA:1769,58636
DA:1773,58636
DA:1776,0
DA:1786,0
DA:1788,650
DA:1826,0
DA:1827,1300
DA:1830,650
DA:1832,650
DA:1833,650
DA:1834,650
DA:1837,10672
DA:1839,10672
DA:1842,0
DA:1843,0
DA:1844,0
DA:1845,13067
DA:1846,13067
DA:1855,0
DA:1856,0
DA:1857,0
DA:1858,0
DA:1860,0
DA:1861,0
DA:1864,0
DA:1865,0
DA:1866,0
DA:1867,338
DA:1868,338
DA:1870,13384
DA:1871,13384
DA:1873,650
DA:1874,650
DA:1876,16578
DA:1877,16578
DA:1879,988
DA:1880,988
DA:1882,29962
DA:1883,29962
DA:1904,6686
DA:1910,6686
DA:1912,927
DA:1917,927
DA:1927,0
DA:1933,0
DA:1936,0
DA:1937,0
DA:1942,0
DA:1943,0
DA:1944,0
DA:1946,0
DA:1947,0
DA:1948,0
DA:1949,0
DA:1950,0
DA:1951,0
DA:2064,0
DA:2067,0
DA:2068,0
DA:2069,0
DA:2071,0
DA:2073,0
DA:2074,0
DA:2112,0
DA:2113,0
DA:2304,0
DA:2305,0
DA:2306,0
DA:2307,0
DA:2312,0
DA:2316,0
DA:2317,0
DA:2320,0
DA:2321,0
DA:2322,0
DA:2324,0
DA:2325,0
DA:2326,0
DA:2327,0
DA:2328,0
DA:2329,0
DA:2330,0
DA:2336,0
DA:2337,0
DA:2338,0
DA:2346,0
DA:2347,0
DA:2562,0
DA:2569,0
DA:2570,0
DA:2571,0
DA:2579,0
DA:2580,0
DA:2581,0
DA:2583,0
DA:2584,0
DA:2585,0
DA:2586,0
DA:2588,0
DA:2589,0
DA:2593,0
DA:2602,0
DA:2604,0
DA:2605,0
DA:3140,0
DA:3143,0
DA:3144,0
DA:3145,0
DA:3146,0
DA:3151,26
DA:3153,26
DA:3154,26
DA:3155,26
DA:3156,26
DA:3305,0
DA:3316,0
DA:3317,0
DA:3318,0
DA:3319,0
DA:3320,0
DA:3321,0
DA:3322,0
DA:3323,0
DA:3324,0
DA:3325,0
DA:3326,0
DA:3347,0
DA:3348,0
DA:3361,0
DA:3363,0
DA:3364,0
DA:3577,0
DA:3578,0
DA:3579,0
DA:3580,0
DA:3581,0
DA:3582,0
DA:3583,0
DA:3584,0
DA:3585,0
DA:3586,0
DA:3587,0
DA:3588,0
DA:3589,0
DA:3593,0
DA:3594,0
DA:3703,25
DA:3705,25
DA:3706,25
DA:3707,0
DA:3708,25
DA:3709,25
DA:3710,25
DA:3711,25
DA:3712,0
DA:3713,0
DA:3714,0
DA:3715,0
DA:3716,25
DA:3721,0
DA:3724,0
DA:3725,0
DA:3726,0
DA:3727,0
DA:3728,0
DA:3733,106
DA:3739,106
DA:3740,106
DA:3741,54
DA:3742,52
DA:3744,106
DA:3776,26
DA:3777,26
DA:3783,0
DA:3785,0
DA:3913,650
DA:3915,650
DA:3916,650
DA:3917,1300
DA:3918,650
DA:3919,650
DA:3920,650
DA:3921,650
DA:3922,650
DA:3923,650
DA:3924,650
DA:3925,650
DA:3929,0
DA:3931,0
DA:3932,0
DA:3933,0
DA:3934,0
DA:3935,0
DA:3936,0
DA:3937,0
DA:3938,0
DA:3939,0
DA:3940,0
DA:3946,650
DA:3947,650
DA:3958,0
DA:3959,0
DA:3964,0
DA:3965,0
DA:3977,820
DA:3978,820
DA:3994,0
DA:3996,0
DA:3997,0
DA:4048,2051
DA:4049,2051
LF:312
LH:127
end_of_record
TN:
SF:/Library/Developer/CommandLineTools/SDKs/MacOSX15.1.sdk/usr/include/c++/v1/string.h
FNL:0,101,102
FNA:0,0,_Z6strstrB8ne180100Ua9enable_ifIXLb1EEEPKcS0_
FNL:1,73,74
FNA:1,27,_Z6strchrB8ne180100Ua9enable_ifIXLb1EEEPKci
FNL:2,87,88
FNA:2,0,_Z7strrchrB8ne180100Ua9enable_ifIXLb1EEEPKci
FNF:3
FNH:1
DA:73,27
DA:74,27
DA:87,0
DA:88,0
DA:101,0
DA:102,0
LF:6
LH:2
end_of_record
TN:
SF:/Library/Developer/CommandLineTools/SDKs/MacOSX15.1.sdk/usr/include/c++/v1/string_view
FNL:0,306,318
FNA:0,0,_ZNSt3__117basic_string_viewIcNS_11char_traitsIcEEEC1B8ne180100EPKcm
FNA:0,0,_ZNSt3__117basic_string_viewIcNS_11char_traitsIcEEEC2B8ne180100EPKcm
FNL:1,385,385
FNA:1,0,_ZNKSt3__117basic_string_viewIcNS_11char_traitsIcEEE4sizeB8ne180100Ev
FNL:2,414,414
FNA:2,0,_ZNKSt3__117basic_string_viewIcNS_11char_traitsIcEEE4dataB8ne180100Ev
FNL:3,452,457
FNA:3,0,_ZNKSt3__117basic_string_viewIcNS_11char_traitsIcEEE7compareES3_
FNL:4,740,745
FNA:4,0,_ZNSt3__1eqB8ne180100IcNS_11char_traitsIcEELi1EEEbNS_17basic_string_viewIT_T0_EENS_15__type_identityIS6_E4typeE
FNF:5
FNH:0
DA:306,0
DA:307,0
DA:308,0
DA:318,0
DA:385,0
DA:414,0
DA:452,0
DA:453,0
DA:454,0
DA:455,0
DA:456,0
DA:457,0
DA:740,0
DA:742,0
DA:743,0
DA:744,0
DA:745,0
LF:17
LH:0
end_of_record
TN:
SF:/Library/Developer/CommandLineTools/SDKs/MacOSX15.1.sdk/usr/include/c++/v1/tuple
FNL:0,1070,1072
FNA:0,0,_ZNSt3__13getB8ne180100ILm0EJRKNS_12basic_stringIcNS_11char_traitsIcEENS_9allocatorIcEEEEEEERNS_13tuple_elementIXT_ENS_5tupleIJDpT0_EEEE4typeERSD_
FNL:1,1084,1086
FNA:1,0,_ZNSt3__13getB8ne180100ILm0EJPKN7testing8internal11MatcherBaseINS_12basic_stringIcNS_11char_traitsIcEENS_9allocatorIcEEEEEEPKNS2_9EqMatcherIS9_EEEEEONS_13tuple_elementIXT_ENS_5tupleIJDpT0_EEEE4typeEOSL_
FNA:1,0,_ZNSt3__13getB8ne180100ILm0EJPKN7testing8internal11MatcherBaseINS_17basic_string_viewIcNS_11char_traitsIcEEEEEEPKNS2_9EqMatcherINS_12basic_stringIcS6_NS_9allocatorIcEEEEEEEEEONS_13tuple_elementIXT_ENS_5tupleIJDpT0_EEEE4typeEOSN_
FNA:1,0,_ZNSt3__13getB8ne180100ILm0EJPKN7testing8internal11MatcherBaseIRKNS_12basic_stringIcNS_11char_traitsIcEENS_9allocatorIcEEEEEEPKNS2_9EqMatcherIS9_EEEEEONS_13tuple_elementIXT_ENS_5tupleIJDpT0_EEEE4typeEOSN_
FNA:1,0,_ZNSt3__13getB8ne180100ILm0EJPKN7testing8internal11MatcherBaseIRKNS_17basic_string_viewIcNS_11char_traitsIcEEEEEEPKNS2_9EqMatcherINS_12basic_stringIcS6_NS_9allocatorIcEEEEEEEEEONS_13tuple_elementIXT_ENS_5tupleIJDpT0_EEEE4typeEOSP_
FNL:2,1179,1180
FNA:2,0,_ZNSt3__110make_tupleB8ne180100IJPKN7testing8internal11MatcherBaseINS_12basic_stringIcNS_11char_traitsIcEENS_9allocatorIcEEEEEEPKNS2_9EqMatcherIS9_EEEEENS_5tupleIJDpNS_18__unwrap_ref_decayIT_E4typeEEEEDpOSJ_
FNA:2,0,_ZNSt3__110make_tupleB8ne180100IJPKN7testing8internal11MatcherBaseINS_17basic_string_viewIcNS_11char_traitsIcEEEEEEPKNS2_9EqMatcherINS_12basic_stringIcS6_NS_9allocatorIcEEEEEEEEENS_5tupleIJDpNS_18__unwrap_ref_decayIT_E4typeEEEEDpOSL_
FNA:2,0,_ZNSt3__110make_tupleB8ne180100IJPKN7testing8internal11MatcherBaseIRKNS_12basic_stringIcNS_11char_traitsIcEENS_9allocatorIcEEEEEEPKNS2_9EqMatcherIS9_EEEEENS_5tupleIJDpNS_18__unwrap_ref_decayIT_E4typeEEEEDpOSL_
FNA:2,0,_ZNSt3__110make_tupleB8ne180100IJPKN7testing8internal11MatcherBaseIRKNS_17basic_string_viewIcNS_11char_traitsIcEEEEEEPKNS2_9EqMatcherINS_12basic_stringIcS6_NS_9allocatorIcEEEEEEEEENS_5tupleIJDpNS_18__unwrap_ref_decayIT_E4typeEEEEDpOSN_
FNL:3,1184,1185
FNA:3,0,_ZNSt3__116forward_as_tupleB8ne180100IJEEENS_5tupleIJDpOT_EEES4_
FNA:3,0,_ZNSt3__116forward_as_tupleB8ne180100IJRKNS_12basic_stringIcNS_11char_traitsIcEENS_9allocatorIcEEEEEEENS_5tupleIJDpOT_EEESC_
FNL:4,1403,1410
FNA:4,0,_ZNSt3__14pairIKNS_12basic_stringIcNS_11char_traitsIcEENS_9allocatorIcEEEEmEC1B8ne180100IJRS7_EJEJLm0EEJEEENS_21piecewise_construct_tERNS_5tupleIJDpT_EEERNSC_IJDpT0_EEENS_15__tuple_indicesIJXspT1_EEEENSL_IJXspT2_EEEE
FNA:4,0,_ZNSt3__14pairIKNS_12basic_stringIcNS_11char_traitsIcEENS_9allocatorIcEEEEmEC2B8ne180100IJRS7_EJEJLm0EEJEEENS_21piecewise_construct_tERNS_5tupleIJDpT_EEERNSC_IJDpT0_EEENS_15__tuple_indicesIJXspT1_EEEENSL_IJXspT2_EEEE
FNL:5,343,348
FNA:5,0,_ZNSt3__112__tuple_leafILm0EPKN7testing8internal11MatcherBaseINS_12basic_stringIcNS_11char_traitsIcEENS_9allocatorIcEEEEEELb0EEC2B8ne180100ISC_vEEOT_
FNA:5,0,_ZNSt3__112__tuple_leafILm0EPKN7testing8internal11MatcherBaseINS_17basic_string_viewIcNS_11char_traitsIcEEEEEELb0EEC2B8ne180100ISA_vEEOT_
FNA:5,0,_ZNSt3__112__tuple_leafILm0EPKN7testing8internal11MatcherBaseIRKNS_12basic_stringIcNS_11char_traitsIcEENS_9allocatorIcEEEEEELb0EEC2B8ne180100ISE_vEEOT_
FNA:5,0,_ZNSt3__112__tuple_leafILm0EPKN7testing8internal11MatcherBaseIRKNS_17basic_string_viewIcNS_11char_traitsIcEEEEEELb0EEC2B8ne180100ISC_vEEOT_
FNA:5,0,_ZNSt3__112__tuple_leafILm0ERKNS_12basic_stringIcNS_11char_traitsIcEENS_9allocatorIcEEEELb0EEC2B8ne180100IS8_vEEOT_
FNA:5,0,_ZNSt3__112__tuple_leafILm1EPKN7testing8internal9EqMatcherINS_12basic_stringIcNS_11char_traitsIcEENS_9allocatorIcEEEEEELb0EEC2B8ne180100ISC_vEEOT_
FNL:6,387,387
FNA:6,0,_ZNSt3__112__tuple_leafILm0EPKN7testing8internal11MatcherBaseINS_12basic_stringIcNS_11char_traitsIcEENS_9allocatorIcEEEEEELb0EE3getB8ne180100Ev
FNA:6,0,_ZNSt3__112__tuple_leafILm0EPKN7testing8internal11MatcherBaseINS_17basic_string_viewIcNS_11char_traitsIcEEEEEELb0EE3getB8ne180100Ev
FNA:6,0,_ZNSt3__112__tuple_leafILm0EPKN7testing8internal11MatcherBaseIRKNS_12basic_stringIcNS_11char_traitsIcEENS_9allocatorIcEEEEEELb0EE3getB8ne180100Ev
FNA:6,0,_ZNSt3__112__tuple_leafILm0EPKN7testing8internal11MatcherBaseIRKNS_17basic_string_viewIcNS_11char_traitsIcEEEEEELb0EE3getB8ne180100Ev
FNA:6,0,_ZNSt3__112__tuple_leafILm0ERKNS_12basic_stringIcNS_11char_traitsIcEENS_9allocatorIcEEEELb0EE3getB8ne180100Ev
FNL:7,469,473
FNA:7,0,_ZNSt3__112__tuple_implINS_15__tuple_indicesIJLm0EEEEJRKNS_12basic_stringIcNS_11char_traitsIcEENS_9allocatorIcEEEEEEC1B8ne180100IJLm0EEJSA_EJEJEJSA_EEENS1_IJXspT_EEEENS_13__tuple_typesIJDpT0_EEENS1_IJXspT1_EEEENSE_IJDpT2_EEEDpOT3_
FNA:7,0,_ZNSt3__112__tuple_implINS_15__tuple_indicesIJLm0EEEEJRKNS_12basic_stringIcNS_11char_traitsIcEENS_9allocatorIcEEEEEEC2B8ne180100IJLm0EEJSA_EJEJEJSA_EEENS1_IJXspT_EEEENS_13__tuple_typesIJDpT0_EEENS1_IJXspT1_EEEENSE_IJDpT2_EEEDpOT3_
FNA:7,0,_ZNSt3__112__tuple_implINS_15__tuple_indicesIJLm0ELm1EEEEJPKN7testing8internal11MatcherBaseINS_12basic_stringIcNS_11char_traitsIcEENS_9allocatorIcEEEEEEPKNS4_9EqMatcherISB_EEEEC1B8ne180100IJLm0ELm1EEJSE_SI_EJEJEJSE_SI_EEENS1_IJXspT_EEEENS_13__tuple_typesIJDpT0_EEENS1_IJXspT1_EEEENSM_IJDpT2_EEEDpOT3_
FNA:7,0,_ZNSt3__112__tuple_implINS_15__tuple_indicesIJLm0ELm1EEEEJPKN7testing8internal11MatcherBaseINS_12basic_stringIcNS_11char_traitsIcEENS_9allocatorIcEEEEEEPKNS4_9EqMatcherISB_EEEEC2B8ne180100IJLm0ELm1EEJSE_SI_EJEJEJSE_SI_EEENS1_IJXspT_EEEENS_13__tuple_typesIJDpT0_EEENS1_IJXspT1_EEEENSM_IJDpT2_EEEDpOT3_
FNA:7,0,_ZNSt3__112__tuple_implINS_15__tuple_indicesIJLm0ELm1EEEEJPKN7testing8internal11MatcherBaseINS_17basic_string_viewIcNS_11char_traitsIcEEEEEEPKNS4_9EqMatcherINS_12basic_stringIcS8_NS_9allocatorIcEEEEEEEEC1B8ne180100IJLm0ELm1EEJSC_SK_EJEJEJSC_SK_EEENS1_IJXspT_EEEENS_13__tuple_typesIJDpT0_EEENS1_IJXspT1_EEEENSO_IJDpT2_EEEDpOT3_
FNA:7,0,_ZNSt3__112__tuple_implINS_15__tuple_indicesIJLm0ELm1EEEEJPKN7testing8internal11MatcherBaseINS_17basic_string_viewIcNS_11char_traitsIcEEEEEEPKNS4_9EqMatcherINS_12basic_stringIcS8_NS_9allocatorIcEEEEEEEEC2B8ne180100IJLm0ELm1EEJSC_SK_EJEJEJSC_SK_EEENS1_IJXspT_EEEENS_13__tuple_typesIJDpT0_EEENS1_IJXspT1_EEEENSO_IJDpT2_EEEDpOT3_
FNA:7,0,_ZNSt3__112__tuple_implINS_15__tuple_indicesIJLm0ELm1EEEEJPKN7testing8internal11MatcherBaseIRKNS_12basic_stringIcNS_11char_traitsIcEENS_9allocatorIcEEEEEEPKNS4_9EqMatcherISB_EEEEC1B8ne180100IJLm0ELm1EEJSG_SK_EJEJEJSG_SK_EEENS1_IJXspT_EEEENS_13__tuple_typesIJDpT0_EEENS1_IJXspT1_EEEENSO_IJDpT2_EEEDpOT3_
FNA:7,0,_ZNSt3__112__tuple_implINS_15__tuple_indicesIJLm0ELm1EEEEJPKN7testing8internal11MatcherBaseIRKNS_12basic_stringIcNS_11char_traitsIcEENS_9allocatorIcEEEEEEPKNS4_9EqMatcherISB_EEEEC2B8ne180100IJLm0ELm1EEJSG_SK_EJEJEJSG_SK_EEENS1_IJXspT_EEEENS_13__tuple_typesIJDpT0_EEENS1_IJXspT1_EEEENSO_IJDpT2_EEEDpOT3_
FNA:7,0,_ZNSt3__112__tuple_implINS_15__tuple_indicesIJLm0ELm1EEEEJPKN7testing8internal11MatcherBaseIRKNS_17basic_string_viewIcNS_11char_traitsIcEEEEEEPKNS4_9EqMatcherINS_12basic_stringIcS8_NS_9allocatorIcEEEEEEEEC1B8ne180100IJLm0ELm1EEJSE_SM_EJEJEJSE_SM_EEENS1_IJXspT_EEEENS_13__tuple_typesIJDpT0_EEENS1_IJXspT1_EEEENSQ_IJDpT2_EEEDpOT3_
FNA:7,0,_ZNSt3__112__tuple_implINS_15__tuple_indicesIJLm0ELm1EEEEJPKN7testing8internal11MatcherBaseIRKNS_17basic_string_viewIcNS_11char_traitsIcEEEEEEPKNS4_9EqMatcherINS_12basic_stringIcS8_NS_9allocatorIcEEEEEEEEC2B8ne180100IJLm0ELm1EEJSE_SM_EJEJEJSE_SM_EEENS1_IJXspT_EEEENS_13__tuple_typesIJDpT0_EEENS1_IJXspT1_EEEENSQ_IJDpT2_EEEDpOT3_
FNL:8,581,587
FNA:8,0,_ZNSt3__15tupleIJRKNS_12basic_stringIcNS_11char_traitsIcEENS_9allocatorIcEEEEEEC1B8ne180100INS_4_AndELi0EEES8_
FNA:8,0,_ZNSt3__15tupleIJRKNS_12basic_stringIcNS_11char_traitsIcEENS_9allocatorIcEEEEEEC2B8ne180100INS_4_AndELi0EEES8_
FNL:9,619,624
FNA:9,0,_ZNSt3__15tupleIJPKN7testing8internal11MatcherBaseINS_12basic_stringIcNS_11char_traitsIcEENS_9allocatorIcEEEEEEPKNS2_9EqMatcherIS9_EEEEC1B8ne180100IJSC_SG_ELi0EEEDpOT_
FNA:9,0,_ZNSt3__15tupleIJPKN7testing8internal11MatcherBaseINS_12basic_stringIcNS_11char_traitsIcEENS_9allocatorIcEEEEEEPKNS2_9EqMatcherIS9_EEEEC2B8ne180100IJSC_SG_ELi0EEEDpOT_
FNA:9,0,_ZNSt3__15tupleIJPKN7testing8internal11MatcherBaseINS_17basic_string_viewIcNS_11char_traitsIcEEEEEEPKNS2_9EqMatcherINS_12basic_stringIcS6_NS_9allocatorIcEEEEEEEEC1B8ne180100IJSA_SI_ELi0EEEDpOT_
FNA:9,0,_ZNSt3__15tupleIJPKN7testing8internal11MatcherBaseINS_17basic_string_viewIcNS_11char_traitsIcEEEEEEPKNS2_9EqMatcherINS_12basic_stringIcS6_NS_9allocatorIcEEEEEEEEC2B8ne180100IJSA_SI_ELi0EEEDpOT_
FNA:9,0,_ZNSt3__15tupleIJPKN7testing8internal11MatcherBaseIRKNS_12basic_stringIcNS_11char_traitsIcEENS_9allocatorIcEEEEEEPKNS2_9EqMatcherIS9_EEEEC1B8ne180100IJSE_SI_ELi0EEEDpOT_
FNA:9,0,_ZNSt3__15tupleIJPKN7testing8internal11MatcherBaseIRKNS_12basic_stringIcNS_11char_traitsIcEENS_9allocatorIcEEEEEEPKNS2_9EqMatcherIS9_EEEEC2B8ne180100IJSE_SI_ELi0EEEDpOT_
FNA:9,0,_ZNSt3__15tupleIJPKN7testing8internal11MatcherBaseIRKNS_17basic_string_viewIcNS_11char_traitsIcEEEEEEPKNS2_9EqMatcherINS_12basic_stringIcS6_NS_9allocatorIcEEEEEEEEC1B8ne180100IJSC_SK_ELi0EEEDpOT_
FNA:9,0,_ZNSt3__15tupleIJPKN7testing8internal11MatcherBaseIRKNS_17basic_string_viewIcNS_11char_traitsIcEEEEEEPKNS2_9EqMatcherINS_12basic_stringIcS6_NS_9allocatorIcEEEEEEEEC2B8ne180100IJSC_SK_ELi0EEEDpOT_
FNF:10
FNH:0
DA:343,0
DA:345,0
DA:348,0
DA:387,0
DA:469,0
DA:473,0
DA:581,0
DA:583,0
DA:587,0
DA:619,0
DA:620,0
DA:624,0
DA:1070,0
DA:1072,0
DA:1084,0
DA:1086,0
DA:1179,0
DA:1180,0
DA:1184,0
DA:1185,0
DA:1403,0
DA:1409,0
DA:1410,0
LF:23
LH:0
end_of_record
TN:
SF:/Library/Developer/CommandLineTools/SDKs/MacOSX15.1.sdk/usr/include/c++/v1/typeinfo
FNL:0,229,230
FNA:0,0,_ZNSt27__type_info_implementations30__non_unique_arm_rtti_bit_impl21__type_name_to_stringB8ne180100Em
FNL:1,241,249
FNA:1,0,_ZNSt27__type_info_implementations30__non_unique_arm_rtti_bit_impl4__eqB8ne180100Emm
FNL:2,262,263
FNA:2,0,_ZNSt27__type_info_implementations30__non_unique_arm_rtti_bit_impl21__is_type_name_uniqueB8ne180100Em
FNL:3,306,306
FNA:3,0,_ZNKSt9type_info4nameB8ne180100Ev
FNL:4,314,320
FNA:4,0,_ZNKSt9type_infoeqB8ne180100ERKS_
FNF:5
FNH:0
DA:229,0
DA:230,0
DA:241,0
DA:242,0
DA:243,0
DA:244,0
DA:247,0
DA:248,0
DA:249,0
DA:262,0
DA:263,0
DA:306,0
DA:314,0
DA:320,0
LF:14
LH:0
end_of_record
TN:
SF:/Library/Developer/CommandLineTools/SDKs/MacOSX15.1.sdk/usr/include/c++/v1/unordered_set
FNL:0,1124,1127
FNA:0,26,_ZNSt3__113unordered_setINS_12basic_stringIcNS_11char_traitsIcEENS_9allocatorIcEEEENS_4hashIS6_EENS_8equal_toIS6_EENS4_IS6_EEEaSEOSC_
FNL:1,625,625
FNA:1,130,_ZNSt3__113unordered_setINS_12basic_stringIcNS_11char_traitsIcEENS_9allocatorIcEEEENS_4hashIS6_EENS_8equal_toIS6_EENS4_IS6_EEEC1B8ne180100Ev
FNA:1,130,_ZNSt3__113unordered_setINS_12basic_stringIcNS_11char_traitsIcEENS_9allocatorIcEEEENS_4hashIS6_EENS_8equal_toIS6_EENS4_IS6_EEEC2B8ne180100Ev
FNL:2,720,722
FNA:2,130,_ZNSt3__113unordered_setINS_12basic_stringIcNS_11char_traitsIcEENS_9allocatorIcEEEENS_4hashIS6_EENS_8equal_toIS6_EENS4_IS6_EEED1B8ne180100Ev
FNA:2,130,_ZNSt3__113unordered_setINS_12basic_stringIcNS_11char_traitsIcEENS_9allocatorIcEEEENS_4hashIS6_EENS_8equal_toIS6_EENS4_IS6_EEED2B8ne180100Ev
FNL:3,742,742
FNA:3,78,_ZNSt3__113unordered_setINS_12basic_stringIcNS_11char_traitsIcEENS_9allocatorIcEEEENS_4hashIS6_EENS_8equal_toIS6_EENS4_IS6_EEE5beginB8ne180100Ev
FNL:4,759,760
FNA:4,25,_ZNSt3__113unordered_setINS_12basic_stringIcNS_11char_traitsIcEENS_9allocatorIcEEEENS_4hashIS6_EENS_8equal_toIS6_EENS4_IS6_EEE6insertB8ne180100EOS6_
FNL:5,762,762
FNA:5,25,_ZNSt3__113unordered_setINS_12basic_stringIcNS_11char_traitsIcEENS_9allocatorIcEEEENS_4hashIS6_EENS_8equal_toIS6_EENS4_IS6_EEE6insertB8ne180100ENS_21__hash_const_iteratorIPNS_11__hash_nodeIS6_PvEEEEOS6_
FNL:6,854,854
FNA:6,2026,_ZNKSt3__113unordered_setINS_12basic_stringIcNS_11char_traitsIcEENS_9allocatorIcEEEENS_4hashIS6_EENS_8equal_toIS6_EENS4_IS6_EEE5countB8ne180100ERKS6_
FNF:7
FNH:7
DA:625,260
DA:720,260
DA:722,260
DA:742,78
DA:759,25
DA:760,25
DA:762,25
DA:854,2026
DA:1124,26
DA:1126,26
DA:1127,26
LF:11
LH:11
end_of_record
TN:
SF:/Library/Developer/CommandLineTools/SDKs/MacOSX15.1.sdk/usr/include/c++/v1/vector
FNL:0,1002,1015
FNA:0,0,_ZNSt3__16vectorINS_12basic_stringIcNS_11char_traitsIcEENS_9allocatorIcEEEENS4_IS6_EEE26__swap_out_circular_bufferERNS_14__split_bufferIS6_RS7_EEPS6_
FNA:0,0,_ZNSt3__16vectorIPN7testing9TestSuiteENS_9allocatorIS3_EEE26__swap_out_circular_bufferERNS_14__split_bufferIS3_RS5_EEPS3_
FNA:0,0,_ZNSt3__16vectorIPcNS_9allocatorIS1_EEE26__swap_out_circular_bufferERNS_14__split_bufferIS1_RS3_EEPS1_
FNL:1,1019,1026
FNA:1,26,_ZNSt3__16vectorINS_12basic_stringIcNS_11char_traitsIcEENS_9allocatorIcEEEENS4_IS6_EEE13__vdeallocateEv
FNL:2,1030,1031
FNA:2,0,_ZNKSt3__16vectorIN7testing12TestPropertyENS_9allocatorIS2_EEE8max_sizeEv
FNA:2,0,_ZNKSt3__16vectorIN7testing14TestPartResultENS_9allocatorIS2_EEE8max_sizeEv
FNA:2,0,_ZNKSt3__16vectorIN7testing8internal13edit_distance8EditTypeENS_9allocatorIS4_EEE8max_sizeEv
FNA:2,0,_ZNKSt3__16vectorIN7testing8internal9TraceInfoENS_9allocatorIS3_EEE8max_sizeEv
FNA:2,0,_ZNKSt3__16vectorINS0_IN7testing8internal13edit_distance8EditTypeENS_9allocatorIS4_EEEENS5_IS7_EEE8max_sizeEv
FNA:2,0,_ZNKSt3__16vectorINS0_IdNS_9allocatorIdEEEENS1_IS3_EEE8max_sizeEv
FNA:2,312,_ZNKSt3__16vectorINS_12basic_stringIcNS_11char_traitsIcEENS_9allocatorIcEEEENS4_IS6_EEE8max_sizeEv
FNA:2,0,_ZNKSt3__16vectorIPN7testing11EnvironmentENS_9allocatorIS3_EEE8max_sizeEv
FNA:2,26,_ZNKSt3__16vectorIPN7testing17TestEventListenerENS_9allocatorIS3_EEE8max_sizeEv
FNA:2,156,_ZNKSt3__16vectorIPN7testing8TestInfoENS_9allocatorIS3_EEE8max_sizeEv
FNA:2,26,_ZNKSt3__16vectorIPN7testing9TestSuiteENS_9allocatorIS3_EEE8max_sizeEv
FNA:2,0,_ZNKSt3__16vectorIPcNS_9allocatorIS1_EEE8max_sizeEv
FNA:2,0,_ZNKSt3__16vectorIdNS_9allocatorIdEEE8max_sizeEv
FNA:2,182,_ZNKSt3__16vectorIiNS_9allocatorIiEEE8max_sizeEv
FNA:2,0,_ZNKSt3__16vectorImNS_9allocatorImEEE8max_sizeEv
FNL:3,1037,1045
FNA:3,0,_ZNKSt3__16vectorIN7testing12TestPropertyENS_9allocatorIS2_EEE11__recommendB8ne180100Em
FNA:3,0,_ZNKSt3__16vectorIN7testing14TestPartResultENS_9allocatorIS2_EEE11__recommendB8ne180100Em
FNA:3,0,_ZNKSt3__16vectorIN7testing8internal13edit_distance8EditTypeENS_9allocatorIS4_EEE11__recommendB8ne180100Em
FNA:3,0,_ZNKSt3__16vectorIN7testing8internal9TraceInfoENS_9allocatorIS3_EEE11__recommendB8ne180100Em
FNA:3,233,_ZNKSt3__16vectorINS_12basic_stringIcNS_11char_traitsIcEENS_9allocatorIcEEEENS4_IS6_EEE11__recommendB8ne180100Em
FNA:3,0,_ZNKSt3__16vectorIPN7testing11EnvironmentENS_9allocatorIS3_EEE11__recommendB8ne180100Em
FNA:3,26,_ZNKSt3__16vectorIPN7testing17TestEventListenerENS_9allocatorIS3_EEE11__recommendB8ne180100Em
FNA:3,156,_ZNKSt3__16vectorIPN7testing8TestInfoENS_9allocatorIS3_EEE11__recommendB8ne180100Em
FNA:3,26,_ZNKSt3__16vectorIPN7testing9TestSuiteENS_9allocatorIS3_EEE11__recommendB8ne180100Em
FNA:3,0,_ZNKSt3__16vectorIPcNS_9allocatorIS1_EEE11__recommendB8ne180100Em
FNA:3,182,_ZNKSt3__16vectorIiNS_9allocatorIiEEE11__recommendB8ne180100Em
FNA:3,0,_ZNKSt3__16vectorImNS_9allocatorImEEE11__recommendB8ne180100Em
FNL:4,1053,1059
FNA:4,0,_ZNSt3__16vectorIN7testing8internal13edit_distance8EditTypeENS_9allocatorIS4_EEE18__construct_at_endEm
FNA:4,0,_ZNSt3__16vectorIdNS_9allocatorIdEEE18__construct_at_endEm
FNL:5,1069,1075
FNA:5,0,_ZNSt3__16vectorINS0_IN7testing8internal13edit_distance8EditTypeENS_9allocatorIS4_EEEENS5_IS7_EEE18__construct_at_endEmRKS7_
FNA:5,0,_ZNSt3__16vectorINS0_IdNS_9allocatorIdEEEENS1_IS3_EEE18__construct_at_endEmRKS3_
FNL:6,1080,1083
FNA:6,0,_ZNSt3__16vectorIN7testing8internal13edit_distance8EditTypeENS_9allocatorIS4_EEE18__construct_at_endIPS4_S9_EEvT_T0_m
FNA:6,0,_ZNSt3__16vectorINS_12basic_stringIcNS_11char_traitsIcEENS_9allocatorIcEEEENS4_IS6_EEE18__construct_at_endINS_11__wrap_iterIPKS6_EESD_EEvT_T0_m
FNA:6,0,_ZNSt3__16vectorINS_12basic_stringIcNS_11char_traitsIcEENS_9allocatorIcEEEENS4_IS6_EEE18__construct_at_endIPKPKcSD_EEvT_T0_m
FNA:6,26,_ZNSt3__16vectorINS_12basic_stringIcNS_11char_traitsIcEENS_9allocatorIcEEEENS4_IS6_EEE18__construct_at_endIPS6_SA_EEvT_T0_m
FNA:6,0,_ZNSt3__16vectorIdNS_9allocatorIdEEE18__construct_at_endIPdS5_EEvT_T0_m
FNL:7,1118,1125
FNA:7,0,_ZNSt3__16vectorIN7testing8internal13edit_distance8EditTypeENS_9allocatorIS4_EEEC1Em
FNA:7,0,_ZNSt3__16vectorIN7testing8internal13edit_distance8EditTypeENS_9allocatorIS4_EEEC2Em
FNA:7,0,_ZNSt3__16vectorIdNS_9allocatorIdEEEC1Em
FNA:7,0,_ZNSt3__16vectorIdNS_9allocatorIdEEEC2Em
FNL:8,1141,1148
FNA:8,0,_ZNSt3__16vectorINS0_IN7testing8internal13edit_distance8EditTypeENS_9allocatorIS4_EEEENS5_IS7_EEEC1EmRKS7_
FNA:8,0,_ZNSt3__16vectorINS0_IN7testing8internal13edit_distance8EditTypeENS_9allocatorIS4_EEEENS5_IS7_EEEC2EmRKS7_
FNA:8,0,_ZNSt3__16vectorINS0_IdNS_9allocatorIdEEEENS1_IS3_EEEC1EmRKS3_
FNA:8,0,_ZNSt3__16vectorINS0_IdNS_9allocatorIdEEEENS1_IS3_EEEC2EmRKS3_
FNL:9,1175,1178
FNA:9,0,_ZNSt3__16vectorINS_12basic_stringIcNS_11char_traitsIcEENS_9allocatorIcEEEENS4_IS6_EEEC1INS_11__wrap_iterIPKS6_EELi0EEET_SE_
FNA:9,0,_ZNSt3__16vectorINS_12basic_stringIcNS_11char_traitsIcEENS_9allocatorIcEEEENS4_IS6_EEEC1IPKPKcLi0EEET_SE_
FNA:9,0,_ZNSt3__16vectorINS_12basic_stringIcNS_11char_traitsIcEENS_9allocatorIcEEEENS4_IS6_EEEC2INS_11__wrap_iterIPKS6_EELi0EEET_SE_
FNA:9,0,_ZNSt3__16vectorINS_12basic_stringIcNS_11char_traitsIcEENS_9allocatorIcEEEENS4_IS6_EEEC2IPKPKcLi0EEET_SE_
FNL:10,1193,1196
FNA:10,0,_ZNSt3__16vectorIN7testing8internal13edit_distance8EditTypeENS_9allocatorIS4_EEEC1ERKS7_
FNA:10,0,_ZNSt3__16vectorIN7testing8internal13edit_distance8EditTypeENS_9allocatorIS4_EEEC2ERKS7_
FNA:10,52,_ZNSt3__16vectorINS_12basic_stringIcNS_11char_traitsIcEENS_9allocatorIcEEEENS4_IS6_EEEC1ERKS8_
FNA:10,52,_ZNSt3__16vectorINS_12basic_stringIcNS_11char_traitsIcEENS_9allocatorIcEEEENS4_IS6_EEEC2ERKS8_
FNA:10,0,_ZNSt3__16vectorIdNS_9allocatorIdEEEC1ERKS3_
FNA:10,0,_ZNSt3__16vectorIdNS_9allocatorIdEEEC2ERKS3_
FNL:11,1265,1268
FNA:11,26,_ZNSt3__16vectorINS_12basic_stringIcNS_11char_traitsIcEENS_9allocatorIcEEEENS4_IS6_EEEaSB8ne180100EOS8_
FNL:12,1282,1290
FNA:12,26,_ZNSt3__16vectorINS_12basic_stringIcNS_11char_traitsIcEENS_9allocatorIcEEEENS4_IS6_EEE13__move_assignERS8_NS_17integral_constantIbLb1EEE
FNL:13,1368,1369
FNA:13,0,_ZNSt3__16vectorIN7testing12TestPropertyENS_9allocatorIS2_EEE5beginB8ne180100Ev
FNA:13,0,_ZNSt3__16vectorIN7testing8internal13edit_distance8EditTypeENS_9allocatorIS4_EEE5beginB8ne180100Ev
FNA:13,417,_ZNSt3__16vectorINS_12basic_stringIcNS_11char_traitsIcEENS_9allocatorIcEEEENS4_IS6_EEE5beginB8ne180100Ev
FNA:13,25,_ZNSt3__16vectorIPN7testing11EnvironmentENS_9allocatorIS3_EEE5beginB8ne180100Ev
FNA:13,0,_ZNSt3__16vectorIPN7testing17TestEventListenerENS_9allocatorIS3_EEE5beginB8ne180100Ev
FNA:13,26,_ZNSt3__16vectorIPN7testing8internal30ParameterizedTestSuiteInfoBaseENS_9allocatorIS4_EEE5beginB8ne180100Ev
FNA:13,1327,_ZNSt3__16vectorIPN7testing9TestSuiteENS_9allocatorIS3_EEE5beginB8ne180100Ev
FNA:13,0,_ZNSt3__16vectorIPcNS_9allocatorIS1_EEE5beginB8ne180100Ev
FNL:14,1374,1375
FNA:14,225,_ZNKSt3__16vectorIN7testing14TestPartResultENS_9allocatorIS2_EEE5beginB8ne180100Ev
FNA:14,0,_ZNKSt3__16vectorIN7testing8internal13edit_distance8EditTypeENS_9allocatorIS4_EEE5beginB8ne180100Ev
FNA:14,2001,_ZNKSt3__16vectorINS_12basic_stringIcNS_11char_traitsIcEENS_9allocatorIcEEEENS4_IS6_EEE5beginB8ne180100Ev
FNA:14,25,_ZNKSt3__16vectorIPN7testing11EnvironmentENS_9allocatorIS3_EEE5beginB8ne180100Ev
FNA:14,0,_ZNKSt3__16vectorIPN7testing17TestEventListenerENS_9allocatorIS3_EEE5beginB8ne180100Ev
FNA:14,250,_ZNKSt3__16vectorIPN7testing8TestInfoENS_9allocatorIS3_EEE5beginB8ne180100Ev
FNA:14,125,_ZNKSt3__16vectorIPN7testing9TestSuiteENS_9allocatorIS3_EEE5beginB8ne180100Ev
FNL:15,1380,1381
FNA:15,0,_ZNSt3__16vectorIN7testing12TestPropertyENS_9allocatorIS2_EEE3endB8ne180100Ev
FNA:15,0,_ZNSt3__16vectorIN7testing8internal13edit_distance8EditTypeENS_9allocatorIS4_EEE3endB8ne180100Ev
FNA:15,156,_ZNSt3__16vectorINS_12basic_stringIcNS_11char_traitsIcEENS_9allocatorIcEEEENS4_IS6_EEE3endB8ne180100Ev
FNA:15,25,_ZNSt3__16vectorIPN7testing11EnvironmentENS_9allocatorIS3_EEE3endB8ne180100Ev
FNA:15,26,_ZNSt3__16vectorIPN7testing8internal30ParameterizedTestSuiteInfoBaseENS_9allocatorIS4_EEE3endB8ne180100Ev
FNA:15,677,_ZNSt3__16vectorIPN7testing9TestSuiteENS_9allocatorIS3_EEE3endB8ne180100Ev
FNA:15,0,_ZNSt3__16vectorIPcNS_9allocatorIS1_EEE3endB8ne180100Ev
FNL:16,1386,1387
FNA:16,225,_ZNKSt3__16vectorIN7testing14TestPartResultENS_9allocatorIS2_EEE3endB8ne180100Ev
FNA:16,0,_ZNKSt3__16vectorIN7testing8internal13edit_distance8EditTypeENS_9allocatorIS4_EEE3endB8ne180100Ev
FNA:16,2001,_ZNKSt3__16vectorINS_12basic_stringIcNS_11char_traitsIcEENS_9allocatorIcEEEENS4_IS6_EEE3endB8ne180100Ev
FNA:16,25,_ZNKSt3__16vectorIPN7testing11EnvironmentENS_9allocatorIS3_EEE3endB8ne180100Ev
FNA:16,0,_ZNKSt3__16vectorIPN7testing17TestEventListenerENS_9allocatorIS3_EEE3endB8ne180100Ev
FNA:16,5875,_ZNKSt3__16vectorIPN7testing8TestInfoENS_9allocatorIS3_EEE3endB8ne180100Ev
FNA:16,225,_ZNKSt3__16vectorIPN7testing9TestSuiteENS_9allocatorIS3_EEE3endB8ne180100Ev
FNL:17,1392,1394
FNA:17,0,_ZNSt3__16vectorIN7testing8internal13edit_distance8EditTypeENS_9allocatorIS4_EEEixB8ne180100Em
FNA:17,0,_ZNSt3__16vectorIN7testing8internal9TraceInfoENS_9allocatorIS3_EEEixB8ne180100Em
FNA:17,0,_ZNSt3__16vectorINS0_IN7testing8internal13edit_distance8EditTypeENS_9allocatorIS4_EEEENS5_IS7_EEEixB8ne180100Em
FNA:17,0,_ZNSt3__16vectorINS0_IdNS_9allocatorIdEEEENS1_IS3_EEEixB8ne180100Em
FNA:17,0,_ZNSt3__16vectorINS_12basic_stringIcNS_11char_traitsIcEENS_9allocatorIcEEEENS4_IS6_EEEixB8ne180100Em
FNA:17,350,_ZNSt3__16vectorIPN7testing17TestEventListenerENS_9allocatorIS3_EEEixB8ne180100Em
FNA:17,1300,_ZNSt3__16vectorIPN7testing8TestInfoENS_9allocatorIS3_EEEixB8ne180100Em
FNA:17,50,_ZNSt3__16vectorIPN7testing9TestSuiteENS_9allocatorIS3_EEEixB8ne180100Em
FNA:17,0,_ZNSt3__16vectorIPcNS_9allocatorIS1_EEEixB8ne180100Em
FNA:17,0,_ZNSt3__16vectorIdNS_9allocatorIdEEEixB8ne180100Em
FNA:17,650,_ZNSt3__16vectorIiNS_9allocatorIiEEEixB8ne180100Em
FNL:18,1399,1401
FNA:18,0,_ZNKSt3__16vectorIN7testing14TestPartResultENS_9allocatorIS2_EEEixB8ne180100Em
FNA:18,0,_ZNKSt3__16vectorIN7testing8internal13edit_distance8EditTypeENS_9allocatorIS4_EEEixB8ne180100Em
FNA:18,0,_ZNKSt3__16vectorINS_12basic_stringIcNS_11char_traitsIcEENS_9allocatorIcEEEENS4_IS6_EEEixB8ne180100Em
FNA:18,25,_ZNKSt3__16vectorIPN7testing8TestInfoENS_9allocatorIS3_EEEixB8ne180100Em
FNA:18,125,_ZNKSt3__16vectorIPN7testing9TestSuiteENS_9allocatorIS3_EEEixB8ne180100Em
FNA:18,650,_ZNKSt3__16vectorIiNS_9allocatorIiEEEixB8ne180100Em
FNA:18,0,_ZNKSt3__16vectorImNS_9allocatorImEEEixB8ne180100Em
FNL:19,1413,1416
FNA:19,0,_ZNKSt3__16vectorIN7testing12TestPropertyENS_9allocatorIS2_EEE2atEm
FNA:19,0,_ZNKSt3__16vectorIN7testing14TestPartResultENS_9allocatorIS2_EEE2atEm
FNL:20,1420,1428
FNA:20,78,_ZNSt3__16vectorINS_12basic_stringIcNS_11char_traitsIcEENS_9allocatorIcEEEENS4_IS6_EEE7reserveEm
FNL:21,1449,1457
FNA:21,0,_ZNSt3__16vectorIN7testing12TestPropertyENS_9allocatorIS2_EEE21__push_back_slow_pathIRKS2_EEPS2_OT_
FNA:21,0,_ZNSt3__16vectorIN7testing14TestPartResultENS_9allocatorIS2_EEE21__push_back_slow_pathIRKS2_EEPS2_OT_
FNA:21,0,_ZNSt3__16vectorIN7testing8internal13edit_distance8EditTypeENS_9allocatorIS4_EEE21__push_back_slow_pathIRKS4_EEPS4_OT_
FNA:21,0,_ZNSt3__16vectorIN7testing8internal9TraceInfoENS_9allocatorIS3_EEE21__push_back_slow_pathIRKS3_EEPS3_OT_
FNA:21,233,_ZNSt3__16vectorINS_12basic_stringIcNS_11char_traitsIcEENS_9allocatorIcEEEENS4_IS6_EEE21__push_back_slow_pathIS6_EEPS6_OT_
FNA:21,0,_ZNSt3__16vectorIPN7testing11EnvironmentENS_9allocatorIS3_EEE21__push_back_slow_pathIRKS3_EEPS3_OT_
FNA:21,26,_ZNSt3__16vectorIPN7testing17TestEventListenerENS_9allocatorIS3_EEE21__push_back_slow_pathIRKS3_EEPS3_OT_
FNA:21,156,_ZNSt3__16vectorIPN7testing8TestInfoENS_9allocatorIS3_EEE21__push_back_slow_pathIRKS3_EEPS3_OT_
FNA:21,26,_ZNSt3__16vectorIPN7testing9TestSuiteENS_9allocatorIS3_EEE21__push_back_slow_pathIRKS3_EEPS3_OT_
FNA:21,0,_ZNSt3__16vectorIPcNS_9allocatorIS1_EEE21__push_back_slow_pathIS1_EEPS1_OT_
FNA:21,182,_ZNSt3__16vectorIiNS_9allocatorIiEEE21__push_back_slow_pathIiEEPiOT_
FNA:21,0,_ZNSt3__16vectorImNS_9allocatorImEEE21__push_back_slow_pathImEEPmOT_
FNL:22,1461,1470
FNA:22,0,_ZNSt3__16vectorIN7testing12TestPropertyENS_9allocatorIS2_EEE9push_backB8ne180100ERKS2_
FNA:22,0,_ZNSt3__16vectorIN7testing14TestPartResultENS_9allocatorIS2_EEE9push_backB8ne180100ERKS2_
FNA:22,0,_ZNSt3__16vectorIN7testing8internal13edit_distance8EditTypeENS_9allocatorIS4_EEE9push_backB8ne180100ERKS4_
FNA:22,0,_ZNSt3__16vectorIN7testing8internal9TraceInfoENS_9allocatorIS3_EEE9push_backB8ne180100ERKS3_
FNA:22,0,_ZNSt3__16vectorIPN7testing11EnvironmentENS_9allocatorIS3_EEE9push_backB8ne180100ERKS3_
FNA:22,26,_ZNSt3__16vectorIPN7testing17TestEventListenerENS_9allocatorIS3_EEE9push_backB8ne180100ERKS3_
FNA:22,650,_ZNSt3__16vectorIPN7testing8TestInfoENS_9allocatorIS3_EEE9push_backB8ne180100ERKS3_
FNA:22,26,_ZNSt3__16vectorIPN7testing9TestSuiteENS_9allocatorIS3_EEE9push_backB8ne180100ERKS3_
FNL:23,1473,1482
FNA:23,233,_ZNSt3__16vectorINS_12basic_stringIcNS_11char_traitsIcEENS_9allocatorIcEEEENS4_IS6_EEE9push_backB8ne180100EOS6_
FNA:23,0,_ZNSt3__16vectorIPcNS_9allocatorIS1_EEE9push_backB8ne180100EOS1_
FNA:23,676,_ZNSt3__16vectorIiNS_9allocatorIiEEE9push_backB8ne180100EOi
FNA:23,0,_ZNSt3__16vectorImNS_9allocatorImEEE9push_backB8ne180100EOm
FNL:24,1520,1523
FNA:24,0,_ZNSt3__16vectorIN7testing8internal9TraceInfoENS_9allocatorIS3_EEE8pop_backEv
FNL:25,1527,1533
FNA:25,0,_ZNSt3__16vectorIPN7testing17TestEventListenerENS_9allocatorIS3_EEE5eraseB8ne180100ENS_11__wrap_iterIPKS3_EE
FNL:26,1549,1560
FNA:26,0,_ZNSt3__16vectorINS_12basic_stringIcNS_11char_traitsIcEENS_9allocatorIcEEEENS4_IS6_EEE12__move_rangeEPS6_S9_S9_
FNA:26,0,_ZNSt3__16vectorIPN7testing9TestSuiteENS_9allocatorIS3_EEE12__move_rangeEPS3_S7_S7_
FNA:26,0,_ZNSt3__16vectorIPcNS_9allocatorIS1_EEE12__move_rangeEPS1_S5_S5_
FNL:27,1564,1584
FNA:27,0,_ZNSt3__16vectorIPN7testing9TestSuiteENS_9allocatorIS3_EEE6insertENS_11__wrap_iterIPKS3_EERS8_
FNL:28,1588,1604
FNA:28,105,_ZNSt3__16vectorINS_12basic_stringIcNS_11char_traitsIcEENS_9allocatorIcEEEENS4_IS6_EEE6insertENS_11__wrap_iterIPKS6_EEOS6_
FNA:28,0,_ZNSt3__16vectorIPcNS_9allocatorIS1_EEE6insertENS_11__wrap_iterIPKS1_EEOS1_
FNL:29,1765,1781
FNA:29,104,_ZNSt3__16vectorINS_12basic_stringIcNS_11char_traitsIcEENS_9allocatorIcEEEENS4_IS6_EEE4swapERS8_
FNL:30,415,416
FNA:30,702,_ZNSt3__16vectorIN7testing12TestPropertyENS_9allocatorIS2_EEEC1B8ne180100Ev
FNA:30,702,_ZNSt3__16vectorIN7testing12TestPropertyENS_9allocatorIS2_EEEC2B8ne180100Ev
FNA:30,702,_ZNSt3__16vectorIN7testing14TestPartResultENS_9allocatorIS2_EEEC1B8ne180100Ev
FNA:30,702,_ZNSt3__16vectorIN7testing14TestPartResultENS_9allocatorIS2_EEEC2B8ne180100Ev
FNA:30,0,_ZNSt3__16vectorIN7testing8internal13edit_distance8EditTypeENS_9allocatorIS4_EEEC1B8ne180100Ev
FNA:30,0,_ZNSt3__16vectorIN7testing8internal13edit_distance8EditTypeENS_9allocatorIS4_EEEC2B8ne180100Ev
FNA:30,0,_ZNSt3__16vectorIN7testing8internal9TraceInfoENS_9allocatorIS3_EEEC1B8ne180100Ev
FNA:30,0,_ZNSt3__16vectorIN7testing8internal9TraceInfoENS_9allocatorIS3_EEEC2B8ne180100Ev
FNA:30,364,_ZNSt3__16vectorINS_12basic_stringIcNS_11char_traitsIcEENS_9allocatorIcEEEENS4_IS6_EEEC1B8ne180100Ev
FNA:30,364,_ZNSt3__16vectorINS_12basic_stringIcNS_11char_traitsIcEENS_9allocatorIcEEEENS4_IS6_EEEC2B8ne180100Ev
FNA:30,26,_ZNSt3__16vectorIPN7testing11EnvironmentENS_9allocatorIS3_EEEC1B8ne180100Ev
FNA:30,26,_ZNSt3__16vectorIPN7testing11EnvironmentENS_9allocatorIS3_EEEC2B8ne180100Ev
FNA:30,26,_ZNSt3__16vectorIPN7testing17TestEventListenerENS_9allocatorIS3_EEEC1B8ne180100Ev
FNA:30,26,_ZNSt3__16vectorIPN7testing17TestEventListenerENS_9allocatorIS3_EEEC2B8ne180100Ev
FNA:30,26,_ZNSt3__16vectorIPN7testing8TestInfoENS_9allocatorIS3_EEEC1B8ne180100Ev
FNA:30,26,_ZNSt3__16vectorIPN7testing8TestInfoENS_9allocatorIS3_EEEC2B8ne180100Ev
FNA:30,26,_ZNSt3__16vectorIPN7testing8internal30ParameterizedTestSuiteInfoBaseENS_9allocatorIS4_EEEC1B8ne180100Ev
FNA:30,26,_ZNSt3__16vectorIPN7testing8internal30ParameterizedTestSuiteInfoBaseENS_9allocatorIS4_EEEC2B8ne180100Ev
FNA:30,26,_ZNSt3__16vectorIPN7testing9TestSuiteENS_9allocatorIS3_EEEC1B8ne180100Ev
FNA:30,26,_ZNSt3__16vectorIPN7testing9TestSuiteENS_9allocatorIS3_EEEC2B8ne180100Ev
FNA:30,0,_ZNSt3__16vectorIPcNS_9allocatorIS1_EEEC1B8ne180100Ev
FNA:30,0,_ZNSt3__16vectorIPcNS_9allocatorIS1_EEEC2B8ne180100Ev
FNA:30,52,_ZNSt3__16vectorIiNS_9allocatorIiEEEC1B8ne180100Ev
FNA:30,52,_ZNSt3__16vectorIiNS_9allocatorIiEEEC2B8ne180100Ev
FNA:30,0,_ZNSt3__16vectorImNS_9allocatorImEEEC1B8ne180100Ev
FNA:30,0,_ZNSt3__16vectorImNS_9allocatorImEEEC2B8ne180100Ev
FNL:31,486,486
FNA:31,0,_ZNSt3__16vectorIN7testing12TestPropertyENS_9allocatorIS2_EEE16__destroy_vectorC1B8ne180100ERS5_
FNA:31,0,_ZNSt3__16vectorIN7testing12TestPropertyENS_9allocatorIS2_EEE16__destroy_vectorC2B8ne180100ERS5_
FNA:31,0,_ZNSt3__16vectorIN7testing14TestPartResultENS_9allocatorIS2_EEE16__destroy_vectorC1B8ne180100ERS5_
FNA:31,0,_ZNSt3__16vectorIN7testing14TestPartResultENS_9allocatorIS2_EEE16__destroy_vectorC2B8ne180100ERS5_
FNA:31,0,_ZNSt3__16vectorIN7testing8internal13edit_distance8EditTypeENS_9allocatorIS4_EEE16__destroy_vectorC1B8ne180100ERS7_
FNA:31,0,_ZNSt3__16vectorIN7testing8internal13edit_distance8EditTypeENS_9allocatorIS4_EEE16__destroy_vectorC2B8ne180100ERS7_
FNA:31,0,_ZNSt3__16vectorIN7testing8internal9TraceInfoENS_9allocatorIS3_EEE16__destroy_vectorC1B8ne180100ERS6_
FNA:31,0,_ZNSt3__16vectorIN7testing8internal9TraceInfoENS_9allocatorIS3_EEE16__destroy_vectorC2B8ne180100ERS6_
FNA:31,0,_ZNSt3__16vectorINS0_IN7testing8internal13edit_distance8EditTypeENS_9allocatorIS4_EEEENS5_IS7_EEE16__destroy_vectorC1B8ne180100ERS9_
FNA:31,0,_ZNSt3__16vectorINS0_IN7testing8internal13edit_distance8EditTypeENS_9allocatorIS4_EEEENS5_IS7_EEE16__destroy_vectorC2B8ne180100ERS9_
FNA:31,0,_ZNSt3__16vectorINS0_IdNS_9allocatorIdEEEENS1_IS3_EEE16__destroy_vectorC1B8ne180100ERS5_
FNA:31,0,_ZNSt3__16vectorINS0_IdNS_9allocatorIdEEEENS1_IS3_EEE16__destroy_vectorC2B8ne180100ERS5_
FNA:31,442,_ZNSt3__16vectorINS_12basic_stringIcNS_11char_traitsIcEENS_9allocatorIcEEEENS4_IS6_EEE16__destroy_vectorC1B8ne180100ERS8_
FNA:31,442,_ZNSt3__16vectorINS_12basic_stringIcNS_11char_traitsIcEENS_9allocatorIcEEEENS4_IS6_EEE16__destroy_vectorC2B8ne180100ERS8_
FNA:31,0,_ZNSt3__16vectorIPN7testing11EnvironmentENS_9allocatorIS3_EEE16__destroy_vectorC1B8ne180100ERS6_
FNA:31,0,_ZNSt3__16vectorIPN7testing11EnvironmentENS_9allocatorIS3_EEE16__destroy_vectorC2B8ne180100ERS6_
FNA:31,0,_ZNSt3__16vectorIPN7testing17TestEventListenerENS_9allocatorIS3_EEE16__destroy_vectorC1B8ne180100ERS6_
FNA:31,0,_ZNSt3__16vectorIPN7testing17TestEventListenerENS_9allocatorIS3_EEE16__destroy_vectorC2B8ne180100ERS6_
FNA:31,0,_ZNSt3__16vectorIPN7testing8TestInfoENS_9allocatorIS3_EEE16__destroy_vectorC1B8ne180100ERS6_
FNA:31,0,_ZNSt3__16vectorIPN7testing8TestInfoENS_9allocatorIS3_EEE16__destroy_vectorC2B8ne180100ERS6_
FNA:31,0,_ZNSt3__16vectorIPN7testing8internal30ParameterizedTestSuiteInfoBaseENS_9allocatorIS4_EEE16__destroy_vectorC1B8ne180100ERS7_
FNA:31,0,_ZNSt3__16vectorIPN7testing8internal30ParameterizedTestSuiteInfoBaseENS_9allocatorIS4_EEE16__destroy_vectorC2B8ne180100ERS7_
FNA:31,0,_ZNSt3__16vectorIPN7testing9TestSuiteENS_9allocatorIS3_EEE16__destroy_vectorC1B8ne180100ERS6_
FNA:31,0,_ZNSt3__16vectorIPN7testing9TestSuiteENS_9allocatorIS3_EEE16__destroy_vectorC2B8ne180100ERS6_
FNA:31,0,_ZNSt3__16vectorIPcNS_9allocatorIS1_EEE16__destroy_vectorC1B8ne180100ERS4_
FNA:31,0,_ZNSt3__16vectorIPcNS_9allocatorIS1_EEE16__destroy_vectorC2B8ne180100ERS4_
FNA:31,0,_ZNSt3__16vectorIdNS_9allocatorIdEEE16__destroy_vectorC1B8ne180100ERS3_
FNA:31,0,_ZNSt3__16vectorIdNS_9allocatorIdEEE16__destroy_vectorC2B8ne180100ERS3_
FNA:31,0,_ZNSt3__16vectorIiNS_9allocatorIiEEE16__destroy_vectorC1B8ne180100ERS3_
FNA:31,0,_ZNSt3__16vectorIiNS_9allocatorIiEEE16__destroy_vectorC2B8ne180100ERS3_
FNA:31,0,_ZNSt3__16vectorImNS_9allocatorImEEE16__destroy_vectorC1B8ne180100ERS3_
FNA:31,0,_ZNSt3__16vectorImNS_9allocatorImEEE16__destroy_vectorC2B8ne180100ERS3_
FNL:32,488,494
FNA:32,0,_ZNSt3__16vectorIN7testing12TestPropertyENS_9allocatorIS2_EEE16__destroy_vectorclB8ne180100Ev
FNA:32,0,_ZNSt3__16vectorIN7testing14TestPartResultENS_9allocatorIS2_EEE16__destroy_vectorclB8ne180100Ev
FNA:32,0,_ZNSt3__16vectorIN7testing8internal13edit_distance8EditTypeENS_9allocatorIS4_EEE16__destroy_vectorclB8ne180100Ev
FNA:32,0,_ZNSt3__16vectorIN7testing8internal9TraceInfoENS_9allocatorIS3_EEE16__destroy_vectorclB8ne180100Ev
FNA:32,0,_ZNSt3__16vectorINS0_IN7testing8internal13edit_distance8EditTypeENS_9allocatorIS4_EEEENS5_IS7_EEE16__destroy_vectorclB8ne180100Ev
FNA:32,0,_ZNSt3__16vectorINS0_IdNS_9allocatorIdEEEENS1_IS3_EEE16__destroy_vectorclB8ne180100Ev
FNA:32,390,_ZNSt3__16vectorINS_12basic_stringIcNS_11char_traitsIcEENS_9allocatorIcEEEENS4_IS6_EEE16__destroy_vectorclB8ne180100Ev
FNA:32,0,_ZNSt3__16vectorIPN7testing11EnvironmentENS_9allocatorIS3_EEE16__destroy_vectorclB8ne180100Ev
FNA:32,0,_ZNSt3__16vectorIPN7testing17TestEventListenerENS_9allocatorIS3_EEE16__destroy_vectorclB8ne180100Ev
FNA:32,0,_ZNSt3__16vectorIPN7testing8TestInfoENS_9allocatorIS3_EEE16__destroy_vectorclB8ne180100Ev
FNA:32,0,_ZNSt3__16vectorIPN7testing8internal30ParameterizedTestSuiteInfoBaseENS_9allocatorIS4_EEE16__destroy_vectorclB8ne180100Ev
FNA:32,0,_ZNSt3__16vectorIPN7testing9TestSuiteENS_9allocatorIS3_EEE16__destroy_vectorclB8ne180100Ev
FNA:32,0,_ZNSt3__16vectorIPcNS_9allocatorIS1_EEE16__destroy_vectorclB8ne180100Ev
FNA:32,0,_ZNSt3__16vectorIdNS_9allocatorIdEEE16__destroy_vectorclB8ne180100Ev
FNA:32,0,_ZNSt3__16vectorIiNS_9allocatorIiEEE16__destroy_vectorclB8ne180100Ev
FNA:32,0,_ZNSt3__16vectorImNS_9allocatorImEEE16__destroy_vectorclB8ne180100Ev
FNL:33,501,501
FNA:33,0,_ZNSt3__16vectorIN7testing12TestPropertyENS_9allocatorIS2_EEED1B8ne180100Ev
FNA:33,0,_ZNSt3__16vectorIN7testing12TestPropertyENS_9allocatorIS2_EEED2B8ne180100Ev
FNA:33,0,_ZNSt3__16vectorIN7testing14TestPartResultENS_9allocatorIS2_EEED1B8ne180100Ev
FNA:33,0,_ZNSt3__16vectorIN7testing14TestPartResultENS_9allocatorIS2_EEED2B8ne180100Ev
FNA:33,0,_ZNSt3__16vectorIN7testing8internal13edit_distance8EditTypeENS_9allocatorIS4_EEED1B8ne180100Ev
FNA:33,0,_ZNSt3__16vectorIN7testing8internal13edit_distance8EditTypeENS_9allocatorIS4_EEED2B8ne180100Ev
FNA:33,0,_ZNSt3__16vectorIN7testing8internal9TraceInfoENS_9allocatorIS3_EEED1B8ne180100Ev
FNA:33,0,_ZNSt3__16vectorIN7testing8internal9TraceInfoENS_9allocatorIS3_EEED2B8ne180100Ev
FNA:33,0,_ZNSt3__16vectorINS0_IN7testing8internal13edit_distance8EditTypeENS_9allocatorIS4_EEEENS5_IS7_EEED1B8ne180100Ev
FNA:33,0,_ZNSt3__16vectorINS0_IN7testing8internal13edit_distance8EditTypeENS_9allocatorIS4_EEEENS5_IS7_EEED2B8ne180100Ev
FNA:33,0,_ZNSt3__16vectorINS0_IdNS_9allocatorIdEEEENS1_IS3_EEED1B8ne180100Ev
FNA:33,0,_ZNSt3__16vectorINS0_IdNS_9allocatorIdEEEENS1_IS3_EEED2B8ne180100Ev
FNA:33,390,_ZNSt3__16vectorINS_12basic_stringIcNS_11char_traitsIcEENS_9allocatorIcEEEENS4_IS6_EEED1B8ne180100Ev
FNA:33,390,_ZNSt3__16vectorINS_12basic_stringIcNS_11char_traitsIcEENS_9allocatorIcEEEENS4_IS6_EEED2B8ne180100Ev
FNA:33,0,_ZNSt3__16vectorIPN7testing11EnvironmentENS_9allocatorIS3_EEED1B8ne180100Ev
FNA:33,0,_ZNSt3__16vectorIPN7testing11EnvironmentENS_9allocatorIS3_EEED2B8ne180100Ev
FNA:33,0,_ZNSt3__16vectorIPN7testing17TestEventListenerENS_9allocatorIS3_EEED1B8ne180100Ev
FNA:33,0,_ZNSt3__16vectorIPN7testing17TestEventListenerENS_9allocatorIS3_EEED2B8ne180100Ev
FNA:33,0,_ZNSt3__16vectorIPN7testing8TestInfoENS_9allocatorIS3_EEED1B8ne180100Ev
FNA:33,0,_ZNSt3__16vectorIPN7testing8TestInfoENS_9allocatorIS3_EEED2B8ne180100Ev
FNA:33,0,_ZNSt3__16vectorIPN7testing8internal30ParameterizedTestSuiteInfoBaseENS_9allocatorIS4_EEED1B8ne180100Ev
FNA:33,0,_ZNSt3__16vectorIPN7testing8internal30ParameterizedTestSuiteInfoBaseENS_9allocatorIS4_EEED2B8ne180100Ev
FNA:33,0,_ZNSt3__16vectorIPN7testing9TestSuiteENS_9allocatorIS3_EEED1B8ne180100Ev
FNA:33,0,_ZNSt3__16vectorIPN7testing9TestSuiteENS_9allocatorIS3_EEED2B8ne180100Ev
FNA:33,0,_ZNSt3__16vectorIPcNS_9allocatorIS1_EEED1B8ne180100Ev
FNA:33,0,_ZNSt3__16vectorIPcNS_9allocatorIS1_EEED2B8ne180100Ev
FNA:33,0,_ZNSt3__16vectorIdNS_9allocatorIdEEED1B8ne180100Ev
FNA:33,0,_ZNSt3__16vectorIdNS_9allocatorIdEEED2B8ne180100Ev
FNA:33,0,_ZNSt3__16vectorIiNS_9allocatorIiEEED1B8ne180100Ev
FNA:33,0,_ZNSt3__16vectorIiNS_9allocatorIiEEED2B8ne180100Ev
FNA:33,0,_ZNSt3__16vectorImNS_9allocatorImEEED1B8ne180100Ev
FNA:33,0,_ZNSt3__16vectorImNS_9allocatorImEEED2B8ne180100Ev
FNL:34,574,575
FNA:34,25,_ZNSt3__16vectorIPN7testing11EnvironmentENS_9allocatorIS3_EEE6rbeginB8ne180100Ev
FNA:34,650,_ZNSt3__16vectorIPN7testing9TestSuiteENS_9allocatorIS3_EEE6rbeginB8ne180100Ev
FNL:35,580,581
FNA:35,25,_ZNSt3__16vectorIPN7testing11EnvironmentENS_9allocatorIS3_EEE4rendB8ne180100Ev
FNA:35,1300,_ZNSt3__16vectorIPN7testing9TestSuiteENS_9allocatorIS3_EEE4rendB8ne180100Ev
FNL:36,587,587
FNA:36,0,_ZNKSt3__16vectorIPN7testing17TestEventListenerENS_9allocatorIS3_EEE6cbeginB8ne180100Ev
FNL:37,594,595
FNA:37,650,_ZNKSt3__16vectorIN7testing12TestPropertyENS_9allocatorIS2_EEE4sizeB8ne180100Ev
FNA:37,1050,_ZNKSt3__16vectorIN7testing14TestPartResultENS_9allocatorIS2_EEE4sizeB8ne180100Ev
FNA:37,0,_ZNKSt3__16vectorIN7testing8internal13edit_distance8EditTypeENS_9allocatorIS4_EEE4sizeB8ne180100Ev
FNA:37,0,_ZNKSt3__16vectorIN7testing8internal9TraceInfoENS_9allocatorIS3_EEE4sizeB8ne180100Ev
FNA:37,0,_ZNKSt3__16vectorINS0_IdNS_9allocatorIdEEEENS1_IS3_EEE4sizeB8ne180100Ev
FNA:37,961,_ZNKSt3__16vectorINS_12basic_stringIcNS_11char_traitsIcEENS_9allocatorIcEEEENS4_IS6_EEE4sizeB8ne180100Ev
FNA:37,0,_ZNKSt3__16vectorIPN7testing11EnvironmentENS_9allocatorIS3_EEE4sizeB8ne180100Ev
FNA:37,629,_ZNKSt3__16vectorIPN7testing17TestEventListenerENS_9allocatorIS3_EEE4sizeB8ne180100Ev
FNA:37,1820,_ZNKSt3__16vectorIPN7testing8TestInfoENS_9allocatorIS3_EEE4sizeB8ne180100Ev
FNA:37,428,_ZNKSt3__16vectorIPN7testing9TestSuiteENS_9allocatorIS3_EEE4sizeB8ne180100Ev
FNA:37,0,_ZNKSt3__16vectorIPcNS_9allocatorIS1_EEE4sizeB8ne180100Ev
FNA:37,0,_ZNKSt3__16vectorIdNS_9allocatorIdEEE4sizeB8ne180100Ev
FNA:37,2522,_ZNKSt3__16vectorIiNS_9allocatorIiEEE4sizeB8ne180100Ev
FNA:37,0,_ZNKSt3__16vectorImNS_9allocatorImEEE4sizeB8ne180100Ev
FNL:38,597,598
FNA:38,0,_ZNKSt3__16vectorIN7testing12TestPropertyENS_9allocatorIS2_EEE8capacityB8ne180100Ev
FNA:38,0,_ZNKSt3__16vectorIN7testing14TestPartResultENS_9allocatorIS2_EEE8capacityB8ne180100Ev
FNA:38,0,_ZNKSt3__16vectorIN7testing8internal13edit_distance8EditTypeENS_9allocatorIS4_EEE8capacityB8ne180100Ev
FNA:38,0,_ZNKSt3__16vectorIN7testing8internal9TraceInfoENS_9allocatorIS3_EEE8capacityB8ne180100Ev
FNA:38,0,_ZNKSt3__16vectorINS0_IN7testing8internal13edit_distance8EditTypeENS_9allocatorIS4_EEEENS5_IS7_EEE8capacityB8ne180100Ev
FNA:38,0,_ZNKSt3__16vectorINS0_IdNS_9allocatorIdEEEENS1_IS3_EEE8capacityB8ne180100Ev
FNA:38,494,_ZNKSt3__16vectorINS_12basic_stringIcNS_11char_traitsIcEENS_9allocatorIcEEEENS4_IS6_EEE8capacityB8ne180100Ev
FNA:38,0,_ZNKSt3__16vectorIPN7testing11EnvironmentENS_9allocatorIS3_EEE8capacityB8ne180100Ev
FNA:38,26,_ZNKSt3__16vectorIPN7testing17TestEventListenerENS_9allocatorIS3_EEE8capacityB8ne180100Ev
FNA:38,156,_ZNKSt3__16vectorIPN7testing8TestInfoENS_9allocatorIS3_EEE8capacityB8ne180100Ev
FNA:38,0,_ZNKSt3__16vectorIPN7testing8internal30ParameterizedTestSuiteInfoBaseENS_9allocatorIS4_EEE8capacityB8ne180100Ev
FNA:38,26,_ZNKSt3__16vectorIPN7testing9TestSuiteENS_9allocatorIS3_EEE8capacityB8ne180100Ev
FNA:38,0,_ZNKSt3__16vectorIPcNS_9allocatorIS1_EEE8capacityB8ne180100Ev
FNA:38,0,_ZNKSt3__16vectorIdNS_9allocatorIdEEE8capacityB8ne180100Ev
FNA:38,182,_ZNKSt3__16vectorIiNS_9allocatorIiEEE8capacityB8ne180100Ev
FNA:38,0,_ZNKSt3__16vectorImNS_9allocatorImEEE8capacityB8ne180100Ev
FNL:39,612,614
FNA:39,26,_ZNSt3__16vectorINS_12basic_stringIcNS_11char_traitsIcEENS_9allocatorIcEEEENS4_IS6_EEE5frontB8ne180100Ev
FNL:40,707,729
FNA:40,650,_ZNSt3__16vectorIN7testing12TestPropertyENS_9allocatorIS2_EEE5clearB8ne180100Ev
FNA:40,650,_ZNSt3__16vectorIN7testing14TestPartResultENS_9allocatorIS2_EEE5clearB8ne180100Ev
FNA:40,26,_ZNSt3__16vectorINS_12basic_stringIcNS_11char_traitsIcEENS_9allocatorIcEEEENS4_IS6_EEE5clearB8ne180100Ev
FNL:41,738,746
FNA:41,0,_ZNSt3__16vectorIN7testing8internal13edit_distance8EditTypeENS_9allocatorIS4_EEE11__vallocateB8ne180100Em
FNA:41,0,_ZNSt3__16vectorINS0_IN7testing8internal13edit_distance8EditTypeENS_9allocatorIS4_EEEENS5_IS7_EEE11__vallocateB8ne180100Em
FNA:41,0,_ZNSt3__16vectorINS0_IdNS_9allocatorIdEEEENS1_IS3_EEE11__vallocateB8ne180100Em
FNA:41,26,_ZNSt3__16vectorINS_12basic_stringIcNS_11char_traitsIcEENS_9allocatorIcEEEENS4_IS6_EEE11__vallocateB8ne180100Em
FNA:41,0,_ZNSt3__16vectorIdNS_9allocatorIdEEE11__vallocateB8ne180100Em
FNL:42,755,764
FNA:42,0,_ZNSt3__16vectorIN7testing8internal13edit_distance8EditTypeENS_9allocatorIS4_EEE16__init_with_sizeB8ne180100IPS4_S9_EEvT_T0_m
FNA:42,0,_ZNSt3__16vectorINS_12basic_stringIcNS_11char_traitsIcEENS_9allocatorIcEEEENS4_IS6_EEE16__init_with_sizeB8ne180100INS_11__wrap_iterIPKS6_EESD_EEvT_T0_m
FNA:42,0,_ZNSt3__16vectorINS_12basic_stringIcNS_11char_traitsIcEENS_9allocatorIcEEEENS4_IS6_EEE16__init_with_sizeB8ne180100IPKPKcSD_EEvT_T0_m
FNA:42,52,_ZNSt3__16vectorINS_12basic_stringIcNS_11char_traitsIcEENS_9allocatorIcEEEENS4_IS6_EEE16__init_with_sizeB8ne180100IPS6_SA_EEvT_T0_m
FNA:42,0,_ZNSt3__16vectorIdNS_9allocatorIdEEE16__init_with_sizeB8ne180100IPdS5_EEvT_T0_m
FNL:43,798,799
FNA:43,0,_ZNSt3__16vectorIN7testing12TestPropertyENS_9allocatorIS2_EEE11__make_iterB8ne180100EPS2_
FNA:43,0,_ZNSt3__16vectorIN7testing8internal13edit_distance8EditTypeENS_9allocatorIS4_EEE11__make_iterB8ne180100EPS4_
FNA:43,678,_ZNSt3__16vectorINS_12basic_stringIcNS_11char_traitsIcEENS_9allocatorIcEEEENS4_IS6_EEE11__make_iterB8ne180100EPS6_
FNA:43,50,_ZNSt3__16vectorIPN7testing11EnvironmentENS_9allocatorIS3_EEE11__make_iterB8ne180100EPS3_
FNA:43,0,_ZNSt3__16vectorIPN7testing17TestEventListenerENS_9allocatorIS3_EEE11__make_iterB8ne180100EPS3_
FNA:43,52,_ZNSt3__16vectorIPN7testing8internal30ParameterizedTestSuiteInfoBaseENS_9allocatorIS4_EEE11__make_iterB8ne180100EPS4_
FNA:43,2004,_ZNSt3__16vectorIPN7testing9TestSuiteENS_9allocatorIS3_EEE11__make_iterB8ne180100EPS3_
FNA:43,0,_ZNSt3__16vectorIPcNS_9allocatorIS1_EEE11__make_iterB8ne180100EPS1_
FNL:44,801,802
FNA:44,450,_ZNKSt3__16vectorIN7testing14TestPartResultENS_9allocatorIS2_EEE11__make_iterB8ne180100EPKS2_
FNA:44,0,_ZNKSt3__16vectorIN7testing8internal13edit_distance8EditTypeENS_9allocatorIS4_EEE11__make_iterB8ne180100EPKS4_
FNA:44,4002,_ZNKSt3__16vectorINS_12basic_stringIcNS_11char_traitsIcEENS_9allocatorIcEEEENS4_IS6_EEE11__make_iterB8ne180100EPKS6_
FNA:44,50,_ZNKSt3__16vectorIPN7testing11EnvironmentENS_9allocatorIS3_EEE11__make_iterB8ne180100EPKS3_
FNA:44,0,_ZNKSt3__16vectorIPN7testing17TestEventListenerENS_9allocatorIS3_EEE11__make_iterB8ne180100EPKS3_
FNA:44,6125,_ZNKSt3__16vectorIPN7testing8TestInfoENS_9allocatorIS3_EEE11__make_iterB8ne180100EPKS3_
FNA:44,350,_ZNKSt3__16vectorIPN7testing9TestSuiteENS_9allocatorIS3_EEE11__make_iterB8ne180100EPKS3_
FNL:45,814,818
FNA:45,0,_ZNSt3__16vectorIN7testing8internal9TraceInfoENS_9allocatorIS3_EEE17__destruct_at_endB8ne180100EPS3_
FNA:45,0,_ZNSt3__16vectorIPN7testing17TestEventListenerENS_9allocatorIS3_EEE17__destruct_at_endB8ne180100EPS3_
FNL:46,847,852
FNA:46,0,_ZNKSt3__16vectorIN7testing12TestPropertyENS_9allocatorIS2_EEE14__annotate_newB8ne180100Em
FNA:46,0,_ZNKSt3__16vectorIN7testing14TestPartResultENS_9allocatorIS2_EEE14__annotate_newB8ne180100Em
FNA:46,0,_ZNKSt3__16vectorIN7testing8internal13edit_distance8EditTypeENS_9allocatorIS4_EEE14__annotate_newB8ne180100Em
FNA:46,0,_ZNKSt3__16vectorIN7testing8internal9TraceInfoENS_9allocatorIS3_EEE14__annotate_newB8ne180100Em
FNA:46,0,_ZNKSt3__16vectorINS0_IN7testing8internal13edit_distance8EditTypeENS_9allocatorIS4_EEEENS5_IS7_EEE14__annotate_newB8ne180100Em
FNA:46,0,_ZNKSt3__16vectorINS0_IdNS_9allocatorIdEEEENS1_IS3_EEE14__annotate_newB8ne180100Em
FNA:46,312,_ZNKSt3__16vectorINS_12basic_stringIcNS_11char_traitsIcEENS_9allocatorIcEEEENS4_IS6_EEE14__annotate_newB8ne180100Em
FNA:46,0,_ZNKSt3__16vectorIPN7testing11EnvironmentENS_9allocatorIS3_EEE14__annotate_newB8ne180100Em
FNA:46,26,_ZNKSt3__16vectorIPN7testing17TestEventListenerENS_9allocatorIS3_EEE14__annotate_newB8ne180100Em
FNA:46,156,_ZNKSt3__16vectorIPN7testing8TestInfoENS_9allocatorIS3_EEE14__annotate_newB8ne180100Em
FNA:46,26,_ZNKSt3__16vectorIPN7testing9TestSuiteENS_9allocatorIS3_EEE14__annotate_newB8ne180100Em
FNA:46,0,_ZNKSt3__16vectorIPcNS_9allocatorIS1_EEE14__annotate_newB8ne180100Em
FNA:46,0,_ZNKSt3__16vectorIdNS_9allocatorIdEEE14__annotate_newB8ne180100Em
FNA:46,182,_ZNKSt3__16vectorIiNS_9allocatorIiEEE14__annotate_newB8ne180100Em
FNA:46,0,_ZNKSt3__16vectorImNS_9allocatorImEEE14__annotate_newB8ne180100Em
FNL:47,854,858
FNA:47,0,_ZNKSt3__16vectorIN7testing12TestPropertyENS_9allocatorIS2_EEE17__annotate_deleteB8ne180100Ev
FNA:47,0,_ZNKSt3__16vectorIN7testing14TestPartResultENS_9allocatorIS2_EEE17__annotate_deleteB8ne180100Ev
FNA:47,0,_ZNKSt3__16vectorIN7testing8internal13edit_distance8EditTypeENS_9allocatorIS4_EEE17__annotate_deleteB8ne180100Ev
FNA:47,0,_ZNKSt3__16vectorIN7testing8internal9TraceInfoENS_9allocatorIS3_EEE17__annotate_deleteB8ne180100Ev
FNA:47,0,_ZNKSt3__16vectorINS0_IN7testing8internal13edit_distance8EditTypeENS_9allocatorIS4_EEEENS5_IS7_EEE17__annotate_deleteB8ne180100Ev
FNA:47,0,_ZNKSt3__16vectorINS0_IdNS_9allocatorIdEEEENS1_IS3_EEE17__annotate_deleteB8ne180100Ev
FNA:47,469,_ZNKSt3__16vectorINS_12basic_stringIcNS_11char_traitsIcEENS_9allocatorIcEEEENS4_IS6_EEE17__annotate_deleteB8ne180100Ev
FNA:47,0,_ZNKSt3__16vectorIPN7testing11EnvironmentENS_9allocatorIS3_EEE17__annotate_deleteB8ne180100Ev
FNA:47,26,_ZNKSt3__16vectorIPN7testing17TestEventListenerENS_9allocatorIS3_EEE17__annotate_deleteB8ne180100Ev
FNA:47,156,_ZNKSt3__16vectorIPN7testing8TestInfoENS_9allocatorIS3_EEE17__annotate_deleteB8ne180100Ev
FNA:47,0,_ZNKSt3__16vectorIPN7testing8internal30ParameterizedTestSuiteInfoBaseENS_9allocatorIS4_EEE17__annotate_deleteB8ne180100Ev
FNA:47,26,_ZNKSt3__16vectorIPN7testing9TestSuiteENS_9allocatorIS3_EEE17__annotate_deleteB8ne180100Ev
FNA:47,0,_ZNKSt3__16vectorIPcNS_9allocatorIS1_EEE17__annotate_deleteB8ne180100Ev
FNA:47,0,_ZNKSt3__16vectorIdNS_9allocatorIdEEE17__annotate_deleteB8ne180100Ev
FNA:47,182,_ZNKSt3__16vectorIiNS_9allocatorIiEEE17__annotate_deleteB8ne180100Ev
FNA:47,0,_ZNKSt3__16vectorImNS_9allocatorImEEE17__annotate_deleteB8ne180100Ev
FNL:48,867,872
FNA:48,650,_ZNKSt3__16vectorIN7testing12TestPropertyENS_9allocatorIS2_EEE17__annotate_shrinkB8ne180100Em
FNA:48,650,_ZNKSt3__16vectorIN7testing14TestPartResultENS_9allocatorIS2_EEE17__annotate_shrinkB8ne180100Em
FNA:48,0,_ZNKSt3__16vectorIN7testing8internal9TraceInfoENS_9allocatorIS3_EEE17__annotate_shrinkB8ne180100Em
FNA:48,26,_ZNKSt3__16vectorINS_12basic_stringIcNS_11char_traitsIcEENS_9allocatorIcEEEENS4_IS6_EEE17__annotate_shrinkB8ne180100Em
FNA:48,0,_ZNKSt3__16vectorIPN7testing17TestEventListenerENS_9allocatorIS3_EEE17__annotate_shrinkB8ne180100Em
FNL:49,875,880
FNA:49,0,_ZNSt3__16vectorIN7testing12TestPropertyENS_9allocatorIS2_EEE21_ConstructTransactionC1B8ne180100ERS5_m
FNA:49,0,_ZNSt3__16vectorIN7testing12TestPropertyENS_9allocatorIS2_EEE21_ConstructTransactionC2B8ne180100ERS5_m
FNA:49,0,_ZNSt3__16vectorIN7testing14TestPartResultENS_9allocatorIS2_EEE21_ConstructTransactionC1B8ne180100ERS5_m
FNA:49,0,_ZNSt3__16vectorIN7testing14TestPartResultENS_9allocatorIS2_EEE21_ConstructTransactionC2B8ne180100ERS5_m
FNA:49,0,_ZNSt3__16vectorIN7testing8internal13edit_distance8EditTypeENS_9allocatorIS4_EEE21_ConstructTransactionC1B8ne180100ERS7_m
FNA:49,0,_ZNSt3__16vectorIN7testing8internal13edit_distance8EditTypeENS_9allocatorIS4_EEE21_ConstructTransactionC2B8ne180100ERS7_m
FNA:49,0,_ZNSt3__16vectorIN7testing8internal9TraceInfoENS_9allocatorIS3_EEE21_ConstructTransactionC1B8ne180100ERS6_m
FNA:49,0,_ZNSt3__16vectorIN7testing8internal9TraceInfoENS_9allocatorIS3_EEE21_ConstructTransactionC2B8ne180100ERS6_m
FNA:49,0,_ZNSt3__16vectorINS0_IN7testing8internal13edit_distance8EditTypeENS_9allocatorIS4_EEEENS5_IS7_EEE21_ConstructTransactionC1B8ne180100ERS9_m
FNA:49,0,_ZNSt3__16vectorINS0_IN7testing8internal13edit_distance8EditTypeENS_9allocatorIS4_EEEENS5_IS7_EEE21_ConstructTransactionC2B8ne180100ERS9_m
FNA:49,0,_ZNSt3__16vectorINS0_IdNS_9allocatorIdEEEENS1_IS3_EEE21_ConstructTransactionC1B8ne180100ERS5_m
FNA:49,0,_ZNSt3__16vectorINS0_IdNS_9allocatorIdEEEENS1_IS3_EEE21_ConstructTransactionC2B8ne180100ERS5_m
FNA:49,131,_ZNSt3__16vectorINS_12basic_stringIcNS_11char_traitsIcEENS_9allocatorIcEEEENS4_IS6_EEE21_ConstructTransactionC1B8ne180100ERS8_m
FNA:49,131,_ZNSt3__16vectorINS_12basic_stringIcNS_11char_traitsIcEENS_9allocatorIcEEEENS4_IS6_EEE21_ConstructTransactionC2B8ne180100ERS8_m
FNA:49,0,_ZNSt3__16vectorIPN7testing11EnvironmentENS_9allocatorIS3_EEE21_ConstructTransactionC1B8ne180100ERS6_m
FNA:49,0,_ZNSt3__16vectorIPN7testing11EnvironmentENS_9allocatorIS3_EEE21_ConstructTransactionC2B8ne180100ERS6_m
FNA:49,0,_ZNSt3__16vectorIPN7testing17TestEventListenerENS_9allocatorIS3_EEE21_ConstructTransactionC1B8ne180100ERS6_m
FNA:49,0,_ZNSt3__16vectorIPN7testing17TestEventListenerENS_9allocatorIS3_EEE21_ConstructTransactionC2B8ne180100ERS6_m
FNA:49,494,_ZNSt3__16vectorIPN7testing8TestInfoENS_9allocatorIS3_EEE21_ConstructTransactionC1B8ne180100ERS6_m
FNA:49,494,_ZNSt3__16vectorIPN7testing8TestInfoENS_9allocatorIS3_EEE21_ConstructTransactionC2B8ne180100ERS6_m
FNA:49,0,_ZNSt3__16vectorIPN7testing9TestSuiteENS_9allocatorIS3_EEE21_ConstructTransactionC1B8ne180100ERS6_m
FNA:49,0,_ZNSt3__16vectorIPN7testing9TestSuiteENS_9allocatorIS3_EEE21_ConstructTransactionC2B8ne180100ERS6_m
FNA:49,0,_ZNSt3__16vectorIPcNS_9allocatorIS1_EEE21_ConstructTransactionC1B8ne180100ERS4_m
FNA:49,0,_ZNSt3__16vectorIPcNS_9allocatorIS1_EEE21_ConstructTransactionC2B8ne180100ERS4_m
FNA:49,0,_ZNSt3__16vectorIdNS_9allocatorIdEEE21_ConstructTransactionC1B8ne180100ERS3_m
FNA:49,0,_ZNSt3__16vectorIdNS_9allocatorIdEEE21_ConstructTransactionC2B8ne180100ERS3_m
FNA:49,494,_ZNSt3__16vectorIiNS_9allocatorIiEEE21_ConstructTransactionC1B8ne180100ERS3_m
FNA:49,494,_ZNSt3__16vectorIiNS_9allocatorIiEEE21_ConstructTransactionC2B8ne180100ERS3_m
FNA:49,0,_ZNSt3__16vectorImNS_9allocatorImEEE21_ConstructTransactionC1B8ne180100ERS3_m
FNA:49,0,_ZNSt3__16vectorImNS_9allocatorImEEE21_ConstructTransactionC2B8ne180100ERS3_m
FNL:50,881,888
FNA:50,0,_ZNSt3__16vectorIN7testing12TestPropertyENS_9allocatorIS2_EEE21_ConstructTransactionD1B8ne180100Ev
FNA:50,0,_ZNSt3__16vectorIN7testing12TestPropertyENS_9allocatorIS2_EEE21_ConstructTransactionD2B8ne180100Ev
FNA:50,0,_ZNSt3__16vectorIN7testing14TestPartResultENS_9allocatorIS2_EEE21_ConstructTransactionD1B8ne180100Ev
FNA:50,0,_ZNSt3__16vectorIN7testing14TestPartResultENS_9allocatorIS2_EEE21_ConstructTransactionD2B8ne180100Ev
FNA:50,0,_ZNSt3__16vectorIN7testing8internal13edit_distance8EditTypeENS_9allocatorIS4_EEE21_ConstructTransactionD1B8ne180100Ev
FNA:50,0,_ZNSt3__16vectorIN7testing8internal13edit_distance8EditTypeENS_9allocatorIS4_EEE21_ConstructTransactionD2B8ne180100Ev
FNA:50,0,_ZNSt3__16vectorIN7testing8internal9TraceInfoENS_9allocatorIS3_EEE21_ConstructTransactionD1B8ne180100Ev
FNA:50,0,_ZNSt3__16vectorIN7testing8internal9TraceInfoENS_9allocatorIS3_EEE21_ConstructTransactionD2B8ne180100Ev
FNA:50,0,_ZNSt3__16vectorINS0_IN7testing8internal13edit_distance8EditTypeENS_9allocatorIS4_EEEENS5_IS7_EEE21_ConstructTransactionD1B8ne180100Ev
FNA:50,0,_ZNSt3__16vectorINS0_IN7testing8internal13edit_distance8EditTypeENS_9allocatorIS4_EEEENS5_IS7_EEE21_ConstructTransactionD2B8ne180100Ev
FNA:50,0,_ZNSt3__16vectorINS0_IdNS_9allocatorIdEEEENS1_IS3_EEE21_ConstructTransactionD1B8ne180100Ev
FNA:50,0,_ZNSt3__16vectorINS0_IdNS_9allocatorIdEEEENS1_IS3_EEE21_ConstructTransactionD2B8ne180100Ev
FNA:50,131,_ZNSt3__16vectorINS_12basic_stringIcNS_11char_traitsIcEENS_9allocatorIcEEEENS4_IS6_EEE21_ConstructTransactionD1B8ne180100Ev
FNA:50,131,_ZNSt3__16vectorINS_12basic_stringIcNS_11char_traitsIcEENS_9allocatorIcEEEENS4_IS6_EEE21_ConstructTransactionD2B8ne180100Ev
FNA:50,0,_ZNSt3__16vectorIPN7testing11EnvironmentENS_9allocatorIS3_EEE21_ConstructTransactionD1B8ne180100Ev
FNA:50,0,_ZNSt3__16vectorIPN7testing11EnvironmentENS_9allocatorIS3_EEE21_ConstructTransactionD2B8ne180100Ev
FNA:50,0,_ZNSt3__16vectorIPN7testing17TestEventListenerENS_9allocatorIS3_EEE21_ConstructTransactionD1B8ne180100Ev
FNA:50,0,_ZNSt3__16vectorIPN7testing17TestEventListenerENS_9allocatorIS3_EEE21_ConstructTransactionD2B8ne180100Ev
FNA:50,494,_ZNSt3__16vectorIPN7testing8TestInfoENS_9allocatorIS3_EEE21_ConstructTransactionD1B8ne180100Ev
FNA:50,494,_ZNSt3__16vectorIPN7testing8TestInfoENS_9allocatorIS3_EEE21_ConstructTransactionD2B8ne180100Ev
FNA:50,0,_ZNSt3__16vectorIPN7testing9TestSuiteENS_9allocatorIS3_EEE21_ConstructTransactionD1B8ne180100Ev
FNA:50,0,_ZNSt3__16vectorIPN7testing9TestSuiteENS_9allocatorIS3_EEE21_ConstructTransactionD2B8ne180100Ev
FNA:50,0,_ZNSt3__16vectorIPcNS_9allocatorIS1_EEE21_ConstructTransactionD1B8ne180100Ev
FNA:50,0,_ZNSt3__16vectorIPcNS_9allocatorIS1_EEE21_ConstructTransactionD2B8ne180100Ev
FNA:50,0,_ZNSt3__16vectorIdNS_9allocatorIdEEE21_ConstructTransactionD1B8ne180100Ev
FNA:50,0,_ZNSt3__16vectorIdNS_9allocatorIdEEE21_ConstructTransactionD2B8ne180100Ev
FNA:50,494,_ZNSt3__16vectorIiNS_9allocatorIiEEE21_ConstructTransactionD1B8ne180100Ev
FNA:50,494,_ZNSt3__16vectorIiNS_9allocatorIiEEE21_ConstructTransactionD2B8ne180100Ev
FNA:50,0,_ZNSt3__16vectorImNS_9allocatorImEEE21_ConstructTransactionD1B8ne180100Ev
FNA:50,0,_ZNSt3__16vectorImNS_9allocatorImEEE21_ConstructTransactionD2B8ne180100Ev
FNL:51,900,904
FNA:51,0,_ZNSt3__16vectorIN7testing12TestPropertyENS_9allocatorIS2_EEE22__construct_one_at_endB8ne180100IJRKS2_EEEvDpOT_
FNA:51,0,_ZNSt3__16vectorIN7testing14TestPartResultENS_9allocatorIS2_EEE22__construct_one_at_endB8ne180100IJRKS2_EEEvDpOT_
FNA:51,0,_ZNSt3__16vectorIN7testing8internal13edit_distance8EditTypeENS_9allocatorIS4_EEE22__construct_one_at_endB8ne180100IJRKS4_EEEvDpOT_
FNA:51,0,_ZNSt3__16vectorIN7testing8internal9TraceInfoENS_9allocatorIS3_EEE22__construct_one_at_endB8ne180100IJRKS3_EEEvDpOT_
FNA:51,105,_ZNSt3__16vectorINS_12basic_stringIcNS_11char_traitsIcEENS_9allocatorIcEEEENS4_IS6_EEE22__construct_one_at_endB8ne180100IJS6_EEEvDpOT_
FNA:51,0,_ZNSt3__16vectorIPN7testing11EnvironmentENS_9allocatorIS3_EEE22__construct_one_at_endB8ne180100IJRKS3_EEEvDpOT_
FNA:51,0,_ZNSt3__16vectorIPN7testing17TestEventListenerENS_9allocatorIS3_EEE22__construct_one_at_endB8ne180100IJRKS3_EEEvDpOT_
FNA:51,494,_ZNSt3__16vectorIPN7testing8TestInfoENS_9allocatorIS3_EEE22__construct_one_at_endB8ne180100IJRKS3_EEEvDpOT_
FNA:51,0,_ZNSt3__16vectorIPN7testing9TestSuiteENS_9allocatorIS3_EEE22__construct_one_at_endB8ne180100IJRKS3_EEEvDpOT_
FNA:51,0,_ZNSt3__16vectorIPcNS_9allocatorIS1_EEE22__construct_one_at_endB8ne180100IJS1_EEEvDpOT_
FNA:51,494,_ZNSt3__16vectorIiNS_9allocatorIiEEE22__construct_one_at_endB8ne180100IJiEEEvDpOT_
FNA:51,0,_ZNSt3__16vectorImNS_9allocatorImEEE22__construct_one_at_endB8ne180100IJmEEEvDpOT_
FNL:52,906,907
FNA:52,0,_ZNSt3__16vectorIN7testing12TestPropertyENS_9allocatorIS2_EEE7__allocB8ne180100Ev
FNA:52,0,_ZNSt3__16vectorIN7testing14TestPartResultENS_9allocatorIS2_EEE7__allocB8ne180100Ev
FNA:52,0,_ZNSt3__16vectorIN7testing8internal13edit_distance8EditTypeENS_9allocatorIS4_EEE7__allocB8ne180100Ev
FNA:52,0,_ZNSt3__16vectorIN7testing8internal9TraceInfoENS_9allocatorIS3_EEE7__allocB8ne180100Ev
FNA:52,0,_ZNSt3__16vectorINS0_IN7testing8internal13edit_distance8EditTypeENS_9allocatorIS4_EEEENS5_IS7_EEE7__allocB8ne180100Ev
FNA:52,0,_ZNSt3__16vectorINS0_IdNS_9allocatorIdEEEENS1_IS3_EEE7__allocB8ne180100Ev
FNA:52,1510,_ZNSt3__16vectorINS_12basic_stringIcNS_11char_traitsIcEENS_9allocatorIcEEEENS4_IS6_EEE7__allocB8ne180100Ev
FNA:52,0,_ZNSt3__16vectorIPN7testing11EnvironmentENS_9allocatorIS3_EEE7__allocB8ne180100Ev
FNA:52,52,_ZNSt3__16vectorIPN7testing17TestEventListenerENS_9allocatorIS3_EEE7__allocB8ne180100Ev
FNA:52,806,_ZNSt3__16vectorIPN7testing8TestInfoENS_9allocatorIS3_EEE7__allocB8ne180100Ev
FNA:52,0,_ZNSt3__16vectorIPN7testing8internal30ParameterizedTestSuiteInfoBaseENS_9allocatorIS4_EEE7__allocB8ne180100Ev
FNA:52,52,_ZNSt3__16vectorIPN7testing9TestSuiteENS_9allocatorIS3_EEE7__allocB8ne180100Ev
FNA:52,0,_ZNSt3__16vectorIPcNS_9allocatorIS1_EEE7__allocB8ne180100Ev
FNA:52,0,_ZNSt3__16vectorIdNS_9allocatorIdEEE7__allocB8ne180100Ev
FNA:52,858,_ZNSt3__16vectorIiNS_9allocatorIiEEE7__allocB8ne180100Ev
FNA:52,0,_ZNSt3__16vectorImNS_9allocatorImEEE7__allocB8ne180100Ev
FNL:53,909,910
FNA:53,0,_ZNKSt3__16vectorIN7testing12TestPropertyENS_9allocatorIS2_EEE7__allocB8ne180100Ev
FNA:53,0,_ZNKSt3__16vectorIN7testing14TestPartResultENS_9allocatorIS2_EEE7__allocB8ne180100Ev
FNA:53,0,_ZNKSt3__16vectorIN7testing8internal13edit_distance8EditTypeENS_9allocatorIS4_EEE7__allocB8ne180100Ev
FNA:53,0,_ZNKSt3__16vectorIN7testing8internal9TraceInfoENS_9allocatorIS3_EEE7__allocB8ne180100Ev
FNA:53,0,_ZNKSt3__16vectorINS0_IN7testing8internal13edit_distance8EditTypeENS_9allocatorIS4_EEEENS5_IS7_EEE7__allocB8ne180100Ev
FNA:53,0,_ZNKSt3__16vectorINS0_IdNS_9allocatorIdEEEENS1_IS3_EEE7__allocB8ne180100Ev
FNA:53,364,_ZNKSt3__16vectorINS_12basic_stringIcNS_11char_traitsIcEENS_9allocatorIcEEEENS4_IS6_EEE7__allocB8ne180100Ev
FNA:53,0,_ZNKSt3__16vectorIPN7testing11EnvironmentENS_9allocatorIS3_EEE7__allocB8ne180100Ev
FNA:53,26,_ZNKSt3__16vectorIPN7testing17TestEventListenerENS_9allocatorIS3_EEE7__allocB8ne180100Ev
FNA:53,156,_ZNKSt3__16vectorIPN7testing8TestInfoENS_9allocatorIS3_EEE7__allocB8ne180100Ev
FNA:53,26,_ZNKSt3__16vectorIPN7testing9TestSuiteENS_9allocatorIS3_EEE7__allocB8ne180100Ev
FNA:53,0,_ZNKSt3__16vectorIPcNS_9allocatorIS1_EEE7__allocB8ne180100Ev
FNA:53,0,_ZNKSt3__16vectorIdNS_9allocatorIdEEE7__allocB8ne180100Ev
FNA:53,182,_ZNKSt3__16vectorIiNS_9allocatorIiEEE7__allocB8ne180100Ev
FNA:53,0,_ZNKSt3__16vectorImNS_9allocatorImEEE7__allocB8ne180100Ev
FNL:54,912,913
FNA:54,0,_ZNSt3__16vectorIN7testing12TestPropertyENS_9allocatorIS2_EEE9__end_capB8ne180100Ev
FNA:54,0,_ZNSt3__16vectorIN7testing14TestPartResultENS_9allocatorIS2_EEE9__end_capB8ne180100Ev
FNA:54,0,_ZNSt3__16vectorIN7testing8internal13edit_distance8EditTypeENS_9allocatorIS4_EEE9__end_capB8ne180100Ev
FNA:54,0,_ZNSt3__16vectorIN7testing8internal9TraceInfoENS_9allocatorIS3_EEE9__end_capB8ne180100Ev
FNA:54,0,_ZNSt3__16vectorINS0_IN7testing8internal13edit_distance8EditTypeENS_9allocatorIS4_EEEENS5_IS7_EEE9__end_capB8ne180100Ev
FNA:54,0,_ZNSt3__16vectorINS0_IdNS_9allocatorIdEEEENS1_IS3_EEE9__end_capB8ne180100Ev
FNA:54,936,_ZNSt3__16vectorINS_12basic_stringIcNS_11char_traitsIcEENS_9allocatorIcEEEENS4_IS6_EEE9__end_capB8ne180100Ev
FNA:54,0,_ZNSt3__16vectorIPN7testing11EnvironmentENS_9allocatorIS3_EEE9__end_capB8ne180100Ev
FNA:54,52,_ZNSt3__16vectorIPN7testing17TestEventListenerENS_9allocatorIS3_EEE9__end_capB8ne180100Ev
FNA:54,806,_ZNSt3__16vectorIPN7testing8TestInfoENS_9allocatorIS3_EEE9__end_capB8ne180100Ev
FNA:54,52,_ZNSt3__16vectorIPN7testing9TestSuiteENS_9allocatorIS3_EEE9__end_capB8ne180100Ev
FNA:54,0,_ZNSt3__16vectorIPcNS_9allocatorIS1_EEE9__end_capB8ne180100Ev
FNA:54,0,_ZNSt3__16vectorIdNS_9allocatorIdEEE9__end_capB8ne180100Ev
FNA:54,858,_ZNSt3__16vectorIiNS_9allocatorIiEEE9__end_capB8ne180100Ev
FNA:54,0,_ZNSt3__16vectorImNS_9allocatorImEEE9__end_capB8ne180100Ev
FNL:55,915,916
FNA:55,0,_ZNKSt3__16vectorIN7testing12TestPropertyENS_9allocatorIS2_EEE9__end_capB8ne180100Ev
FNA:55,0,_ZNKSt3__16vectorIN7testing14TestPartResultENS_9allocatorIS2_EEE9__end_capB8ne180100Ev
FNA:55,0,_ZNKSt3__16vectorIN7testing8internal13edit_distance8EditTypeENS_9allocatorIS4_EEE9__end_capB8ne180100Ev
FNA:55,0,_ZNKSt3__16vectorIN7testing8internal9TraceInfoENS_9allocatorIS3_EEE9__end_capB8ne180100Ev
FNA:55,0,_ZNKSt3__16vectorINS0_IN7testing8internal13edit_distance8EditTypeENS_9allocatorIS4_EEEENS5_IS7_EEE9__end_capB8ne180100Ev
FNA:55,0,_ZNKSt3__16vectorINS0_IdNS_9allocatorIdEEEENS1_IS3_EEE9__end_capB8ne180100Ev
FNA:55,494,_ZNKSt3__16vectorINS_12basic_stringIcNS_11char_traitsIcEENS_9allocatorIcEEEENS4_IS6_EEE9__end_capB8ne180100Ev
FNA:55,0,_ZNKSt3__16vectorIPN7testing11EnvironmentENS_9allocatorIS3_EEE9__end_capB8ne180100Ev
FNA:55,26,_ZNKSt3__16vectorIPN7testing17TestEventListenerENS_9allocatorIS3_EEE9__end_capB8ne180100Ev
FNA:55,156,_ZNKSt3__16vectorIPN7testing8TestInfoENS_9allocatorIS3_EEE9__end_capB8ne180100Ev
FNA:55,0,_ZNKSt3__16vectorIPN7testing8internal30ParameterizedTestSuiteInfoBaseENS_9allocatorIS4_EEE9__end_capB8ne180100Ev
FNA:55,26,_ZNKSt3__16vectorIPN7testing9TestSuiteENS_9allocatorIS3_EEE9__end_capB8ne180100Ev
FNA:55,0,_ZNKSt3__16vectorIPcNS_9allocatorIS1_EEE9__end_capB8ne180100Ev
FNA:55,0,_ZNKSt3__16vectorIdNS_9allocatorIdEEE9__end_capB8ne180100Ev
FNA:55,182,_ZNKSt3__16vectorIiNS_9allocatorIiEEE9__end_capB8ne180100Ev
FNA:55,0,_ZNKSt3__16vectorImNS_9allocatorImEEE9__end_capB8ne180100Ev
FNL:56,919,921
FNA:56,650,_ZNSt3__16vectorIN7testing12TestPropertyENS_9allocatorIS2_EEE7__clearB8ne180100Ev
FNA:56,650,_ZNSt3__16vectorIN7testing14TestPartResultENS_9allocatorIS2_EEE7__clearB8ne180100Ev
FNA:56,0,_ZNSt3__16vectorIN7testing8internal13edit_distance8EditTypeENS_9allocatorIS4_EEE7__clearB8ne180100Ev
FNA:56,0,_ZNSt3__16vectorIN7testing8internal9TraceInfoENS_9allocatorIS3_EEE7__clearB8ne180100Ev
FNA:56,0,_ZNSt3__16vectorINS0_IN7testing8internal13edit_distance8EditTypeENS_9allocatorIS4_EEEENS5_IS7_EEE7__clearB8ne180100Ev
FNA:56,0,_ZNSt3__16vectorINS0_IdNS_9allocatorIdEEEENS1_IS3_EEE7__clearB8ne180100Ev
FNA:56,209,_ZNSt3__16vectorINS_12basic_stringIcNS_11char_traitsIcEENS_9allocatorIcEEEENS4_IS6_EEE7__clearB8ne180100Ev
FNA:56,0,_ZNSt3__16vectorIPN7testing11EnvironmentENS_9allocatorIS3_EEE7__clearB8ne180100Ev
FNA:56,0,_ZNSt3__16vectorIPN7testing17TestEventListenerENS_9allocatorIS3_EEE7__clearB8ne180100Ev
FNA:56,0,_ZNSt3__16vectorIPN7testing8TestInfoENS_9allocatorIS3_EEE7__clearB8ne180100Ev
FNA:56,0,_ZNSt3__16vectorIPN7testing8internal30ParameterizedTestSuiteInfoBaseENS_9allocatorIS4_EEE7__clearB8ne180100Ev
FNA:56,0,_ZNSt3__16vectorIPN7testing9TestSuiteENS_9allocatorIS3_EEE7__clearB8ne180100Ev
FNA:56,0,_ZNSt3__16vectorIPcNS_9allocatorIS1_EEE7__clearB8ne180100Ev
FNA:56,0,_ZNSt3__16vectorIdNS_9allocatorIdEEE7__clearB8ne180100Ev
FNA:56,0,_ZNSt3__16vectorIiNS_9allocatorIiEEE7__clearB8ne180100Ev
FNA:56,0,_ZNSt3__16vectorImNS_9allocatorImEEE7__clearB8ne180100Ev
FNL:57,923,928
FNA:57,650,_ZNSt3__16vectorIN7testing12TestPropertyENS_9allocatorIS2_EEE22__base_destruct_at_endB8ne180100EPS2_
FNA:57,650,_ZNSt3__16vectorIN7testing14TestPartResultENS_9allocatorIS2_EEE22__base_destruct_at_endB8ne180100EPS2_
FNA:57,0,_ZNSt3__16vectorIN7testing8internal13edit_distance8EditTypeENS_9allocatorIS4_EEE22__base_destruct_at_endB8ne180100EPS4_
FNA:57,0,_ZNSt3__16vectorIN7testing8internal9TraceInfoENS_9allocatorIS3_EEE22__base_destruct_at_endB8ne180100EPS3_
FNA:57,0,_ZNSt3__16vectorINS0_IN7testing8internal13edit_distance8EditTypeENS_9allocatorIS4_EEEENS5_IS7_EEE22__base_destruct_at_endB8ne180100EPS7_
FNA:57,0,_ZNSt3__16vectorINS0_IdNS_9allocatorIdEEEENS1_IS3_EEE22__base_destruct_at_endB8ne180100EPS3_
FNA:57,209,_ZNSt3__16vectorINS_12basic_stringIcNS_11char_traitsIcEENS_9allocatorIcEEEENS4_IS6_EEE22__base_destruct_at_endB8ne180100EPS6_
FNA:57,0,_ZNSt3__16vectorIPN7testing11EnvironmentENS_9allocatorIS3_EEE22__base_destruct_at_endB8ne180100EPS3_
FNA:57,0,_ZNSt3__16vectorIPN7testing17TestEventListenerENS_9allocatorIS3_EEE22__base_destruct_at_endB8ne180100EPS3_
FNA:57,0,_ZNSt3__16vectorIPN7testing8TestInfoENS_9allocatorIS3_EEE22__base_destruct_at_endB8ne180100EPS3_
FNA:57,0,_ZNSt3__16vectorIPN7testing8internal30ParameterizedTestSuiteInfoBaseENS_9allocatorIS4_EEE22__base_destruct_at_endB8ne180100EPS4_
FNA:57,0,_ZNSt3__16vectorIPN7testing9TestSuiteENS_9allocatorIS3_EEE22__base_destruct_at_endB8ne180100EPS3_
FNA:57,0,_ZNSt3__16vectorIPcNS_9allocatorIS1_EEE22__base_destruct_at_endB8ne180100EPS1_
FNA:57,0,_ZNSt3__16vectorIdNS_9allocatorIdEEE22__base_destruct_at_endB8ne180100EPd
FNA:57,0,_ZNSt3__16vectorIiNS_9allocatorIiEEE22__base_destruct_at_endB8ne180100EPi
FNA:57,0,_ZNSt3__16vectorImNS_9allocatorImEEE22__base_destruct_at_endB8ne180100EPm
FNL:58,934,938
FNA:58,26,_ZNSt3__16vectorINS_12basic_stringIcNS_11char_traitsIcEENS_9allocatorIcEEEENS4_IS6_EEE19__move_assign_allocB8ne180100ERS8_
FNL:59,940,940
FNA:59,0,_ZNKSt3__16vectorIN7testing12TestPropertyENS_9allocatorIS2_EEE20__throw_length_errorB8ne180100Ev
FNA:59,0,_ZNKSt3__16vectorIN7testing14TestPartResultENS_9allocatorIS2_EEE20__throw_length_errorB8ne180100Ev
FNA:59,0,_ZNKSt3__16vectorIN7testing8internal13edit_distance8EditTypeENS_9allocatorIS4_EEE20__throw_length_errorB8ne180100Ev
FNA:59,0,_ZNKSt3__16vectorIN7testing8internal9TraceInfoENS_9allocatorIS3_EEE20__throw_length_errorB8ne180100Ev
FNA:59,0,_ZNKSt3__16vectorINS0_IN7testing8internal13edit_distance8EditTypeENS_9allocatorIS4_EEEENS5_IS7_EEE20__throw_length_errorB8ne180100Ev
FNA:59,0,_ZNKSt3__16vectorINS0_IdNS_9allocatorIdEEEENS1_IS3_EEE20__throw_length_errorB8ne180100Ev
FNA:59,0,_ZNKSt3__16vectorINS_12basic_stringIcNS_11char_traitsIcEENS_9allocatorIcEEEENS4_IS6_EEE20__throw_length_errorB8ne180100Ev
FNA:59,0,_ZNKSt3__16vectorIPN7testing11EnvironmentENS_9allocatorIS3_EEE20__throw_length_errorB8ne180100Ev
FNA:59,0,_ZNKSt3__16vectorIPN7testing17TestEventListenerENS_9allocatorIS3_EEE20__throw_length_errorB8ne180100Ev
FNA:59,0,_ZNKSt3__16vectorIPN7testing8TestInfoENS_9allocatorIS3_EEE20__throw_length_errorB8ne180100Ev
FNA:59,0,_ZNKSt3__16vectorIPN7testing9TestSuiteENS_9allocatorIS3_EEE20__throw_length_errorB8ne180100Ev
FNA:59,0,_ZNKSt3__16vectorIPcNS_9allocatorIS1_EEE20__throw_length_errorB8ne180100Ev
FNA:59,0,_ZNKSt3__16vectorIdNS_9allocatorIdEEE20__throw_length_errorB8ne180100Ev
FNA:59,0,_ZNKSt3__16vectorIiNS_9allocatorIiEEE20__throw_length_errorB8ne180100Ev
FNA:59,0,_ZNKSt3__16vectorImNS_9allocatorImEEE20__throw_length_errorB8ne180100Ev
FNL:60,942,942
FNA:60,0,_ZNKSt3__16vectorIN7testing12TestPropertyENS_9allocatorIS2_EEE20__throw_out_of_rangeB8ne180100Ev
FNA:60,0,_ZNKSt3__16vectorIN7testing14TestPartResultENS_9allocatorIS2_EEE20__throw_out_of_rangeB8ne180100Ev
FNL:61,956,959
FNA:61,26,_ZNSt3__16vectorINS_12basic_stringIcNS_11char_traitsIcEENS_9allocatorIcEEEENS4_IS6_EEE19__move_assign_allocB8ne180100ERS8_NS_17integral_constantIbLb1EEE
FNL:62,987,998
FNA:62,0,_ZNSt3__16vectorIN7testing12TestPropertyENS_9allocatorIS2_EEE26__swap_out_circular_bufferERNS_14__split_bufferIS2_RS4_EE
FNA:62,0,_ZNSt3__16vectorIN7testing14TestPartResultENS_9allocatorIS2_EEE26__swap_out_circular_bufferERNS_14__split_bufferIS2_RS4_EE
FNA:62,0,_ZNSt3__16vectorIN7testing8internal13edit_distance8EditTypeENS_9allocatorIS4_EEE26__swap_out_circular_bufferERNS_14__split_bufferIS4_RS6_EE
FNA:62,0,_ZNSt3__16vectorIN7testing8internal9TraceInfoENS_9allocatorIS3_EEE26__swap_out_circular_bufferERNS_14__split_bufferIS3_RS5_EE
FNA:62,286,_ZNSt3__16vectorINS_12basic_stringIcNS_11char_traitsIcEENS_9allocatorIcEEEENS4_IS6_EEE26__swap_out_circular_bufferERNS_14__split_bufferIS6_RS7_EE
FNA:62,0,_ZNSt3__16vectorIPN7testing11EnvironmentENS_9allocatorIS3_EEE26__swap_out_circular_bufferERNS_14__split_bufferIS3_RS5_EE
FNA:62,26,_ZNSt3__16vectorIPN7testing17TestEventListenerENS_9allocatorIS3_EEE26__swap_out_circular_bufferERNS_14__split_bufferIS3_RS5_EE
FNA:62,156,_ZNSt3__16vectorIPN7testing8TestInfoENS_9allocatorIS3_EEE26__swap_out_circular_bufferERNS_14__split_bufferIS3_RS5_EE
FNA:62,26,_ZNSt3__16vectorIPN7testing9TestSuiteENS_9allocatorIS3_EEE26__swap_out_circular_bufferERNS_14__split_bufferIS3_RS5_EE
FNA:62,0,_ZNSt3__16vectorIPcNS_9allocatorIS1_EEE26__swap_out_circular_bufferERNS_14__split_bufferIS1_RS3_EE
FNA:62,182,_ZNSt3__16vectorIiNS_9allocatorIiEEE26__swap_out_circular_bufferERNS_14__split_bufferIiRS2_EE
FNA:62,0,_ZNSt3__16vectorImNS_9allocatorImEEE26__swap_out_circular_bufferERNS_14__split_bufferImRS2_EE
FNF:63
FNH:48
DA:415,3900
DA:416,3900
DA:486,884
DA:488,390
DA:489,390
DA:490,183
DA:491,183
DA:492,183
DA:493,183
DA:494,390
DA:501,780
DA:574,675
DA:575,675
DA:580,1325
DA:581,1325
DA:587,0
DA:594,8060
DA:595,8060
DA:597,884
DA:598,884
DA:612,26
DA:614,26
DA:707,1326
DA:708,1326
DA:709,1326
DA:710,1326
DA:711,1326
DA:726,2002
DA:727,2002
DA:728,1950
DA:729,1950
DA:738,26
DA:739,26
DA:740,0
DA:741,26
DA:742,26
DA:743,26
DA:744,26
DA:745,26
DA:746,26
DA:755,52
DA:756,52
DA:758,52
DA:759,26
DA:760,26
DA:761,26
DA:763,52
DA:764,52
DA:798,2784
DA:799,2784
DA:801,10977
DA:802,10977
DA:814,0
DA:815,0
DA:816,0
DA:817,0
DA:818,0
DA:847,702
DA:852,702
DA:854,859
DA:858,859
DA:867,1326
DA:872,1326
DA:875,2238
DA:876,2238
DA:880,2238
DA:881,2238
DA:882,1119
DA:888,2238
DA:900,1093
DA:901,1093
DA:902,1093
DA:903,1093
DA:904,1093
DA:906,3278
DA:907,3278
DA:909,754
DA:910,754
DA:912,2704
DA:913,2704
DA:915,884
DA:916,884
DA:919,1509
DA:920,1509
DA:921,1509
DA:923,1509
DA:924,1509
DA:925,1847
DA:926,338
DA:927,1509
DA:928,1509
DA:934,26
DA:937,26
DA:938,26
DA:940,0
DA:942,0
DA:956,26
DA:958,26
DA:959,26
DA:987,676
DA:988,676
DA:990,1352
DA:991,676
DA:992,676
DA:993,676
DA:994,676
DA:995,676
DA:996,676
DA:997,676
DA:998,676
DA:1002,0
DA:1003,0
DA:1004,0
DA:1006,0
DA:1007,0
DA:1008,0
DA:1009,0
DA:1010,0
DA:1011,0
DA:1012,0
DA:1013,0
DA:1014,0
DA:1015,0
DA:1019,26
DA:1020,26
DA:1021,0
DA:1022,0
DA:1023,0
DA:1024,0
DA:1025,0
DA:1026,26
DA:1030,702
DA:1031,702
DA:1037,623
DA:1038,623
DA:1039,623
DA:1040,0
DA:1041,623
DA:1042,623
DA:1043,0
DA:1044,623
DA:1045,623
DA:1053,0
DA:1054,0
DA:1055,0
DA:1056,0
DA:1057,0
DA:1058,0
DA:1059,0
DA:1069,0
DA:1070,0
DA:1071,0
DA:1072,0
DA:1073,0
DA:1074,0
DA:1075,0
DA:1080,26
DA:1081,26
DA:1082,26
DA:1083,26
DA:1118,0
DA:1119,0
DA:1120,0
DA:1121,0
DA:1122,0
DA:1123,0
DA:1124,0
DA:1125,0
DA:1141,0
DA:1142,0
DA:1143,0
DA:1144,0
DA:1145,0
DA:1146,0
DA:1147,0
DA:1148,0
DA:1175,0
DA:1176,0
DA:1177,0
DA:1178,0
DA:1193,104
DA:1194,104
DA:1195,52
DA:1196,104
DA:1265,26
DA:1267,26
DA:1268,26
DA:1282,26
DA:1284,26
DA:1285,26
DA:1286,26
DA:1287,26
DA:1288,26
DA:1289,26
DA:1290,26
DA:1368,1795
DA:1369,1795
DA:1374,2626
DA:1375,2626
DA:1380,884
DA:1381,884
DA:1386,8351
DA:1387,8351
DA:1392,2350
DA:1394,2350
DA:1399,800
DA:1401,800
DA:1413,0
DA:1414,0
DA:1415,0
DA:1416,0
DA:1420,78
DA:1421,78
DA:1422,53
DA:1423,0
DA:1424,53
DA:1425,53
DA:1426,53
DA:1427,53
DA:1428,78
DA:1449,623
DA:1450,623
DA:1451,623
DA:1453,623
DA:1454,623
DA:1455,623
DA:1456,623
DA:1457,623
DA:1461,702
DA:1462,702
DA:1463,702
DA:1464,494
DA:1465,494
DA:1466,494
DA:1467,208
DA:1469,702
DA:1470,702
DA:1473,909
DA:1474,909
DA:1475,909
DA:1476,494
DA:1477,494
DA:1478,494
DA:1479,415
DA:1481,909
DA:1482,909
DA:1520,0
DA:1522,0
DA:1523,0
DA:1527,0
DA:1530,0
DA:1531,0
DA:1532,0
DA:1533,0
DA:1549,0
DA:1550,0
DA:1551,0
DA:1553,0
DA:1554,0
DA:1555,0
DA:1556,0
DA:1557,0
DA:1558,0
DA:1559,0
DA:1560,0
DA:1564,0
DA:1565,0
DA:1567,0
DA:1568,0
DA:1569,0
DA:1570,0
DA:1571,0
DA:1572,0
DA:1573,0
DA:1574,0
DA:1575,0
DA:1577,0
DA:1578,0
DA:1579,0
DA:1580,0
DA:1581,0
DA:1582,0
DA:1583,0
DA:1584,0
DA:1588,105
DA:1589,105
DA:1590,105
DA:1591,105
DA:1592,105
DA:1593,105
DA:1594,0
DA:1595,0
DA:1597,105
DA:1598,0
DA:1599,0
DA:1600,0
DA:1601,0
DA:1602,0
DA:1603,105
DA:1604,0
DA:1765,104
DA:1776,104
DA:1777,104
DA:1778,104
DA:1779,104
DA:1780,104
DA:1781,104
LF:307
LH:193
end_of_record
TN:
SF:/Library/Developer/CommandLineTools/SDKs/MacOSX15.1.sdk/usr/include/c++/v1/wchar.h
FNL:0,178,179
FNA:0,0,_Z15__libcpp_wcsstrB8ne180100PKwS0_
FNL:1,182,183
FNA:1,0,_Z6wcsstrB8ne180100Ua9enable_ifIXLb1EEEPKwS0_
FNF:2
FNH:0
DA:178,0
DA:179,0
DA:182,0
DA:183,0
LF:4
LH:0
end_of_record
TN:
SF:/Users/trisha/Desktop/nsu/oop/oop_git/lab1/build/_deps/googletest-src/googletest/include/gtest/gtest-assertion-result.h
FNL:0,133
FNA:0,145,_ZN7testing15AssertionResultD1Ev
FNA:0,145,_ZN7testing15AssertionResultD2Ev
FNL:1,155
FNA:1,145,_ZN7testing15AssertionResultC1IbEERKT_PNSt3__19enable_ifIXntsr3std14is_convertibleIS2_S0_EE5valueEvE4typeE
FNA:1,145,_ZN7testing15AssertionResultC2IbEERKT_PNSt3__19enable_ifIXntsr3std14is_convertibleIS2_S0_EE5valueEvE4typeE
FNL:2,174
FNA:2,145,_ZNK7testing15AssertionResultcvbEv
FNL:3,183
FNA:3,0,_ZNK7testing15AssertionResult7messageEv
FNL:4,187
FNA:4,0,_ZNK7testing15AssertionResult15failure_messageEv
FNL:5,191
FNA:5,0,_ZN7testing15AssertionResultlsIA100_cEERS0_RKT_
FNA:5,0,_ZN7testing15AssertionResultlsIA106_cEERS0_RKT_
FNA:5,0,_ZN7testing15AssertionResultlsIA11_cEERS0_RKT_
FNA:5,0,_ZN7testing15AssertionResultlsIA12_cEERS0_RKT_
FNA:5,0,_ZN7testing15AssertionResultlsIA13_cEERS0_RKT_
FNA:5,0,_ZN7testing15AssertionResultlsIA14_cEERS0_RKT_
FNA:5,0,_ZN7testing15AssertionResultlsIA15_cEERS0_RKT_
FNA:5,0,_ZN7testing15AssertionResultlsIA16_cEERS0_RKT_
FNA:5,0,_ZN7testing15AssertionResultlsIA17_cEERS0_RKT_
FNA:5,0,_ZN7testing15AssertionResultlsIA24_cEERS0_RKT_
FNA:5,0,_ZN7testing15AssertionResultlsIA27_cEERS0_RKT_
FNA:5,0,_ZN7testing15AssertionResultlsIA29_cEERS0_RKT_
FNA:5,0,_ZN7testing15AssertionResultlsIA2_cEERS0_RKT_
FNA:5,0,_ZN7testing15AssertionResultlsIA3_cEERS0_RKT_
FNA:5,0,_ZN7testing15AssertionResultlsIA5_cEERS0_RKT_
FNA:5,0,_ZN7testing15AssertionResultlsIA6_cEERS0_RKT_
FNA:5,0,_ZN7testing15AssertionResultlsIA7_cEERS0_RKT_
FNA:5,0,_ZN7testing15AssertionResultlsIA9_cEERS0_RKT_
FNA:5,0,_ZN7testing15AssertionResultlsINS_14TestPartResultEEERS0_RKT_
FNA:5,0,_ZN7testing15AssertionResultlsINS_7MessageEEERS0_RKT_
FNA:5,0,_ZN7testing15AssertionResultlsINSt3__112basic_stringIcNS2_11char_traitsIcEENS2_9allocatorIcEEEEEERS0_RKT_
FNA:5,0,_ZN7testing15AssertionResultlsINSt3__112basic_stringIwNS2_11char_traitsIwEENS2_9allocatorIwEEEEEERS0_RKT_
FNA:5,0,_ZN7testing15AssertionResultlsIPKcEERS0_RKT_
FNA:5,0,_ZN7testing15AssertionResultlsIPKwEERS0_RKT_
FNA:5,0,_ZN7testing15AssertionResultlsIdEERS0_RKT_
FNL:6,206
FNA:6,0,_ZN7testing15AssertionResult13AppendMessageERKNS_7MessageE
FNF:7
FNH:3
DA:155,435
DA:161,435
DA:174,145
DA:183,0
DA:184,0
DA:187,0
DA:191,0
DA:192,0
DA:193,0
DA:194,0
DA:206,0
DA:207,0
DA:208,0
DA:209,0
LF:14
LH:3
end_of_record
TN:
SF:/Users/trisha/Desktop/nsu/oop/oop_git/lab1/build/_deps/googletest-src/googletest/include/gtest/gtest-matchers.h
FNL:0,109,109
FNA:0,0,_ZN7testing19MatchResultListenerD2Ev
FNL:1,113
FNA:1,0,_ZN7testing25MatcherDescriberInterfaceC2Ev
FNL:2,115,115
FNA:2,0,_ZN7testing25MatcherDescriberInterfaceD0Ev
FNA:2,0,_ZN7testing25MatcherDescriberInterfaceD1Ev
FNA:2,0,_ZN7testing25MatcherDescriberInterfaceD2Ev
FNL:3,130,134
FNA:3,0,_ZNK7testing25MatcherDescriberInterface18DescribeNegationToEPNSt3__113basic_ostreamIcNS1_11char_traitsIcEEEE
FNL:4,183,184
FNA:4,0,_ZNK7testing8internal5AnyEqclINSt3__112basic_stringIcNS3_11char_traitsIcEENS3_9allocatorIcEEEES9_EEbRKT_RKT0_
FNA:4,0,_ZNK7testing8internal5AnyEqclINSt3__117basic_string_viewIcNS3_11char_traitsIcEEEENS3_12basic_stringIcS6_NS3_9allocatorIcEEEEEEbRKT_RKT0_
FNL:5,219
FNA:5,0,_ZN7testing8internal24DummyMatchResultListenerD0Ev
FNA:5,0,_ZN7testing8internal24DummyMatchResultListenerD1Ev
FNA:5,0,_ZN7testing8internal24DummyMatchResultListenerD2Ev
FNL:6,221,221
FNA:6,0,_ZN7testing8internal24DummyMatchResultListenerC1Ev
FNA:6,0,_ZN7testing8internal24DummyMatchResultListenerC2Ev
FNL:7,242,243
FNA:7,0,_ZN7testing8internal17SharedPayloadBaseC2Ev
FNL:8,245,245
FNA:8,0,_ZN7testing8internal17SharedPayloadBase5UnrefEv
FNL:9,249
FNA:9,0,_ZN7testing8internal13SharedPayloadINS0_9EqMatcherINSt3__112basic_stringIcNS3_11char_traitsIcEENS3_9allocatorIcEEEEEEED1Ev
FNA:9,0,_ZN7testing8internal13SharedPayloadINS0_9EqMatcherINSt3__112basic_stringIcNS3_11char_traitsIcEENS3_9allocatorIcEEEEEEED2Ev
FNL:10,251,251
FNA:10,0,_ZN7testing8internal13SharedPayloadINS0_9EqMatcherINSt3__112basic_stringIcNS3_11char_traitsIcEENS3_9allocatorIcEEEEEEEC1EOSA_
FNA:10,0,_ZN7testing8internal13SharedPayloadINS0_9EqMatcherINSt3__112basic_stringIcNS3_11char_traitsIcEENS3_9allocatorIcEEEEEEEC2EOSA_
FNL:11,253,255
FNA:11,0,_ZN7testing8internal13SharedPayloadINS0_9EqMatcherINSt3__112basic_stringIcNS3_11char_traitsIcEENS3_9allocatorIcEEEEEEE7DestroyEPNS0_17SharedPayloadBaseE
FNL:12,268,271
FNA:12,0,_ZNK7testing8internal11MatcherBaseIRKNSt3__112basic_stringIcNS2_11char_traitsIcEENS2_9allocatorIcEEEEE15MatchAndExplainESA_PNS_19MatchResultListenerE
FNL:13,274,277
FNA:13,0,_ZNK7testing8internal11MatcherBaseIRKNSt3__112basic_stringIcNS2_11char_traitsIcEENS2_9allocatorIcEEEEE7MatchesESA_
FNL:14,280,283
FNA:14,0,_ZNK7testing8internal11MatcherBaseINSt3__112basic_stringIcNS2_11char_traitsIcEENS2_9allocatorIcEEEEE10DescribeToEPNS2_13basic_ostreamIcS5_EE
FNA:14,0,_ZNK7testing8internal11MatcherBaseINSt3__117basic_string_viewIcNS2_11char_traitsIcEEEEE10DescribeToEPNS2_13basic_ostreamIcS5_EE
FNA:14,0,_ZNK7testing8internal11MatcherBaseIRKNSt3__112basic_stringIcNS2_11char_traitsIcEENS2_9allocatorIcEEEEE10DescribeToEPNS2_13basic_ostreamIcS5_EE
FNA:14,0,_ZNK7testing8internal11MatcherBaseIRKNSt3__117basic_string_viewIcNS2_11char_traitsIcEEEEE10DescribeToEPNS2_13basic_ostreamIcS5_EE
FNL:15,286,289
FNA:15,0,_ZNK7testing8internal11MatcherBaseINSt3__112basic_stringIcNS2_11char_traitsIcEENS2_9allocatorIcEEEEE18DescribeNegationToEPNS2_13basic_ostreamIcS5_EE
FNA:15,0,_ZNK7testing8internal11MatcherBaseINSt3__117basic_string_viewIcNS2_11char_traitsIcEEEEE18DescribeNegationToEPNS2_13basic_ostreamIcS5_EE
FNA:15,0,_ZNK7testing8internal11MatcherBaseIRKNSt3__112basic_stringIcNS2_11char_traitsIcEENS2_9allocatorIcEEEEE18DescribeNegationToEPNS2_13basic_ostreamIcS5_EE
FNA:15,0,_ZNK7testing8internal11MatcherBaseIRKNSt3__117basic_string_viewIcNS2_11char_traitsIcEEEEE18DescribeNegationToEPNS2_13basic_ostreamIcS5_EE
FNL:16,306,306
FNA:16,0,_ZN7testing8internal11MatcherBaseINSt3__112basic_stringIcNS2_11char_traitsIcEENS2_9allocatorIcEEEEEC2Ev
FNA:16,0,_ZN7testing8internal11MatcherBaseINSt3__117basic_string_viewIcNS2_11char_traitsIcEEEEEC2Ev
FNA:16,0,_ZN7testing8internal11MatcherBaseIRKNSt3__112basic_stringIcNS2_11char_traitsIcEENS2_9allocatorIcEEEEEC2Ev
FNA:16,0,_ZN7testing8internal11MatcherBaseIRKNSt3__117basic_string_viewIcNS2_11char_traitsIcEEEEEC2Ev
FNL:17,317,319
FNA:17,0,_ZN7testing8internal11MatcherBaseINSt3__112basic_stringIcNS2_11char_traitsIcEENS2_9allocatorIcEEEEEC2INS0_9EqMatcherIS8_EEvEEOT_
FNA:17,0,_ZN7testing8internal11MatcherBaseINSt3__117basic_string_viewIcNS2_11char_traitsIcEEEEEC2INS0_9EqMatcherINS2_12basic_stringIcS5_NS2_9allocatorIcEEEEEEvEEOT_
FNA:17,0,_ZN7testing8internal11MatcherBaseIRKNSt3__112basic_stringIcNS2_11char_traitsIcEENS2_9allocatorIcEEEEEC2INS0_9EqMatcherIS8_EEvEEOT_
FNA:17,0,_ZN7testing8internal11MatcherBaseIRKNSt3__117basic_string_viewIcNS2_11char_traitsIcEEEEEC2INS0_9EqMatcherINS2_12basic_stringIcS5_NS2_9allocatorIcEEEEEEvEEOT_
FNL:18,335,338
FNA:18,0,_ZN7testing8internal11MatcherBaseIRKNSt3__112basic_stringIcNS2_11char_traitsIcEENS2_9allocatorIcEEEEEC2EOSB_
FNL:19,340,347
FNA:19,0,_ZN7testing8internal11MatcherBaseINSt3__112basic_stringIcNS2_11char_traitsIcEENS2_9allocatorIcEEEEEaSEOS9_
FNA:19,0,_ZN7testing8internal11MatcherBaseINSt3__117basic_string_viewIcNS2_11char_traitsIcEEEEEaSEOS7_
FNA:19,0,_ZN7testing8internal11MatcherBaseIRKNSt3__112basic_stringIcNS2_11char_traitsIcEENS2_9allocatorIcEEEEEaSEOSB_
FNA:19,0,_ZN7testing8internal11MatcherBaseIRKNSt3__117basic_string_viewIcNS2_11char_traitsIcEEEEEaSEOS9_
FNL:20,349,349
FNA:20,0,_ZN7testing8internal11MatcherBaseINSt3__112basic_stringIcNS2_11char_traitsIcEENS2_9allocatorIcEEEEED0Ev
FNA:20,0,_ZN7testing8internal11MatcherBaseINSt3__112basic_stringIcNS2_11char_traitsIcEENS2_9allocatorIcEEEEED1Ev
FNA:20,0,_ZN7testing8internal11MatcherBaseINSt3__112basic_stringIcNS2_11char_traitsIcEENS2_9allocatorIcEEEEED2Ev
FNA:20,0,_ZN7testing8internal11MatcherBaseINSt3__117basic_string_viewIcNS2_11char_traitsIcEEEEED0Ev
FNA:20,0,_ZN7testing8internal11MatcherBaseINSt3__117basic_string_viewIcNS2_11char_traitsIcEEEEED1Ev
FNA:20,0,_ZN7testing8internal11MatcherBaseINSt3__117basic_string_viewIcNS2_11char_traitsIcEEEEED2Ev
FNA:20,0,_ZN7testing8internal11MatcherBaseIRKNSt3__112basic_stringIcNS2_11char_traitsIcEENS2_9allocatorIcEEEEED0Ev
FNA:20,0,_ZN7testing8internal11MatcherBaseIRKNSt3__112basic_stringIcNS2_11char_traitsIcEENS2_9allocatorIcEEEEED1Ev
FNA:20,0,_ZN7testing8internal11MatcherBaseIRKNSt3__112basic_stringIcNS2_11char_traitsIcEENS2_9allocatorIcEEEEED2Ev
FNA:20,0,_ZN7testing8internal11MatcherBaseIRKNSt3__117basic_string_viewIcNS2_11char_traitsIcEEEEED0Ev
FNA:20,0,_ZN7testing8internal11MatcherBaseIRKNSt3__117basic_string_viewIcNS2_11char_traitsIcEEEEED1Ev
FNA:20,0,_ZN7testing8internal11MatcherBaseIRKNSt3__117basic_string_viewIcNS2_11char_traitsIcEEEEED2Ev
FNL:21,363,364
FNA:21,0,_ZNK7testing8internal11MatcherBaseINSt3__112basic_stringIcNS2_11char_traitsIcEENS2_9allocatorIcEEEEE8IsSharedEv
FNA:21,0,_ZNK7testing8internal11MatcherBaseINSt3__117basic_string_viewIcNS2_11char_traitsIcEEEEE8IsSharedEv
FNA:21,0,_ZNK7testing8internal11MatcherBaseIRKNSt3__112basic_stringIcNS2_11char_traitsIcEENS2_9allocatorIcEEEEE8IsSharedEv
FNA:21,0,_ZNK7testing8internal11MatcherBaseIRKNSt3__117basic_string_viewIcNS2_11char_traitsIcEEEEE8IsSharedEv
FNL:22,369,372
FNA:22,0,_ZN7testing8internal11MatcherBaseINSt3__112basic_stringIcNS2_11char_traitsIcEENS2_9allocatorIcEEEEE19MatchAndExplainImplINS9_11ValuePolicyINS0_9EqMatcherIS8_EELb0EEEEEDTcldtclsrT_3Getfp_E15MatchAndExplainfp0_clptfp1_6streamEEERKS9_RKS8_PNS_19MatchResultListenerE
FNA:22,0,_ZN7testing8internal11MatcherBaseINSt3__117basic_string_viewIcNS2_11char_traitsIcEEEEE19MatchAndExplainImplINS7_11ValuePolicyINS0_9EqMatcherINS2_12basic_stringIcS5_NS2_9allocatorIcEEEEEELb0EEEEEDTcldtclsrT_3Getfp_E15MatchAndExplainfp0_clptfp1_6streamEEERKS7_RKS6_PNS_19MatchResultListenerE
FNA:22,0,_ZN7testing8internal11MatcherBaseIRKNSt3__112basic_stringIcNS2_11char_traitsIcEENS2_9allocatorIcEEEEE19MatchAndExplainImplINSB_11ValuePolicyINS0_9EqMatcherIS8_EELb0EEEEEDTcldtclsrT_3Getfp_E15MatchAndExplainfp0_clptfp1_6streamEEERKSB_SA_PNS_19MatchResultListenerE
FNA:22,0,_ZN7testing8internal11MatcherBaseIRKNSt3__117basic_string_viewIcNS2_11char_traitsIcEEEEE19MatchAndExplainImplINS9_11ValuePolicyINS0_9EqMatcherINS2_12basic_stringIcS5_NS2_9allocatorIcEEEEEELb0EEEEEDTcldtclsrT_3Getfp_E15MatchAndExplainfp0_clptfp1_6streamEEERKS9_S8_PNS_19MatchResultListenerE
FNL:23,383,390
FNA:23,0,_ZN7testing8internal11MatcherBaseINSt3__112basic_stringIcNS2_11char_traitsIcEENS2_9allocatorIcEEEEE12DescribeImplINS9_11ValuePolicyINS0_9EqMatcherIS8_EELb0EEEEEvRKS9_PNS2_13basic_ostreamIcS5_EEb
FNA:23,0,_ZN7testing8internal11MatcherBaseINSt3__117basic_string_viewIcNS2_11char_traitsIcEEEEE12DescribeImplINS7_11ValuePolicyINS0_9EqMatcherINS2_12basic_stringIcS5_NS2_9allocatorIcEEEEEELb0EEEEEvRKS7_PNS2_13basic_ostreamIcS5_EEb
FNA:23,0,_ZN7testing8internal11MatcherBaseIRKNSt3__112basic_stringIcNS2_11char_traitsIcEENS2_9allocatorIcEEEEE12DescribeImplINSB_11ValuePolicyINS0_9EqMatcherIS8_EELb0EEEEEvRKSB_PNS2_13basic_ostreamIcS5_EEb
FNA:23,0,_ZN7testing8internal11MatcherBaseIRKNSt3__117basic_string_viewIcNS2_11char_traitsIcEEEEE12DescribeImplINS9_11ValuePolicyINS0_9EqMatcherINS2_12basic_stringIcS5_NS2_9allocatorIcEEEEEELb0EEEEEvRKS9_PNS2_13basic_ostreamIcS5_EEb
FNL:24,393,405
FNA:24,0,_ZN7testing8internal11MatcherBaseINSt3__112basic_stringIcNS2_11char_traitsIcEENS2_9allocatorIcEEEEE16GetDescriberImplINS9_11ValuePolicyINS0_9EqMatcherIS8_EELb0EEEEEPKNS_25MatcherDescriberInterfaceERKS9_
FNA:24,0,_ZN7testing8internal11MatcherBaseINSt3__117basic_string_viewIcNS2_11char_traitsIcEEEEE16GetDescriberImplINS7_11ValuePolicyINS0_9EqMatcherINS2_12basic_stringIcS5_NS2_9allocatorIcEEEEEELb0EEEEEPKNS_25MatcherDescriberInterfaceERKS7_
FNA:24,0,_ZN7testing8internal11MatcherBaseIRKNSt3__112basic_stringIcNS2_11char_traitsIcEENS2_9allocatorIcEEEEE16GetDescriberImplINSB_11ValuePolicyINS0_9EqMatcherIS8_EELb0EEEEEPKNS_25MatcherDescriberInterfaceERKSB_
FNA:24,0,_ZN7testing8internal11MatcherBaseIRKNSt3__117basic_string_viewIcNS2_11char_traitsIcEEEEE16GetDescriberImplINS9_11ValuePolicyINS0_9EqMatcherINS2_12basic_stringIcS5_NS2_9allocatorIcEEEEEELb0EEEEEPKNS_25MatcherDescriberInterfaceERKS9_
FNL:25,409,413
FNA:25,0,_ZN7testing8internal11MatcherBaseINSt3__112basic_stringIcNS2_11char_traitsIcEENS2_9allocatorIcEEEEE9GetVTableINS9_11ValuePolicyINS0_9EqMatcherIS8_EELb0EEEEEPKNS9_6VTableEv
FNA:25,0,_ZN7testing8internal11MatcherBaseINSt3__117basic_string_viewIcNS2_11char_traitsIcEEEEE9GetVTableINS7_11ValuePolicyINS0_9EqMatcherINS2_12basic_stringIcS5_NS2_9allocatorIcEEEEEELb0EEEEEPKNS7_6VTableEv
FNA:25,0,_ZN7testing8internal11MatcherBaseIRKNSt3__112basic_stringIcNS2_11char_traitsIcEENS2_9allocatorIcEEEEE9GetVTableINSB_11ValuePolicyINS0_9EqMatcherIS8_EELb0EEEEEPKNSB_6VTableEv
FNA:25,0,_ZN7testing8internal11MatcherBaseIRKNSt3__117basic_string_viewIcNS2_11char_traitsIcEEEEE9GetVTableINS9_11ValuePolicyINS0_9EqMatcherINS2_12basic_stringIcS5_NS2_9allocatorIcEEEEEELb0EEEEEPKNS9_6VTableEv
FNL:26,425,429
FNA:26,0,_ZN7testing8internal11MatcherBaseINSt3__112basic_stringIcNS2_11char_traitsIcEENS2_9allocatorIcEEEEE7DestroyEv
FNA:26,0,_ZN7testing8internal11MatcherBaseINSt3__117basic_string_viewIcNS2_11char_traitsIcEEEEE7DestroyEv
FNA:26,0,_ZN7testing8internal11MatcherBaseIRKNSt3__112basic_stringIcNS2_11char_traitsIcEENS2_9allocatorIcEEEEE7DestroyEv
FNA:26,0,_ZN7testing8internal11MatcherBaseIRKNSt3__117basic_string_viewIcNS2_11char_traitsIcEEEEE7DestroyEv
FNL:27,456,457
FNA:27,0,_ZN7testing8internal11MatcherBaseINSt3__112basic_stringIcNS2_11char_traitsIcEENS2_9allocatorIcEEEEE11ValuePolicyINS0_9EqMatcherIS8_EELb0EE3GetERKS9_
FNA:27,0,_ZN7testing8internal11MatcherBaseINSt3__117basic_string_viewIcNS2_11char_traitsIcEEEEE11ValuePolicyINS0_9EqMatcherINS2_12basic_stringIcS5_NS2_9allocatorIcEEEEEELb0EE3GetERKS7_
FNA:27,0,_ZN7testing8internal11MatcherBaseIRKNSt3__112basic_stringIcNS2_11char_traitsIcEENS2_9allocatorIcEEEEE11ValuePolicyINS0_9EqMatcherIS8_EELb0EE3GetERKSB_
FNA:27,0,_ZN7testing8internal11MatcherBaseIRKNSt3__117basic_string_viewIcNS2_11char_traitsIcEEEEE11ValuePolicyINS0_9EqMatcherINS2_12basic_stringIcS5_NS2_9allocatorIcEEEEEELb0EE3GetERKS9_
FNL:28,460,462
FNA:28,0,_ZN7testing8internal11MatcherBaseINSt3__112basic_stringIcNS2_11char_traitsIcEENS2_9allocatorIcEEEEE11ValuePolicyINS0_9EqMatcherIS8_EELb0EE4InitISC_EEvRS9_OT_
FNA:28,0,_ZN7testing8internal11MatcherBaseINSt3__117basic_string_viewIcNS2_11char_traitsIcEEEEE11ValuePolicyINS0_9EqMatcherINS2_12basic_stringIcS5_NS2_9allocatorIcEEEEEELb0EE4InitISE_EEvRS7_OT_
FNA:28,0,_ZN7testing8internal11MatcherBaseIRKNSt3__112basic_stringIcNS2_11char_traitsIcEENS2_9allocatorIcEEEEE11ValuePolicyINS0_9EqMatcherIS8_EELb0EE4InitISE_EEvRSB_OT_
FNA:28,0,_ZN7testing8internal11MatcherBaseIRKNSt3__117basic_string_viewIcNS2_11char_traitsIcEEEEE11ValuePolicyINS0_9EqMatcherINS2_12basic_stringIcS5_NS2_9allocatorIcEEEEEELb0EE4InitISG_EEvRS9_OT_
FNL:29,481,486
FNA:29,0,_ZN7testing8internal11MatcherBaseINSt3__112basic_stringIcNS2_11char_traitsIcEENS2_9allocatorIcEEEEE4InitINS0_9EqMatcherIS8_EEEEvOT_
FNA:29,0,_ZN7testing8internal11MatcherBaseINSt3__117basic_string_viewIcNS2_11char_traitsIcEEEEE4InitINS0_9EqMatcherINS2_12basic_stringIcS5_NS2_9allocatorIcEEEEEEEEvOT_
FNA:29,0,_ZN7testing8internal11MatcherBaseIRKNSt3__112basic_stringIcNS2_11char_traitsIcEENS2_9allocatorIcEEEEE4InitINS0_9EqMatcherIS8_EEEEvOT_
FNA:29,0,_ZN7testing8internal11MatcherBaseIRKNSt3__117basic_string_viewIcNS2_11char_traitsIcEEEEE4InitINS0_9EqMatcherINS2_12basic_stringIcS5_NS2_9allocatorIcEEEEEEEEvOT_
FNL:30,530
FNA:30,0,_ZN7testing7MatcherIRKNSt3__112basic_stringIcNS1_11char_traitsIcEENS1_9allocatorIcEEEEEC1EOSA_
FNA:30,0,_ZN7testing7MatcherIRKNSt3__112basic_stringIcNS1_11char_traitsIcEENS1_9allocatorIcEEEEEC2EOSA_
FNA:30,0,_ZN7testing7MatcherIRKNSt3__112basic_stringIcNS1_11char_traitsIcEENS1_9allocatorIcEEEEED0Ev
FNA:30,0,_ZN7testing7MatcherIRKNSt3__112basic_stringIcNS1_11char_traitsIcEENS1_9allocatorIcEEEEED1Ev
FNA:30,0,_ZN7testing7MatcherIRKNSt3__112basic_stringIcNS1_11char_traitsIcEENS1_9allocatorIcEEEEED2Ev
FNA:30,0,_ZN7testing7MatcherIRKNSt3__112basic_stringIcNS1_11char_traitsIcEENS1_9allocatorIcEEEEEaSEOSA_
FNL:31,540,541
FNA:31,0,_ZN7testing7MatcherIRKNSt3__112basic_stringIcNS1_11char_traitsIcEENS1_9allocatorIcEEEEEC1INS_8internal9EqMatcherIS7_EEvEEOT_
FNA:31,0,_ZN7testing7MatcherIRKNSt3__112basic_stringIcNS1_11char_traitsIcEENS1_9allocatorIcEEEEEC2INS_8internal9EqMatcherIS7_EEvEEOT_
FNL:32,552
FNA:32,0,_ZN7testing7MatcherINSt3__112basic_stringIcNS1_11char_traitsIcEENS1_9allocatorIcEEEEED0Ev
FNA:32,0,_ZN7testing7MatcherINSt3__112basic_stringIcNS1_11char_traitsIcEENS1_9allocatorIcEEEEED1Ev
FNA:32,0,_ZN7testing7MatcherINSt3__112basic_stringIcNS1_11char_traitsIcEENS1_9allocatorIcEEEEED2Ev
FNA:32,0,_ZN7testing7MatcherINSt3__112basic_stringIcNS1_11char_traitsIcEENS1_9allocatorIcEEEEEaSEOS8_
FNL:33,564,565
FNA:33,0,_ZN7testing7MatcherINSt3__112basic_stringIcNS1_11char_traitsIcEENS1_9allocatorIcEEEEEC1INS_8internal9EqMatcherIS7_EEvEEOT_
FNA:33,0,_ZN7testing7MatcherINSt3__112basic_stringIcNS1_11char_traitsIcEENS1_9allocatorIcEEEEEC2INS_8internal9EqMatcherIS7_EEvEEOT_
FNL:34,580
FNA:34,0,_ZN7testing7MatcherIRKNSt3__117basic_string_viewIcNS1_11char_traitsIcEEEEED0Ev
FNA:34,0,_ZN7testing7MatcherIRKNSt3__117basic_string_viewIcNS1_11char_traitsIcEEEEED1Ev
FNA:34,0,_ZN7testing7MatcherIRKNSt3__117basic_string_viewIcNS1_11char_traitsIcEEEEED2Ev
FNA:34,0,_ZN7testing7MatcherIRKNSt3__117basic_string_viewIcNS1_11char_traitsIcEEEEEaSEOS8_
FNL:35,590,592
FNA:35,0,_ZN7testing7MatcherIRKNSt3__117basic_string_viewIcNS1_11char_traitsIcEEEEEC1INS_8internal9EqMatcherINS1_12basic_stringIcS4_NS1_9allocatorIcEEEEEEvEEOT_
FNA:35,0,_ZN7testing7MatcherIRKNSt3__117basic_string_viewIcNS1_11char_traitsIcEEEEEC2INS_8internal9EqMatcherINS1_12basic_stringIcS4_NS1_9allocatorIcEEEEEEvEEOT_
FNL:36,606
FNA:36,0,_ZN7testing7MatcherINSt3__117basic_string_viewIcNS1_11char_traitsIcEEEEED0Ev
FNA:36,0,_ZN7testing7MatcherINSt3__117basic_string_viewIcNS1_11char_traitsIcEEEEED1Ev
FNA:36,0,_ZN7testing7MatcherINSt3__117basic_string_viewIcNS1_11char_traitsIcEEEEED2Ev
FNA:36,0,_ZN7testing7MatcherINSt3__117basic_string_viewIcNS1_11char_traitsIcEEEEEaSEOS6_
FNL:37,618,619
FNA:37,0,_ZN7testing7MatcherINSt3__117basic_string_viewIcNS1_11char_traitsIcEEEEEC1INS_8internal9EqMatcherINS1_12basic_stringIcS4_NS1_9allocatorIcEEEEEEvEEOT_
FNA:37,0,_ZN7testing7MatcherINSt3__117basic_string_viewIcNS1_11char_traitsIcEEEEEC2INS_8internal9EqMatcherINS1_12basic_stringIcS4_NS1_9allocatorIcEEEEEEvEEOT_
FNL:38,728
FNA:38,0,_ZN7testing8internal14ComparisonBaseINS0_9EqMatcherINSt3__112basic_stringIcNS3_11char_traitsIcEENS3_9allocatorIcEEEEEES9_NS0_5AnyEqEEC2EOSC_
FNA:38,0,_ZN7testing8internal14ComparisonBaseINS0_9EqMatcherINSt3__112basic_stringIcNS3_11char_traitsIcEENS3_9allocatorIcEEEEEES9_NS0_5AnyEqEED2Ev
FNL:39,730,730
FNA:39,0,_ZN7testing8internal14ComparisonBaseINS0_9EqMatcherINSt3__112basic_stringIcNS3_11char_traitsIcEENS3_9allocatorIcEEEEEES9_NS0_5AnyEqEEC2ERKS9_
FNL:40,735,736
FNA:40,0,_ZNK7testing8internal14ComparisonBaseINS0_9EqMatcherINSt3__112basic_stringIcNS3_11char_traitsIcEENS3_9allocatorIcEEEEEES9_NS0_5AnyEqEE15MatchAndExplainINS3_17basic_string_viewIcS6_EEEEbRKT_PNS3_13basic_ostreamIcS6_EE
FNA:40,0,_ZNK7testing8internal14ComparisonBaseINS0_9EqMatcherINSt3__112basic_stringIcNS3_11char_traitsIcEENS3_9allocatorIcEEEEEES9_NS0_5AnyEqEE15MatchAndExplainIS9_EEbRKT_PNS3_13basic_ostreamIcS6_EE
FNL:41,738,741
FNA:41,0,_ZNK7testing8internal14ComparisonBaseINS0_9EqMatcherINSt3__112basic_stringIcNS3_11char_traitsIcEENS3_9allocatorIcEEEEEES9_NS0_5AnyEqEE10DescribeToEPNS3_13basic_ostreamIcS6_EE
FNL:42,742,745
FNA:42,0,_ZNK7testing8internal14ComparisonBaseINS0_9EqMatcherINSt3__112basic_stringIcNS3_11char_traitsIcEENS3_9allocatorIcEEEEEES9_NS0_5AnyEqEE18DescribeNegationToEPNS3_13basic_ostreamIcS6_EE
FNL:43,749,750
FNA:43,0,_ZN7testing8internal14ComparisonBaseINS0_9EqMatcherINSt3__112basic_stringIcNS3_11char_traitsIcEENS3_9allocatorIcEEEEEES9_NS0_5AnyEqEE6UnwrapIS9_EERKT_SG_
FNL:44,761
FNA:44,0,_ZN7testing8internal9EqMatcherINSt3__112basic_stringIcNS2_11char_traitsIcEENS2_9allocatorIcEEEEEC1EOS9_
FNA:44,0,_ZN7testing8internal9EqMatcherINSt3__112basic_stringIcNS2_11char_traitsIcEENS2_9allocatorIcEEEEEC2EOS9_
FNA:44,0,_ZN7testing8internal9EqMatcherINSt3__112basic_stringIcNS2_11char_traitsIcEENS2_9allocatorIcEEEEED1Ev
FNA:44,0,_ZN7testing8internal9EqMatcherINSt3__112basic_stringIcNS2_11char_traitsIcEENS2_9allocatorIcEEEEED2Ev
FNL:45,763,764
FNA:45,0,_ZN7testing8internal9EqMatcherINSt3__112basic_stringIcNS2_11char_traitsIcEENS2_9allocatorIcEEEEEC1ERKS8_
FNA:45,0,_ZN7testing8internal9EqMatcherINSt3__112basic_stringIcNS2_11char_traitsIcEENS2_9allocatorIcEEEEEC2ERKS8_
FNL:46,765,765
FNA:46,0,_ZN7testing8internal9EqMatcherINSt3__112basic_stringIcNS2_11char_traitsIcEENS2_9allocatorIcEEEEE4DescEv
FNL:47,766,766
FNA:47,0,_ZN7testing8internal9EqMatcherINSt3__112basic_stringIcNS2_11char_traitsIcEENS2_9allocatorIcEEEEE11NegatedDescEv
FNL:48,82,82
FNA:48,0,_ZN7testing19MatchResultListenerC2EPNSt3__113basic_ostreamIcNS1_11char_traitsIcEEEE
FNL:49,895,896
FNA:49,0,_ZN7testing2EqINSt3__112basic_stringIcNS1_11char_traitsIcEENS1_9allocatorIcEEEEEENS_8internal9EqMatcherIT_EESA_
FNL:50,94,94
FNA:50,0,_ZN7testing19MatchResultListener6streamEv
FNF:51
FNH:0
DA:82,0
DA:94,0
DA:109,0
DA:115,0
DA:130,0
DA:131,0
DA:132,0
DA:133,0
DA:134,0
DA:183,0
DA:184,0
DA:221,0
DA:242,0
DA:243,0
DA:245,0
DA:251,0
DA:253,0
DA:254,0
DA:255,0
DA:268,0
DA:269,0
DA:270,0
DA:271,0
DA:274,0
DA:275,0
DA:276,0
DA:277,0
DA:280,0
DA:281,0
DA:282,0
DA:283,0
DA:286,0
DA:287,0
DA:288,0
DA:289,0
DA:306,0
DA:317,0
DA:318,0
DA:319,0
DA:335,0
DA:336,0
DA:337,0
DA:338,0
DA:340,0
DA:341,0
DA:342,0
DA:343,0
DA:344,0
DA:345,0
DA:346,0
DA:347,0
DA:349,0
DA:363,0
DA:364,0
DA:369,0
DA:372,0
DA:383,0
DA:385,0
DA:386,0
DA:387,0
DA:388,0
DA:390,0
DA:393,0
DA:401,0
DA:405,0
DA:409,0
DA:413,0
DA:425,0
DA:426,0
DA:427,0
DA:428,0
DA:429,0
DA:456,0
DA:457,0
DA:460,0
DA:461,0
DA:462,0
DA:481,0
DA:484,0
DA:485,0
DA:486,0
DA:540,0
DA:541,0
DA:564,0
DA:565,0
DA:590,0
DA:591,0
DA:592,0
DA:618,0
DA:619,0
DA:730,0
DA:735,0
DA:736,0
DA:738,0
DA:739,0
DA:740,0
DA:741,0
DA:742,0
DA:743,0
DA:744,0
DA:745,0
DA:749,0
DA:750,0
DA:763,0
DA:764,0
DA:765,0
DA:766,0
DA:895,0
DA:896,0
LF:109
LH:0
end_of_record
TN:
SF:/Users/trisha/Desktop/nsu/oop/oop_git/lab1/build/_deps/googletest-src/googletest/include/gtest/gtest-message.h
FNL:0,103
FNA:0,0,_ZN7testing7MessageC1ERKS0_
FNA:0,0,_ZN7testing7MessageC2ERKS0_
FNL:1,114
FNA:1,0,_ZN7testing7MessagelsIA100_cEERS0_RKT_
FNA:1,0,_ZN7testing7MessagelsIA106_cEERS0_RKT_
FNA:1,0,_ZN7testing7MessagelsIA10_cEERS0_RKT_
FNA:1,0,_ZN7testing7MessagelsIA11_cEERS0_RKT_
FNA:1,0,_ZN7testing7MessagelsIA12_cEERS0_RKT_
FNA:1,0,_ZN7testing7MessagelsIA13_cEERS0_RKT_
FNA:1,0,_ZN7testing7MessagelsIA14_cEERS0_RKT_
FNA:1,0,_ZN7testing7MessagelsIA15_cEERS0_RKT_
FNA:1,0,_ZN7testing7MessagelsIA16_cEERS0_RKT_
FNA:1,0,_ZN7testing7MessagelsIA17_cEERS0_RKT_
FNA:1,0,_ZN7testing7MessagelsIA18_cEERS0_RKT_
FNA:1,0,_ZN7testing7MessagelsIA19_cEERS0_RKT_
FNA:1,0,_ZN7testing7MessagelsIA20_cEERS0_RKT_
FNA:1,0,_ZN7testing7MessagelsIA21_cEERS0_RKT_
FNA:1,0,_ZN7testing7MessagelsIA22_cEERS0_RKT_
FNA:1,0,_ZN7testing7MessagelsIA24_cEERS0_RKT_
FNA:1,0,_ZN7testing7MessagelsIA256_cEERS0_RKT_
FNA:1,0,_ZN7testing7MessagelsIA25_cEERS0_RKT_
FNA:1,0,_ZN7testing7MessagelsIA27_cEERS0_RKT_
FNA:1,0,_ZN7testing7MessagelsIA28_cEERS0_RKT_
FNA:1,0,_ZN7testing7MessagelsIA29_cEERS0_RKT_
FNA:1,0,_ZN7testing7MessagelsIA2_cEERS0_RKT_
FNA:1,0,_ZN7testing7MessagelsIA30_cEERS0_RKT_
FNA:1,0,_ZN7testing7MessagelsIA32_cEERS0_RKT_
FNA:1,0,_ZN7testing7MessagelsIA33_cEERS0_RKT_
FNA:1,0,_ZN7testing7MessagelsIA35_cEERS0_RKT_
FNA:1,0,_ZN7testing7MessagelsIA38_cEERS0_RKT_
FNA:1,0,_ZN7testing7MessagelsIA39_cEERS0_RKT_
FNA:1,0,_ZN7testing7MessagelsIA3_cEERS0_RKT_
FNA:1,0,_ZN7testing7MessagelsIA40_cEERS0_RKT_
FNA:1,0,_ZN7testing7MessagelsIA41_cEERS0_RKT_
FNA:1,0,_ZN7testing7MessagelsIA47_cEERS0_RKT_
FNA:1,0,_ZN7testing7MessagelsIA48_cEERS0_RKT_
FNA:1,0,_ZN7testing7MessagelsIA4_cEERS0_RKT_
FNA:1,0,_ZN7testing7MessagelsIA50_cEERS0_RKT_
FNA:1,0,_ZN7testing7MessagelsIA51_cEERS0_RKT_
FNA:1,0,_ZN7testing7MessagelsIA52_cEERS0_RKT_
FNA:1,0,_ZN7testing7MessagelsIA53_cEERS0_RKT_
FNA:1,0,_ZN7testing7MessagelsIA5_cEERS0_RKT_
FNA:1,0,_ZN7testing7MessagelsIA60_cEERS0_RKT_
FNA:1,0,_ZN7testing7MessagelsIA61_cEERS0_RKT_
FNA:1,0,_ZN7testing7MessagelsIA62_cEERS0_RKT_
FNA:1,0,_ZN7testing7MessagelsIA63_cEERS0_RKT_
FNA:1,0,_ZN7testing7MessagelsIA65_cEERS0_RKT_
FNA:1,0,_ZN7testing7MessagelsIA68_cEERS0_RKT_
FNA:1,0,_ZN7testing7MessagelsIA6_cEERS0_RKT_
FNA:1,546,_ZN7testing7MessagelsIA7_cEERS0_RKT_
FNA:1,0,_ZN7testing7MessagelsIA8_cEERS0_RKT_
FNA:1,0,_ZN7testing7MessagelsIA95_cEERS0_RKT_
FNA:1,0,_ZN7testing7MessagelsIA9_cEERS0_RKT_
FNA:1,0,_ZN7testing7MessagelsINS_14TestPartResultEEERS0_RKT_
FNA:1,0,_ZN7testing7MessagelsINSt3__112basic_stringIcNS2_11char_traitsIcEENS2_9allocatorIcEEEEEERS0_RKT_
FNA:1,0,_ZN7testing7MessagelsIS0_EERS0_RKT_
FNA:1,10764,_ZN7testing7MessagelsIcEERS0_RKT_
FNA:1,0,_ZN7testing7MessagelsIdEERS0_RKT_
FNA:1,175,_ZN7testing7MessagelsIiEERS0_RKT_
FNA:1,0,_ZN7testing7MessagelsImEERS0_RKT_
FNA:1,75,_ZN7testing7MessagelsIxEERS0_RKT_
FNL:2,148
FNA:2,546,_ZN7testing7MessagelsIKcEERS0_RKPT_
FNA:2,128,_ZN7testing7MessagelsIcEERS0_RKPT_
FNL:3,198
FNA:3,0,_ZN7testinglsERNSt3__113basic_ostreamIcNS0_11char_traitsIcEEEERKNS_7MessageE
FNL:4,209
FNA:4,128,_ZN7testing8internal18StreamableToStringIPcEENSt3__112basic_stringIcNS3_11char_traitsIcEENS3_9allocatorIcEEEERKT_
FNA:4,0,_ZN7testing8internal18StreamableToStringIPwEENSt3__112basic_stringIcNS3_11char_traitsIcEENS3_9allocatorIcEEEERKT_
FNA:4,175,_ZN7testing8internal18StreamableToStringIiEENSt3__112basic_stringIcNS2_11char_traitsIcEENS2_9allocatorIcEEEERKT_
FNA:4,75,_ZN7testing8internal18StreamableToStringIxEENSt3__112basic_stringIcNS2_11char_traitsIcEENS2_9allocatorIcEEEERKT_
FNL:5,92
FNA:5,1470,_ZN7testing7MessageD1Ev
FNA:5,1470,_ZN7testing7MessageD2Ev
FNF:6
FNH:4
DA:103,0
DA:104,0
DA:105,0
DA:114,11560
DA:130,11560
DA:131,11560
DA:148,674
DA:149,674
DA:150,0
DA:151,0
DA:152,674
DA:154,674
DA:198,0
DA:199,0
DA:200,0
DA:209,378
DA:210,378
DA:211,0
LF:18
LH:9
end_of_record
TN:
SF:/Users/trisha/Desktop/nsu/oop/oop_git/lab1/build/_deps/googletest-src/googletest/include/gtest/gtest-printers.h
FNL:0,1035,1039
FNA:0,0,_ZN7testing13PrintToStringIDnEENSt3__112basic_stringIcNS1_11char_traitsIcEENS1_9allocatorIcEEEERKT_
FNA:0,0,_ZN7testing13PrintToStringIPKcEENSt3__112basic_stringIcNS3_11char_traitsIcEENS3_9allocatorIcEEEERKT_
FNA:0,0,_ZN7testing13PrintToStringIPKvEENSt3__112basic_stringIcNS3_11char_traitsIcEENS3_9allocatorIcEEEERKT_
FNA:0,0,_ZN7testing13PrintToStringIPKwEENSt3__112basic_stringIcNS3_11char_traitsIcEENS3_9allocatorIcEEEERKT_
FNA:0,0,_ZN7testing13PrintToStringIcEENSt3__112basic_stringIcNS1_11char_traitsIcEENS1_9allocatorIcEEEERKT_
FNA:0,0,_ZN7testing13PrintToStringIiEENSt3__112basic_stringIcNS1_11char_traitsIcEENS1_9allocatorIcEEEERKT_
FNA:0,0,_ZN7testing13PrintToStringImEENSt3__112basic_stringIcNS1_11char_traitsIcEENS1_9allocatorIcEEEERKT_
FNL:1,182,191
FNA:1,0,_ZN7testing8internal14PointerPrinter10PrintValueIKvEEvPT_PNSt3__113basic_ostreamIcNS6_11char_traitsIcEEEE
FNL:2,213,217
FNA:2,0,_ZN7testing8internal52internal_stream_operator_without_lexical_name_lookup13StreamPrinter10PrintValueIivRNSt3__113basic_ostreamIcNS4_11char_traitsIcEEEEEEvRKT_PS8_
FNA:2,0,_ZN7testing8internal52internal_stream_operator_without_lexical_name_lookup13StreamPrinter10PrintValueImvRNSt3__113basic_ostreamIcNS4_11char_traitsIcEEEEEEvRKT_PS8_
FNL:3,305,312
FNA:3,0,_ZN7testing8internal17PrintWithFallbackIPKvEEvRKT_PNSt3__113basic_ostreamIcNS7_11char_traitsIcEEEE
FNA:3,0,_ZN7testing8internal17PrintWithFallbackIiEEvRKT_PNSt3__113basic_ostreamIcNS5_11char_traitsIcEEEE
FNA:3,0,_ZN7testing8internal17PrintWithFallbackImEEvRKT_PNSt3__113basic_ostreamIcNS5_11char_traitsIcEEEE
FNL:4,332,333
FNA:4,0,_ZN7testing8internal19FormatForComparisonIDnPcE6FormatERKDn
FNA:4,0,_ZN7testing8internal19FormatForComparisonIccE6FormatERKc
FNA:4,0,_ZN7testing8internal19FormatForComparisonIciE6FormatERKc
FNA:4,0,_ZN7testing8internal19FormatForComparisonIicE6FormatERKi
FNA:4,0,_ZN7testing8internal19FormatForComparisonIimE6FormatERKi
FNA:4,0,_ZN7testing8internal19FormatForComparisonImiE6FormatERKm
FNA:4,0,_ZN7testing8internal19FormatForComparisonImmE6FormatERKm
FNL:5,358,358
FNA:5,0,_ZN7testing8internal19FormatForComparisonIPcDnE6FormatES2_
FNL:6,412,414
FNA:6,0,_ZN7testing8internal33FormatForComparisonFailureMessageIDnPcEENSt3__112basic_stringIcNS3_11char_traitsIcEENS3_9allocatorIcEEEERKT_RKT0_
FNA:6,0,_ZN7testing8internal33FormatForComparisonFailureMessageIPcDnEENSt3__112basic_stringIcNS3_11char_traitsIcEENS3_9allocatorIcEEEERKT_RKT0_
FNA:6,0,_ZN7testing8internal33FormatForComparisonFailureMessageIccEENSt3__112basic_stringIcNS2_11char_traitsIcEENS2_9allocatorIcEEEERKT_RKT0_
FNA:6,0,_ZN7testing8internal33FormatForComparisonFailureMessageIciEENSt3__112basic_stringIcNS2_11char_traitsIcEENS2_9allocatorIcEEEERKT_RKT0_
FNA:6,0,_ZN7testing8internal33FormatForComparisonFailureMessageIicEENSt3__112basic_stringIcNS2_11char_traitsIcEENS2_9allocatorIcEEEERKT_RKT0_
FNA:6,0,_ZN7testing8internal33FormatForComparisonFailureMessageIimEENSt3__112basic_stringIcNS2_11char_traitsIcEENS2_9allocatorIcEEEERKT_RKT0_
FNA:6,0,_ZN7testing8internal33FormatForComparisonFailureMessageImiEENSt3__112basic_stringIcNS2_11char_traitsIcEENS2_9allocatorIcEEEERKT_RKT0_
FNA:6,0,_ZN7testing8internal33FormatForComparisonFailureMessageImmEENSt3__112basic_stringIcNS2_11char_traitsIcEENS2_9allocatorIcEEEERKT_RKT0_
FNL:7,439,441
FNA:7,0,_ZN7testing8internal7PrintToIPKvEEvRKT_PNSt3__113basic_ostreamIcNS7_11char_traitsIcEEEE
FNA:7,0,_ZN7testing8internal7PrintToIiEEvRKT_PNSt3__113basic_ostreamIcNS5_11char_traitsIcEEEE
FNA:7,0,_ZN7testing8internal7PrintToImEEvRKT_PNSt3__113basic_ostreamIcNS5_11char_traitsIcEEEE
FNL:8,450,455
FNA:8,0,_ZN7testing8internal7PrintToEcPNSt3__113basic_ostreamIcNS1_11char_traitsIcEEEE
FNL:9,554,556
FNA:9,0,_ZN7testing8internal7PrintToERKNSt3__112basic_stringIcNS1_11char_traitsIcEENS1_9allocatorIcEEEEPNS1_13basic_ostreamIcS4_EE
FNL:10,581,583
FNA:10,0,_ZN7testing8internal7PrintToERKNSt3__112basic_stringIwNS1_11char_traitsIwEENS1_9allocatorIwEEEEPNS1_13basic_ostreamIcNS3_IcEEEE
FNL:11,593,593
FNA:11,0,_ZN7testing8internal7PrintToEDnPNSt3__113basic_ostreamIcNS1_11char_traitsIcEEEE
FNL:12,693,703
FNA:12,0,_ZN7testing8internal16UniversalPrinterIDnE5PrintERKDnPNSt3__113basic_ostreamIcNS5_11char_traitsIcEEEE
FNA:12,0,_ZN7testing8internal16UniversalPrinterINSt3__112basic_stringIcNS2_11char_traitsIcEENS2_9allocatorIcEEEEE5PrintERKS8_PNS2_13basic_ostreamIcS5_EE
FNA:12,0,_ZN7testing8internal16UniversalPrinterINSt3__112basic_stringIwNS2_11char_traitsIwEENS2_9allocatorIwEEEEE5PrintERKS8_PNS2_13basic_ostreamIcNS4_IcEEEE
FNA:12,0,_ZN7testing8internal16UniversalPrinterIPKvE5PrintERKS3_PNSt3__113basic_ostreamIcNS7_11char_traitsIcEEEE
FNA:12,0,_ZN7testing8internal16UniversalPrinterIcE5PrintERKcPNSt3__113basic_ostreamIcNS5_11char_traitsIcEEEE
FNA:12,0,_ZN7testing8internal16UniversalPrinterIiE5PrintERKiPNSt3__113basic_ostreamIcNS5_11char_traitsIcEEEE
FNA:12,0,_ZN7testing8internal16UniversalPrinterImE5PrintERKmPNSt3__113basic_ostreamIcNS5_11char_traitsIcEEEE
FNL:13,883,885
FNA:13,0,_ZN7testing8internal21UniversalTersePrinterIDnE5PrintERKDnPNSt3__113basic_ostreamIcNS5_11char_traitsIcEEEE
FNA:13,0,_ZN7testing8internal21UniversalTersePrinterIPKvE5PrintERKS3_PNSt3__113basic_ostreamIcNS7_11char_traitsIcEEEE
FNA:13,0,_ZN7testing8internal21UniversalTersePrinterIcE5PrintERKcPNSt3__113basic_ostreamIcNS5_11char_traitsIcEEEE
FNA:13,0,_ZN7testing8internal21UniversalTersePrinterIiE5PrintERKiPNSt3__113basic_ostreamIcNS5_11char_traitsIcEEEE
FNA:13,0,_ZN7testing8internal21UniversalTersePrinterImE5PrintERKmPNSt3__113basic_ostreamIcNS5_11char_traitsIcEEEE
FNL:14,904,910
FNA:14,0,_ZN7testing8internal21UniversalTersePrinterIPKcE5PrintES3_PNSt3__113basic_ostreamIcNS5_11char_traitsIcEEEE
FNL:15,967,973
FNA:15,0,_ZN7testing8internal21UniversalTersePrinterIPKwE5PrintES3_PNSt3__113basic_ostreamIcNS5_11char_traitsIcEEEE
FNL:16,995,1000
FNA:16,0,_ZN7testing8internal14UniversalPrintIDnEEvRKT_PNSt3__113basic_ostreamIcNS5_11char_traitsIcEEEE
FNA:16,0,_ZN7testing8internal14UniversalPrintINSt3__112basic_stringIcNS2_11char_traitsIcEENS2_9allocatorIcEEEEEEvRKT_PNS2_13basic_ostreamIcS5_EE
FNA:16,0,_ZN7testing8internal14UniversalPrintINSt3__112basic_stringIwNS2_11char_traitsIwEENS2_9allocatorIwEEEEEEvRKT_PNS2_13basic_ostreamIcNS4_IcEEEE
FNA:16,0,_ZN7testing8internal14UniversalPrintIPKvEEvRKT_PNSt3__113basic_ostreamIcNS7_11char_traitsIcEEEE
FNA:16,0,_ZN7testing8internal14UniversalPrintIcEEvRKT_PNSt3__113basic_ostreamIcNS5_11char_traitsIcEEEE
FNA:16,0,_ZN7testing8internal14UniversalPrintIiEEvRKT_PNSt3__113basic_ostreamIcNS5_11char_traitsIcEEEE
FNA:16,0,_ZN7testing8internal14UniversalPrintImEEvRKT_PNSt3__113basic_ostreamIcNS5_11char_traitsIcEEEE
FNF:17
FNH:0
DA:182,0
DA:183,0
DA:184,0
DA:185,0
DA:189,0
DA:191,0
DA:213,0
DA:216,0
DA:217,0
DA:305,0
DA:311,0
DA:312,0
DA:332,0
DA:333,0
DA:358,0
DA:412,0
DA:414,0
DA:439,0
DA:440,0
DA:441,0
DA:450,0
DA:454,0
DA:455,0
DA:554,0
DA:555,0
DA:556,0
DA:581,0
DA:582,0
DA:583,0
DA:593,0
DA:693,0
DA:702,0
DA:703,0
DA:883,0
DA:884,0
DA:885,0
DA:904,0
DA:905,0
DA:906,0
DA:907,0
DA:908,0
DA:910,0
DA:967,0
DA:968,0
DA:969,0
DA:970,0
DA:971,0
DA:973,0
DA:995,0
DA:999,0
DA:1000,0
DA:1035,0
DA:1036,0
DA:1037,0
DA:1038,0
DA:1039,0
LF:56
LH:0
end_of_record
TN:
SF:/Users/trisha/Desktop/nsu/oop/oop_git/lab1/build/_deps/googletest-src/googletest/include/gtest/gtest-test-part.h
FNL:0,100,100
FNA:0,0,_ZNK7testing14TestPartResult17nonfatally_failedEv
FNL:1,103,103
FNA:1,0,_ZNK7testing14TestPartResult14fatally_failedEv
FNL:2,106,106
FNA:2,0,_ZNK7testing14TestPartResult6failedEv
FNL:3,153
FNA:3,52,_ZN7testing31TestPartResultReporterInterfaceC2Ev
FNL:4,155,155
FNA:4,0,_ZN7testing31TestPartResultReporterInterfaceD0Ev
FNA:4,0,_ZN7testing31TestPartResultReporterInterfaceD1Ev
FNA:4,0,_ZN7testing31TestPartResultReporterInterfaceD2Ev
FNL:5,52,52
FNA:5,0,_ZN7testing14TestPartResultC1EOS0_
FNA:5,0,_ZN7testing14TestPartResultC1ERKS0_
FNA:5,0,_ZN7testing14TestPartResultC2EOS0_
FNA:5,0,_ZN7testing14TestPartResultC2ERKS0_
FNA:5,0,_ZN7testing14TestPartResultD1Ev
FNA:5,0,_ZN7testing14TestPartResultD2Ev
FNL:6,66,72
FNA:6,0,_ZN7testing14TestPartResultC1ENS0_4TypeEPKciS3_
FNA:6,0,_ZN7testing14TestPartResultC2ENS0_4TypeEPKciS3_
FNL:7,75,75
FNA:7,0,_ZNK7testing14TestPartResult4typeEv
FNL:8,79,80
FNA:8,0,_ZNK7testing14TestPartResult9file_nameEv
FNL:9,85,85
FNA:9,0,_ZNK7testing14TestPartResult11line_numberEv
FNL:10,88,88
FNA:10,0,_ZNK7testing14TestPartResult7summaryEv
FNL:11,91,91
FNA:11,0,_ZNK7testing14TestPartResult7messageEv
FNL:12,94,94
FNA:12,0,_ZNK7testing14TestPartResult7skippedEv
FNF:13
FNH:1
DA:52,0
DA:66,0
DA:68,0
DA:69,0
DA:70,0
DA:71,0
DA:72,0
DA:75,0
DA:79,0
DA:80,0
DA:85,0
DA:88,0
DA:91,0
DA:94,0
DA:100,0
DA:103,0
DA:106,0
DA:155,0
LF:18
LH:0
end_of_record
TN:
SF:/Users/trisha/Desktop/nsu/oop/oop_git/lab1/build/_deps/googletest-src/googletest/include/gtest/gtest.h
FNL:0,1001,1001
FNA:0,0,_ZN7testing22EmptyTestEventListener16OnTestProgramEndERKNS_8UnitTestE
FNL:1,1246,1246
FNA:1,1855,_ZN7testing8UnitTest4implEv
FNL:2,1247,1247
FNA:2,225,_ZNK7testing8UnitTest4implEv
FNL:3,1338,1344
FNA:3,0,_ZN7testing8internal18CmpHelperEQFailureIPcDnEENS_15AssertionResultEPKcS5_RKT_RKT0_
FNA:3,0,_ZN7testing8internal18CmpHelperEQFailureIccEENS_15AssertionResultEPKcS4_RKT_RKT0_
FNA:3,0,_ZN7testing8internal18CmpHelperEQFailureIciEENS_15AssertionResultEPKcS4_RKT_RKT0_
FNA:3,0,_ZN7testing8internal18CmpHelperEQFailureImiEENS_15AssertionResultEPKcS4_RKT_RKT0_
FNA:3,0,_ZN7testing8internal18CmpHelperEQFailureImmEENS_15AssertionResultEPKcS4_RKT_RKT0_
FNL:4,1355,1363
FNA:4,1,_ZN7testing8internal11CmpHelperEQIPcDnEENS_15AssertionResultEPKcS5_RKT_RKT0_
FNA:4,18,_ZN7testing8internal11CmpHelperEQIccEENS_15AssertionResultEPKcS4_RKT_RKT0_
FNA:4,79,_ZN7testing8internal11CmpHelperEQIciEENS_15AssertionResultEPKcS4_RKT_RKT0_
FNA:4,28,_ZN7testing8internal11CmpHelperEQImiEENS_15AssertionResultEPKcS4_RKT_RKT0_
FNA:4,6,_ZN7testing8internal11CmpHelperEQImmEENS_15AssertionResultEPKcS4_RKT_RKT0_
FNL:5,1374,1377
FNA:5,1,_ZN7testing8internal8EqHelper7CompareIPcDnLPv0EEENS_15AssertionResultEPKcS7_RKT_RKT0_
FNA:5,18,_ZN7testing8internal8EqHelper7CompareIccLPv0EEENS_15AssertionResultEPKcS6_RKT_RKT0_
FNA:5,79,_ZN7testing8internal8EqHelper7CompareIciLPv0EEENS_15AssertionResultEPKcS6_RKT_RKT0_
FNA:5,28,_ZN7testing8internal8EqHelper7CompareImiLPv0EEENS_15AssertionResultEPKcS6_RKT_RKT0_
FNA:5,6,_ZN7testing8internal8EqHelper7CompareImmLPv0EEENS_15AssertionResultEPKcS6_RKT_RKT0_
FNL:6,1595
FNA:6,0,_ZN7testing8internal12AssertHelper16AssertHelperDataD1Ev
FNA:6,0,_ZN7testing8internal12AssertHelper16AssertHelperDataD2Ev
FNL:7,1596,1598
FNA:7,0,_ZN7testing8internal12AssertHelper16AssertHelperDataC1ENS_14TestPartResult4TypeEPKciS6_
FNA:7,0,_ZN7testing8internal12AssertHelper16AssertHelperDataC2ENS_14TestPartResult4TypeEPKciS6_
FNL:8,2259,2259
FNA:8,0,_ZN7testing12RegisterTestIJEZNS_8internal23InsertSyntheticTestCaseERKNSt3__112basic_stringIcNS2_11char_traitsIcEENS2_9allocatorIcEEEENS1_12CodeLocationEbE3$_0EEPNS_8TestInfoEPKcSG_SG_SG_SG_iT0_
FNA:8,0,_ZN7testing12RegisterTestIJEZNS_8internal34TypeParameterizedTestSuiteRegistry22CheckForInstantiationsEvE3$_0EEPNS_8TestInfoEPKcS7_S7_S7_S7_iT0_
FNL:9,2264
FNA:9,0,_ZZN7testing12RegisterTestIJEZNS_8internal23InsertSyntheticTestCaseERKNSt3__112basic_stringIcNS2_11char_traitsIcEENS2_9allocatorIcEEEENS1_12CodeLocationEbE3$_0EEPNS_8TestInfoEPKcSG_SG_SG_SG_iT0_EN11FactoryImplD0Ev
FNA:9,0,_ZZN7testing12RegisterTestIJEZNS_8internal23InsertSyntheticTestCaseERKNSt3__112basic_stringIcNS2_11char_traitsIcEENS2_9allocatorIcEEEENS1_12CodeLocationEbE3$_0EEPNS_8TestInfoEPKcSG_SG_SG_SG_iT0_EN11FactoryImplD1Ev
FNA:9,0,_ZZN7testing12RegisterTestIJEZNS_8internal23InsertSyntheticTestCaseERKNSt3__112basic_stringIcNS2_11char_traitsIcEENS2_9allocatorIcEEEENS1_12CodeLocationEbE3$_0EEPNS_8TestInfoEPKcSG_SG_SG_SG_iT0_EN11FactoryImplD2Ev
FNA:9,0,_ZZN7testing12RegisterTestIJEZNS_8internal34TypeParameterizedTestSuiteRegistry22CheckForInstantiationsEvE3$_0EEPNS_8TestInfoEPKcS7_S7_S7_S7_iT0_EN11FactoryImplD0Ev
FNA:9,0,_ZZN7testing12RegisterTestIJEZNS_8internal34TypeParameterizedTestSuiteRegistry22CheckForInstantiationsEvE3$_0EEPNS_8TestInfoEPKcS7_S7_S7_S7_iT0_EN11FactoryImplD1Ev
FNA:9,0,_ZZN7testing12RegisterTestIJEZNS_8internal34TypeParameterizedTestSuiteRegistry22CheckForInstantiationsEvE3$_0EEPNS_8TestInfoEPKcS7_S7_S7_S7_iT0_EN11FactoryImplD2Ev
FNL:10,2266,2266
FNA:10,0,_ZZN7testing12RegisterTestIJEZNS_8internal23InsertSyntheticTestCaseERKNSt3__112basic_stringIcNS2_11char_traitsIcEENS2_9allocatorIcEEEENS1_12CodeLocationEbE3$_0EEPNS_8TestInfoEPKcSG_SG_SG_SG_iT0_EN11FactoryImplC1ESC_
FNA:10,0,_ZZN7testing12RegisterTestIJEZNS_8internal23InsertSyntheticTestCaseERKNSt3__112basic_stringIcNS2_11char_traitsIcEENS2_9allocatorIcEEEENS1_12CodeLocationEbE3$_0EEPNS_8TestInfoEPKcSG_SG_SG_SG_iT0_EN11FactoryImplC2ESC_
FNA:10,0,_ZZN7testing12RegisterTestIJEZNS_8internal34TypeParameterizedTestSuiteRegistry22CheckForInstantiationsEvE3$_0EEPNS_8TestInfoEPKcS7_S7_S7_S7_iT0_EN11FactoryImplC1ES3_
FNA:10,0,_ZZN7testing12RegisterTestIJEZNS_8internal34TypeParameterizedTestSuiteRegistry22CheckForInstantiationsEvE3$_0EEPNS_8TestInfoEPKcS7_S7_S7_S7_iT0_EN11FactoryImplC2ES3_
FNL:11,2267,2279
FNA:11,0,_ZZN7testing12RegisterTestIJEZNS_8internal23InsertSyntheticTestCaseERKNSt3__112basic_stringIcNS2_11char_traitsIcEENS2_9allocatorIcEEEENS1_12CodeLocationEbE3$_0EEPNS_8TestInfoEPKcSG_SG_SG_SG_iT0_EN11FactoryImpl10CreateTestEv
FNA:11,0,_ZZN7testing12RegisterTestIJEZNS_8internal34TypeParameterizedTestSuiteRegistry22CheckForInstantiationsEvE3$_0EEPNS_8TestInfoEPKcS7_S7_S7_S7_iT0_EN11FactoryImpl10CreateTestEv
FNL:12,2293,2293
FNA:12,26,_Z13RUN_ALL_TESTSv
FNL:13,244,244
FNA:13,0,_ZN7testing4Test14SetUpTestSuiteEv
FNL:14,252,252
FNA:14,0,_ZN7testing4Test17TearDownTestSuiteEv
FNL:15,257,257
FNA:15,0,_ZN7testing4Test16TearDownTestCaseEv
FNL:16,258,258
FNA:16,0,_ZN7testing4Test13SetUpTestCaseEv
FNL:17,318,318
FNA:17,25,_ZN7testing4Test11DeleteSelf_Ev
FNL:18,339,339
FNA:18,0,_ZN7testing4Test5SetupEv
FNL:19,352,352
FNA:19,0,_ZN7testing12TestPropertyC1EOS0_
FNA:19,0,_ZN7testing12TestPropertyC1ERKS0_
FNA:19,0,_ZN7testing12TestPropertyC2EOS0_
FNA:19,0,_ZN7testing12TestPropertyC2ERKS0_
FNA:19,0,_ZN7testing12TestPropertyD1Ev
FNA:19,0,_ZN7testing12TestPropertyD2Ev
FNL:20,357,358
FNA:20,0,_ZN7testing12TestPropertyC1ERKNSt3__112basic_stringIcNS1_11char_traitsIcEENS1_9allocatorIcEEEES9_
FNA:20,0,_ZN7testing12TestPropertyC2ERKNSt3__112basic_stringIcNS1_11char_traitsIcEENS1_9allocatorIcEEEES9_
FNL:21,361,361
FNA:21,0,_ZNK7testing12TestProperty3keyEv
FNL:22,364,364
FNA:22,0,_ZNK7testing12TestProperty5valueEv
FNL:23,367,367
FNA:23,0,_ZN7testing12TestProperty8SetValueERKNSt3__112basic_stringIcNS1_11char_traitsIcEENS1_9allocatorIcEEEE
FNL:24,398,398
FNA:24,50,_ZNK7testing10TestResult6PassedEv
FNL:25,413,413
FNA:25,25,_ZNK7testing10TestResult12elapsed_timeEv
FNL:26,417,417
FNA:26,0,_ZNK7testing10TestResult15start_timestampEv
FNL:27,450,450
FNA:27,25,_ZN7testing10TestResult19set_start_timestampEx
FNL:28,453,453
FNA:28,25,_ZN7testing10TestResult16set_elapsed_timeEx
FNL:29,474,474
FNA:29,0,_ZNK7testing10TestResult16death_test_countEv
FNL:30,477,477
FNA:30,0,_ZN7testing10TestResult26increment_death_test_countEv
FNL:31,523,523
FNA:31,700,_ZNK7testing8TestInfo15test_suite_nameEv
FNL:32,531,531
FNA:32,775,_ZNK7testing8TestInfo4nameEv
FNL:33,535,538
FNA:33,650,_ZNK7testing8TestInfo10type_paramEv
FNL:34,542,545
FNA:34,25,_ZNK7testing8TestInfo11value_paramEv
FNL:35,548,548
FNA:35,0,_ZNK7testing8TestInfo4fileEv
FNL:36,551,551
FNA:36,0,_ZNK7testing8TestInfo4lineEv
FNL:37,554,554
FNA:37,0,_ZNK7testing8TestInfo19is_in_another_shardEv
FNL:38,572,572
FNA:38,5000,_ZNK7testing8TestInfo10should_runEv
FNL:39,575,578
FNA:39,625,_ZNK7testing8TestInfo13is_reportableEv
FNL:40,582,582
FNA:40,175,_ZNK7testing8TestInfo6resultEv
FNL:41,610,611
FNA:41,0,_ZN7testing8TestInfo26increment_death_test_countEv
FNL:42,621,623
FNA:42,625,_ZN7testing8TestInfo15ClearTestResultEPS0_
FNL:43,677,677
FNA:43,701,_ZNK7testing9TestSuite4nameEv
FNL:44,681,684
FNA:44,26,_ZNK7testing9TestSuite10type_paramEv
FNL:45,687,687
FNA:45,750,_ZNK7testing9TestSuite10should_runEv
FNL:46,714,714
FNA:46,0,_ZNK7testing9TestSuite6PassedEv
FNL:47,717,718
FNA:47,50,_ZNK7testing9TestSuite6FailedEv
FNL:48,722,722
FNA:48,25,_ZNK7testing9TestSuite12elapsed_timeEv
FNL:49,726,726
FNA:49,0,_ZNK7testing9TestSuite15start_timestampEv
FNL:50,734,734
FNA:50,75,_ZNK7testing9TestSuite18ad_hoc_test_resultEv
FNL:51,741,741
FNA:51,1377,_ZN7testing9TestSuite14test_info_listEv
FNL:52,744,745
FNA:52,25,_ZNK7testing9TestSuite14test_info_listEv
FNL:53,753,753
FNA:53,676,_ZN7testing9TestSuite14set_should_runEb
FNL:54,763,765
FNA:54,25,_ZN7testing9TestSuite20ClearTestSuiteResultEPS0_
FNL:55,775,779
FNA:55,25,_ZN7testing9TestSuite17RunSetUpTestSuiteEv
FNL:56,783,787
FNA:56,25,_ZN7testing9TestSuite20RunTearDownTestSuiteEv
FNL:57,790,791
FNA:57,625,_ZN7testing9TestSuite10TestPassedEPKNS_8TestInfoE
FNL:58,795,796
FNA:58,625,_ZN7testing9TestSuite11TestSkippedEPKNS_8TestInfoE
FNL:59,800,801
FNA:59,1250,_ZN7testing9TestSuite10TestFailedEPKNS_8TestInfoE
FNL:60,806,807
FNA:60,625,_ZN7testing9TestSuite22TestReportableDisabledEPKNS_8TestInfoE
FNL:61,811,812
FNA:61,0,_ZN7testing9TestSuite12TestDisabledEPKNS_8TestInfoE
FNL:62,816,817
FNA:62,0,_ZN7testing9TestSuite14TestReportableEPKNS_8TestInfoE
FNL:63,821,822
FNA:63,2500,_ZN7testing9TestSuite13ShouldRunTestEPKNS_8TestInfoE
FNL:64,908
FNA:64,52,_ZN7testing17TestEventListenerC2Ev
FNL:65,910,910
FNA:65,0,_ZN7testing17TestEventListenerD0Ev
FNA:65,0,_ZN7testing17TestEventListenerD1Ev
FNA:65,0,_ZN7testing17TestEventListenerD2Ev
FNL:66,928,928
FNA:66,25,_ZN7testing17TestEventListener16OnTestSuiteStartERKNS_9TestSuiteE
FNL:67,932,932
FNA:67,0,_ZN7testing17TestEventListener15OnTestCaseStartERKNS_9TestSuiteE
FNL:68,939,939
FNA:68,0,_ZN7testing17TestEventListener14OnTestDisabledERKNS_8TestInfoE
FNL:69,950,950
FNA:69,25,_ZN7testing17TestEventListener14OnTestSuiteEndERKNS_9TestSuiteE
FNL:70,954,954
FNA:70,0,_ZN7testing17TestEventListener13OnTestCaseEndERKNS_9TestSuiteE
FNL:71,975
FNA:71,0,_ZN7testing22EmptyTestEventListenerC2Ev
FNA:71,0,_ZN7testing22EmptyTestEventListenerD0Ev
FNA:71,0,_ZN7testing22EmptyTestEventListenerD1Ev
FNA:71,0,_ZN7testing22EmptyTestEventListenerD2Ev
FNL:72,977,977
FNA:72,0,_ZN7testing22EmptyTestEventListener18OnTestProgramStartERKNS_8UnitTestE
FNL:73,978,979
FNA:73,0,_ZN7testing22EmptyTestEventListener20OnTestIterationStartERKNS_8UnitTestEi
FNL:74,980,980
FNA:74,0,_ZN7testing22EmptyTestEventListener24OnEnvironmentsSetUpStartERKNS_8UnitTestE
FNL:75,981,981
FNA:75,0,_ZN7testing22EmptyTestEventListener22OnEnvironmentsSetUpEndERKNS_8UnitTestE
FNL:76,982,982
FNA:76,0,_ZN7testing22EmptyTestEventListener16OnTestSuiteStartERKNS_9TestSuiteE
FNL:77,985,985
FNA:77,0,_ZN7testing22EmptyTestEventListener15OnTestCaseStartERKNS_9TestSuiteE
FNL:78,988,988
FNA:78,0,_ZN7testing22EmptyTestEventListener11OnTestStartERKNS_8TestInfoE
FNL:79,989,989
FNA:79,0,_ZN7testing22EmptyTestEventListener14OnTestDisabledERKNS_8TestInfoE
FNL:80,990,990
FNA:80,0,_ZN7testing22EmptyTestEventListener16OnTestPartResultERKNS_14TestPartResultE
FNL:81,991,991
FNA:81,0,_ZN7testing22EmptyTestEventListener9OnTestEndERKNS_8TestInfoE
FNL:82,992,992
FNA:82,0,_ZN7testing22EmptyTestEventListener14OnTestSuiteEndERKNS_9TestSuiteE
FNL:83,994,994
FNA:83,0,_ZN7testing22EmptyTestEventListener13OnTestCaseEndERKNS_9TestSuiteE
FNL:84,997,997
FNA:84,0,_ZN7testing22EmptyTestEventListener27OnEnvironmentsTearDownStartERKNS_8UnitTestE
FNL:85,998,998
FNA:85,0,_ZN7testing22EmptyTestEventListener25OnEnvironmentsTearDownEndERKNS_8UnitTestE
FNL:86,999,1000
FNA:86,0,_ZN7testing22EmptyTestEventListener18OnTestIterationEndERKNS_8UnitTestEi
FNF:87
FNH:38
DA:244,0
DA:252,0
DA:257,0
DA:258,0
DA:318,25
DA:339,0
DA:352,0
DA:357,0
DA:358,0
DA:361,0
DA:364,0
DA:367,0
DA:398,50
DA:413,25
DA:417,0
DA:450,25
DA:453,25
DA:474,0
DA:477,0
DA:523,700
DA:531,775
DA:535,650
DA:536,650
DA:537,650
DA:538,650
DA:542,25
DA:543,25
DA:544,25
DA:545,25
DA:548,0
DA:551,0
DA:554,0
DA:572,5000
DA:575,625
DA:578,625
DA:582,175
DA:610,0
DA:611,0
DA:621,625
DA:622,625
DA:623,625
DA:677,701
DA:681,26
DA:682,26
DA:683,26
DA:684,26
DA:687,750
DA:714,0
DA:717,50
DA:718,50
DA:722,25
DA:726,0
DA:734,75
DA:741,1377
DA:744,25
DA:745,25
DA:753,676
DA:763,25
DA:764,25
DA:765,25
DA:775,25
DA:776,25
DA:777,0
DA:778,0
DA:779,25
DA:783,25
DA:784,25
DA:785,0
DA:786,0
DA:787,25
DA:790,625
DA:791,625
DA:795,625
DA:796,625
DA:800,1250
DA:801,1250
DA:806,625
DA:807,625
DA:811,0
DA:812,0
DA:816,0
DA:817,0
DA:821,2500
DA:822,2500
DA:910,0
DA:928,25
DA:932,0
DA:939,0
DA:950,25
DA:954,0
DA:977,0
DA:978,0
DA:979,0
DA:980,0
DA:981,0
DA:982,0
DA:985,0
DA:988,0
DA:989,0
DA:990,0
DA:991,0
DA:992,0
DA:994,0
DA:997,0
DA:998,0
DA:999,0
DA:1000,0
DA:1001,0
DA:1246,1855
DA:1247,225
DA:1338,0
DA:1341,0
DA:1342,0
DA:1343,0
DA:1344,0
DA:1355,132
DA:1358,132
DA:1359,132
DA:1362,0
DA:1363,132
DA:1374,132
DA:1377,132
DA:1596,0
DA:1598,0
DA:2259,0
DA:2266,0
DA:2267,0
DA:2273,0
DA:2274,0
DA:2275,0
DA:2276,0
DA:2277,0
DA:2278,0
DA:2279,0
